	.text
	.file	"hisi-blk-core.c"
                                        // Start of file scope inline assembly
	.section "___kcrctab+blk_queue_set_inline_crypto_flag", "a"	
	.weak	__crc_blk_queue_set_inline_crypto_flag	
	.long	__crc_blk_queue_set_inline_crypto_flag	
	.previous					
	.section "___kcrctab+is_blk_queue_support_crypto", "a"	
	.weak	__crc_is_blk_queue_support_crypto	
	.long	__crc_is_blk_queue_support_crypto	
	.previous					
	.section "___kcrctab+blk_generic_freeze", "a"	
	.weak	__crc_blk_generic_freeze	
	.long	__crc_blk_generic_freeze	
	.previous					

                                        // End of file scope inline assembly
	.file	1 "/mnt/disk/jenkins/workspace/chipset_10.1.0_release_5G/opensource/component_code/vendor/huawei/extra/build/build_script/kirin_kernel_release/kernel/include/linux/export.h"
	.file	2 "/mnt/disk/jenkins/workspace/chipset_10.1.0_release_5G/opensource/component_code/vendor/huawei/extra/build/build_script/kirin_kernel_release/kernel/block/hisi-blk-core.c"
	.file	3 "/mnt/disk/jenkins/workspace/chipset_10.1.0_release_5G/opensource/component_code/vendor/huawei/extra/build/build_script/kirin_kernel_release/kernel/include/linux/lockdep.h"
	.file	4 "/mnt/disk/jenkins/workspace/chipset_10.1.0_release_5G/opensource/component_code/vendor/huawei/extra/build/build_script/kirin_kernel_release/kernel/include/linux/blkdev.h"
	.file	5 "/mnt/disk/jenkins/workspace/chipset_10.1.0_release_5G/opensource/component_code/vendor/huawei/extra/build/build_script/kirin_kernel_release/kernel/include/linux/kobject_ns.h"
	.file	6 "/mnt/disk/jenkins/workspace/chipset_10.1.0_release_5G/opensource/component_code/vendor/huawei/extra/build/build_script/kirin_kernel_release/kernel/include/linux/hrtimer.h"
	.file	7 "/mnt/disk/jenkins/workspace/chipset_10.1.0_release_5G/opensource/component_code/vendor/huawei/extra/build/build_script/kirin_kernel_release/kernel/include/linux/module.h"
	.file	8 "/mnt/disk/jenkins/workspace/chipset_10.1.0_release_5G/opensource/component_code/vendor/huawei/extra/build/build_script/kirin_kernel_release/kernel/include/linux/quota.h"
	.file	9 "/mnt/disk/jenkins/workspace/chipset_10.1.0_release_5G/opensource/component_code/vendor/huawei/extra/build/build_script/kirin_kernel_release/kernel/include/linux/fs.h"
	.file	10 "/mnt/disk/jenkins/workspace/chipset_10.1.0_release_5G/opensource/component_code/vendor/huawei/extra/build/build_script/kirin_kernel_release/kernel/include/linux/pid.h"
	.file	11 "/mnt/disk/jenkins/workspace/chipset_10.1.0_release_5G/opensource/component_code/vendor/huawei/extra/build/build_script/kirin_kernel_release/kernel/include/linux/device.h"
	.file	12 "/mnt/disk/jenkins/workspace/chipset_10.1.0_release_5G/opensource/component_code/vendor/huawei/extra/build/build_script/kirin_kernel_release/kernel/include/linux/pm.h"
	.file	13 "/mnt/disk/jenkins/workspace/chipset_10.1.0_release_5G/opensource/component_code/vendor/huawei/extra/build/build_script/kirin_kernel_release/kernel/include/linux/rcu_sync.h"
	.file	14 "/mnt/disk/jenkins/workspace/chipset_10.1.0_release_5G/opensource/component_code/vendor/huawei/extra/build/build_script/kirin_kernel_release/kernel/include/linux/migrate_mode.h"
	.file	15 "/mnt/disk/jenkins/workspace/chipset_10.1.0_release_5G/opensource/component_code/vendor/huawei/extra/build/build_script/kirin_kernel_release/kernel/include/linux/memremap.h"
	.file	16 "/mnt/disk/jenkins/workspace/chipset_10.1.0_release_5G/opensource/component_code/vendor/huawei/extra/build/build_script/kirin_kernel_release/kernel/include/linux/mm.h"
	.file	17 "/mnt/disk/jenkins/workspace/chipset_10.1.0_release_5G/opensource/component_code/vendor/huawei/extra/build/build_script/kirin_kernel_release/kernel/include/linux/restart_block.h"
	.file	18 "/mnt/disk/jenkins/workspace/chipset_10.1.0_release_5G/opensource/component_code/vendor/huawei/extra/build/build_script/kirin_kernel_release/kernel/include/linux/elevator.h"
	.file	19 "/mnt/disk/jenkins/workspace/chipset_10.1.0_release_5G/opensource/component_code/vendor/huawei/extra/build/build_script/kirin_kernel_release/kernel/block/hisi-blk.h"
	.file	20 "/mnt/disk/jenkins/workspace/chipset_10.1.0_release_5G/opensource/component_code/vendor/huawei/extra/build/build_script/kirin_kernel_release/kernel/include/linux/stddef.h"
	.file	21 "/mnt/disk/jenkins/workspace/chipset_10.1.0_release_5G/opensource/component_code/vendor/huawei/extra/build/build_script/kirin_kernel_release/kernel/include/linux/blk_types.h"
	.file	22 "/mnt/disk/jenkins/workspace/chipset_10.1.0_release_5G/opensource/component_code/vendor/huawei/extra/build/build_script/kirin_kernel_release/kernel/include/linux/hisi/rdr_hisi_platform.h"
	.file	23 "/mnt/disk/jenkins/workspace/chipset_10.1.0_release_5G/opensource/component_code/vendor/huawei/extra/build/build_script/kirin_kernel_release/kernel/include/linux/types.h"
	.file	24 "/mnt/disk/jenkins/workspace/chipset_10.1.0_release_5G/opensource/component_code/vendor/huawei/extra/build/build_script/kirin_kernel_release/kernel/include/linux/llist.h"
	.file	25 "/mnt/disk/jenkins/workspace/chipset_10.1.0_release_5G/opensource/component_code/vendor/huawei/extra/build/build_script/kirin_kernel_release/kernel/include/linux/smp.h"
	.file	26 "/mnt/disk/jenkins/workspace/chipset_10.1.0_release_5G/opensource/component_code/vendor/huawei/extra/build/build_script/kirin_kernel_release/kernel/include/asm-generic/int-ll64.h"
	.file	27 "/mnt/disk/jenkins/workspace/chipset_10.1.0_release_5G/opensource/component_code/vendor/huawei/extra/build/build_script/kirin_kernel_release/kernel/arch/arm64/include/asm/spinlock_types.h"
	.file	28 "/mnt/disk/jenkins/workspace/chipset_10.1.0_release_5G/opensource/component_code/vendor/huawei/extra/build/build_script/kirin_kernel_release/kernel/include/linux/spinlock_types.h"
	.file	29 "/mnt/disk/jenkins/workspace/chipset_10.1.0_release_5G/opensource/component_code/vendor/huawei/extra/build/build_script/kirin_kernel_release/kernel/block/blk-mq.h"
	.file	30 "/mnt/disk/jenkins/workspace/chipset_10.1.0_release_5G/opensource/component_code/vendor/huawei/extra/build/build_script/kirin_kernel_release/kernel/include/linux/kobject.h"
	.file	31 "/mnt/disk/jenkins/workspace/chipset_10.1.0_release_5G/opensource/component_code/vendor/huawei/extra/build/build_script/kirin_kernel_release/kernel/include/uapi/asm-generic/posix_types.h"
	.file	32 "/mnt/disk/jenkins/workspace/chipset_10.1.0_release_5G/opensource/component_code/vendor/huawei/extra/build/build_script/kirin_kernel_release/kernel/include/linux/sysfs.h"
	.file	33 "/mnt/disk/jenkins/workspace/chipset_10.1.0_release_5G/opensource/component_code/vendor/huawei/extra/build/build_script/kirin_kernel_release/kernel/include/linux/kernfs.h"
	.file	34 "/mnt/disk/jenkins/workspace/chipset_10.1.0_release_5G/opensource/component_code/vendor/huawei/extra/build/build_script/kirin_kernel_release/kernel/include/linux/rbtree.h"
	.file	35 "/mnt/disk/jenkins/workspace/chipset_10.1.0_release_5G/opensource/component_code/vendor/huawei/extra/build/build_script/kirin_kernel_release/kernel/include/linux/radix-tree.h"
	.file	36 "/mnt/disk/jenkins/workspace/chipset_10.1.0_release_5G/opensource/component_code/vendor/huawei/extra/build/build_script/kirin_kernel_release/kernel/include/linux/idr.h"
	.file	37 "/mnt/disk/jenkins/workspace/chipset_10.1.0_release_5G/opensource/component_code/vendor/huawei/extra/build/build_script/kirin_kernel_release/kernel/include/linux/seq_file.h"
	.file	38 "/mnt/disk/jenkins/workspace/chipset_10.1.0_release_5G/opensource/component_code/vendor/huawei/extra/build/build_script/kirin_kernel_release/kernel/include/asm-generic/atomic-long.h"
	.file	39 "/mnt/disk/jenkins/workspace/chipset_10.1.0_release_5G/opensource/component_code/vendor/huawei/extra/build/build_script/kirin_kernel_release/kernel/include/linux/mutex.h"
	.file	40 "/mnt/disk/jenkins/workspace/chipset_10.1.0_release_5G/opensource/component_code/vendor/huawei/extra/build/build_script/kirin_kernel_release/kernel/include/linux/osq_lock.h"
	.file	41 "/mnt/disk/jenkins/workspace/chipset_10.1.0_release_5G/opensource/component_code/vendor/huawei/extra/build/build_script/kirin_kernel_release/kernel/arch/arm64/include/asm/thread_info.h"
	.file	42 "/mnt/disk/jenkins/workspace/chipset_10.1.0_release_5G/opensource/component_code/vendor/huawei/extra/build/build_script/kirin_kernel_release/kernel/include/linux/sched.h"
	.file	43 "/mnt/disk/jenkins/workspace/chipset_10.1.0_release_5G/opensource/component_code/vendor/huawei/extra/build/build_script/kirin_kernel_release/kernel/include/linux/cpumask.h"
	.file	44 "/mnt/disk/jenkins/workspace/chipset_10.1.0_release_5G/opensource/component_code/vendor/huawei/extra/build/build_script/kirin_kernel_release/kernel/include/linux/timerqueue.h"
	.file	45 "/mnt/disk/jenkins/workspace/chipset_10.1.0_release_5G/opensource/component_code/vendor/huawei/extra/build/build_script/kirin_kernel_release/kernel/include/linux/ktime.h"
	.file	46 "/mnt/disk/jenkins/workspace/chipset_10.1.0_release_5G/opensource/component_code/vendor/huawei/extra/build/build_script/kirin_kernel_release/kernel/include/linux/seqlock.h"
	.file	47 "/mnt/disk/jenkins/workspace/chipset_10.1.0_release_5G/opensource/component_code/vendor/huawei/extra/build/build_script/kirin_kernel_release/kernel/include/linux/plist.h"
	.file	48 "/mnt/disk/jenkins/workspace/chipset_10.1.0_release_5G/opensource/component_code/vendor/huawei/extra/build/build_script/kirin_kernel_release/kernel/include/linux/mm_types.h"
	.file	49 "/mnt/disk/jenkins/workspace/chipset_10.1.0_release_5G/opensource/component_code/vendor/huawei/extra/build/build_script/kirin_kernel_release/kernel/arch/arm64/include/asm/pgtable-types.h"
	.file	50 "/mnt/disk/jenkins/workspace/chipset_10.1.0_release_5G/opensource/component_code/vendor/huawei/extra/build/build_script/kirin_kernel_release/kernel/include/asm-generic/pgtable-nop4d-hack.h"
	.file	51 "/mnt/disk/jenkins/workspace/chipset_10.1.0_release_5G/opensource/component_code/vendor/huawei/extra/build/build_script/kirin_kernel_release/kernel/include/linux/uidgid.h"
	.file	52 "/mnt/disk/jenkins/workspace/chipset_10.1.0_release_5G/opensource/component_code/vendor/huawei/extra/build/build_script/kirin_kernel_release/kernel/include/linux/dcache.h"
	.file	53 "/mnt/disk/jenkins/workspace/chipset_10.1.0_release_5G/opensource/component_code/vendor/huawei/extra/build/build_script/kirin_kernel_release/kernel/include/linux/list_bl.h"
	.file	54 "/mnt/disk/jenkins/workspace/chipset_10.1.0_release_5G/opensource/component_code/vendor/huawei/extra/build/build_script/kirin_kernel_release/kernel/include/linux/lockref.h"
	.file	55 "/mnt/disk/jenkins/workspace/chipset_10.1.0_release_5G/opensource/component_code/vendor/huawei/extra/build/build_script/kirin_kernel_release/kernel/include/linux/path.h"
	.file	56 "/mnt/disk/jenkins/workspace/chipset_10.1.0_release_5G/opensource/component_code/vendor/huawei/extra/build/build_script/kirin_kernel_release/kernel/include/uapi/asm-generic/int-ll64.h"
	.file	57 "/mnt/disk/jenkins/workspace/chipset_10.1.0_release_5G/opensource/component_code/vendor/huawei/extra/build/build_script/kirin_kernel_release/kernel/include/linux/completion.h"
	.file	58 "/mnt/disk/jenkins/workspace/chipset_10.1.0_release_5G/opensource/component_code/vendor/huawei/extra/build/build_script/kirin_kernel_release/kernel/include/linux/wait.h"
	.file	59 "/mnt/disk/jenkins/workspace/chipset_10.1.0_release_5G/opensource/component_code/vendor/huawei/extra/build/build_script/kirin_kernel_release/kernel/include/linux/cfi.h"
	.file	60 "/mnt/disk/jenkins/workspace/chipset_10.1.0_release_5G/opensource/component_code/vendor/huawei/extra/build/build_script/kirin_kernel_release/kernel/include/linux/moduleparam.h"
	.file	61 "/mnt/disk/jenkins/workspace/chipset_10.1.0_release_5G/opensource/component_code/vendor/huawei/extra/build/build_script/kirin_kernel_release/kernel/arch/arm64/include/asm/extable.h"
	.file	62 "/mnt/disk/jenkins/workspace/chipset_10.1.0_release_5G/opensource/component_code/vendor/huawei/extra/build/build_script/kirin_kernel_release/kernel/include/linux/rbtree_latch.h"
	.file	63 "/mnt/disk/jenkins/workspace/chipset_10.1.0_release_5G/opensource/component_code/vendor/huawei/extra/build/build_script/kirin_kernel_release/kernel/include/uapi/linux/elf.h"
	.file	64 "/mnt/disk/jenkins/workspace/chipset_10.1.0_release_5G/opensource/component_code/vendor/huawei/extra/build/build_script/kirin_kernel_release/kernel/arch/arm64/include/asm/module.h"
	.file	65 "/mnt/disk/jenkins/workspace/chipset_10.1.0_release_5G/opensource/component_code/vendor/huawei/extra/build/build_script/kirin_kernel_release/kernel/include/uapi/linux/types.h"
	.file	66 "/mnt/disk/jenkins/workspace/chipset_10.1.0_release_5G/opensource/component_code/vendor/huawei/extra/build/build_script/kirin_kernel_release/kernel/include/asm-generic/bug.h"
	.file	67 "/mnt/disk/jenkins/workspace/chipset_10.1.0_release_5G/opensource/component_code/vendor/huawei/extra/build/build_script/kirin_kernel_release/kernel/include/linux/tracepoint-defs.h"
	.file	68 "/mnt/disk/jenkins/workspace/chipset_10.1.0_release_5G/opensource/component_code/vendor/huawei/extra/build/build_script/kirin_kernel_release/kernel/include/linux/jump_label.h"
	.file	69 "/mnt/disk/jenkins/workspace/chipset_10.1.0_release_5G/opensource/component_code/vendor/huawei/extra/build/build_script/kirin_kernel_release/kernel/include/linux/tracepoint.h"
	.file	70 "/mnt/disk/jenkins/workspace/chipset_10.1.0_release_5G/opensource/component_code/vendor/huawei/extra/build/build_script/kirin_kernel_release/kernel/include/linux/projid.h"
	.file	71 "/mnt/disk/jenkins/workspace/chipset_10.1.0_release_5G/opensource/component_code/vendor/huawei/extra/build/build_script/kirin_kernel_release/kernel/include/linux/time64.h"
	.file	72 "/mnt/disk/jenkins/workspace/chipset_10.1.0_release_5G/opensource/component_code/vendor/huawei/extra/build/build_script/kirin_kernel_release/kernel/include/linux/shrinker.h"
	.file	73 "/mnt/disk/jenkins/workspace/chipset_10.1.0_release_5G/opensource/component_code/vendor/huawei/extra/build/build_script/kirin_kernel_release/kernel/include/linux/rwsem.h"
	.file	74 "/mnt/disk/jenkins/workspace/chipset_10.1.0_release_5G/opensource/component_code/vendor/huawei/extra/build/build_script/kirin_kernel_release/kernel/include/linux/genhd.h"
	.file	75 "/mnt/disk/jenkins/workspace/chipset_10.1.0_release_5G/opensource/component_code/vendor/huawei/extra/build/build_script/kirin_kernel_release/kernel/include/linux/uio.h"
	.file	76 "/mnt/disk/jenkins/workspace/chipset_10.1.0_release_5G/opensource/component_code/vendor/huawei/extra/build/build_script/kirin_kernel_release/kernel/include/uapi/linux/uio.h"
	.file	77 "/mnt/disk/jenkins/workspace/chipset_10.1.0_release_5G/opensource/component_code/vendor/huawei/extra/build/build_script/kirin_kernel_release/kernel/include/linux/bvec.h"
	.file	78 "/mnt/disk/jenkins/workspace/chipset_10.1.0_release_5G/opensource/component_code/vendor/huawei/extra/build/build_script/kirin_kernel_release/kernel/include/linux/poll.h"
	.file	79 "/mnt/disk/jenkins/workspace/chipset_10.1.0_release_5G/opensource/component_code/vendor/huawei/extra/build/build_script/kirin_kernel_release/kernel/include/linux/nfs_fs_i.h"
	.file	80 "/mnt/disk/jenkins/workspace/chipset_10.1.0_release_5G/opensource/component_code/vendor/huawei/extra/build/build_script/kirin_kernel_release/kernel/include/linux/rwlock_types.h"
	.file	81 "/mnt/disk/jenkins/workspace/chipset_10.1.0_release_5G/opensource/component_code/vendor/huawei/extra/build/build_script/kirin_kernel_release/kernel/include/linux/cred.h"
	.file	82 "/mnt/disk/jenkins/workspace/chipset_10.1.0_release_5G/opensource/component_code/vendor/huawei/extra/build/build_script/kirin_kernel_release/kernel/include/linux/capability.h"
	.file	83 "/mnt/disk/jenkins/workspace/chipset_10.1.0_release_5G/opensource/component_code/vendor/huawei/extra/build/build_script/kirin_kernel_release/kernel/include/linux/refcount.h"
	.file	84 "/mnt/disk/jenkins/workspace/chipset_10.1.0_release_5G/opensource/component_code/vendor/huawei/extra/build/build_script/kirin_kernel_release/kernel/include/linux/key.h"
	.file	85 "/mnt/disk/jenkins/workspace/chipset_10.1.0_release_5G/opensource/component_code/vendor/huawei/extra/build/build_script/kirin_kernel_release/kernel/include/linux/assoc_array.h"
	.file	86 "/mnt/disk/jenkins/workspace/chipset_10.1.0_release_5G/opensource/component_code/vendor/huawei/extra/build/build_script/kirin_kernel_release/kernel/include/linux/sched/user.h"
	.file	87 "/mnt/disk/jenkins/workspace/chipset_10.1.0_release_5G/opensource/component_code/vendor/huawei/extra/build/build_script/kirin_kernel_release/kernel/include/linux/errseq.h"
	.file	88 "/mnt/disk/jenkins/workspace/chipset_10.1.0_release_5G/opensource/component_code/vendor/huawei/extra/build/build_script/kirin_kernel_release/kernel/include/linux/pm_wakeup.h"
	.file	89 "/mnt/disk/jenkins/workspace/chipset_10.1.0_release_5G/opensource/component_code/vendor/huawei/extra/build/build_script/kirin_kernel_release/kernel/include/linux/timer.h"
	.file	90 "/mnt/disk/jenkins/workspace/chipset_10.1.0_release_5G/opensource/component_code/vendor/huawei/extra/build/build_script/kirin_kernel_release/kernel/include/linux/workqueue.h"
	.file	91 "/mnt/disk/jenkins/workspace/chipset_10.1.0_release_5G/opensource/component_code/vendor/huawei/extra/build/build_script/kirin_kernel_release/kernel/include/linux/pinctrl/devinfo.h"
	.file	92 "/mnt/disk/jenkins/workspace/chipset_10.1.0_release_5G/opensource/component_code/vendor/huawei/extra/build/build_script/kirin_kernel_release/kernel/arch/arm64/include/asm/device.h"
	.file	93 "/mnt/disk/jenkins/workspace/chipset_10.1.0_release_5G/opensource/component_code/vendor/huawei/extra/build/build_script/kirin_kernel_release/kernel/include/linux/klist.h"
	.file	94 "/mnt/disk/jenkins/workspace/chipset_10.1.0_release_5G/opensource/component_code/vendor/huawei/extra/build/build_script/kirin_kernel_release/kernel/include/linux/kref.h"
	.file	95 "/mnt/disk/jenkins/workspace/chipset_10.1.0_release_5G/opensource/component_code/vendor/huawei/extra/build/build_script/kirin_kernel_release/kernel/include/linux/percpu-refcount.h"
	.file	96 "/mnt/disk/jenkins/workspace/chipset_10.1.0_release_5G/opensource/component_code/vendor/huawei/extra/build/build_script/kirin_kernel_release/kernel/include/linux/backing-dev-defs.h"
	.file	97 "/mnt/disk/jenkins/workspace/chipset_10.1.0_release_5G/opensource/component_code/vendor/huawei/extra/build/build_script/kirin_kernel_release/kernel/include/linux/percpu_counter.h"
	.file	98 "/mnt/disk/jenkins/workspace/chipset_10.1.0_release_5G/opensource/component_code/vendor/huawei/extra/build/build_script/kirin_kernel_release/kernel/include/linux/flex_proportions.h"
	.file	99 "/mnt/disk/jenkins/workspace/chipset_10.1.0_release_5G/opensource/component_code/vendor/huawei/extra/build/build_script/kirin_kernel_release/kernel/include/linux/percpu-rwsem.h"
	.file	100 "/mnt/disk/jenkins/workspace/chipset_10.1.0_release_5G/opensource/component_code/vendor/huawei/extra/build/build_script/kirin_kernel_release/kernel/include/linux/rcuwait.h"
	.file	101 "/mnt/disk/jenkins/workspace/chipset_10.1.0_release_5G/opensource/component_code/vendor/huawei/extra/build/build_script/kirin_kernel_release/kernel/include/linux/uuid.h"
	.file	102 "/mnt/disk/jenkins/workspace/chipset_10.1.0_release_5G/opensource/component_code/vendor/huawei/extra/build/build_script/kirin_kernel_release/kernel/include/linux/list_lru.h"
	.file	103 "/mnt/disk/jenkins/workspace/chipset_10.1.0_release_5G/opensource/component_code/vendor/huawei/extra/build/build_script/kirin_kernel_release/kernel/include/linux/delayed_call.h"
	.file	104 "/mnt/disk/jenkins/workspace/chipset_10.1.0_release_5G/opensource/component_code/vendor/huawei/extra/build/build_script/kirin_kernel_release/kernel/include/uapi/linux/time.h"
	.file	105 "/mnt/disk/jenkins/workspace/chipset_10.1.0_release_5G/opensource/component_code/vendor/huawei/extra/build/build_script/kirin_kernel_release/kernel/include/linux/stat.h"
	.file	106 "/mnt/disk/jenkins/workspace/chipset_10.1.0_release_5G/opensource/component_code/vendor/huawei/extra/build/build_script/kirin_kernel_release/kernel/include/uapi/linux/fiemap.h"
	.file	107 "/mnt/disk/jenkins/workspace/chipset_10.1.0_release_5G/opensource/component_code/vendor/huawei/extra/build/build_script/kirin_kernel_release/kernel/include/linux/mmzone.h"
	.file	108 "/mnt/disk/jenkins/workspace/chipset_10.1.0_release_5G/opensource/component_code/vendor/huawei/extra/build/build_script/kirin_kernel_release/kernel/include/linux/ioport.h"
	.file	109 "/mnt/disk/jenkins/workspace/chipset_10.1.0_release_5G/opensource/component_code/vendor/huawei/extra/build/build_script/kirin_kernel_release/kernel/arch/arm64/include/asm/page.h"
	.file	110 "/mnt/disk/jenkins/workspace/chipset_10.1.0_release_5G/opensource/component_code/vendor/huawei/extra/build/build_script/kirin_kernel_release/kernel/include/linux/mm_types_task.h"
	.file	111 "/mnt/disk/jenkins/workspace/chipset_10.1.0_release_5G/opensource/component_code/vendor/huawei/extra/build/build_script/kirin_kernel_release/kernel/arch/arm64/include/asm/mmu.h"
	.file	112 "/mnt/disk/jenkins/workspace/chipset_10.1.0_release_5G/opensource/component_code/vendor/huawei/extra/build/build_script/kirin_kernel_release/kernel/include/linux/uprobes.h"
	.file	113 "/mnt/disk/jenkins/workspace/chipset_10.1.0_release_5G/opensource/component_code/vendor/huawei/extra/build/build_script/kirin_kernel_release/kernel/arch/arm64/include/asm/compat.h"
	.file	114 "/mnt/disk/jenkins/workspace/chipset_10.1.0_release_5G/opensource/component_code/vendor/huawei/extra/build/build_script/kirin_kernel_release/kernel/include/uapi/asm-generic/poll.h"
	.file	115 "/mnt/disk/jenkins/workspace/chipset_10.1.0_release_5G/opensource/component_code/vendor/huawei/extra/build/build_script/kirin_kernel_release/kernel/include/uapi/asm-generic/signal.h"
	.file	116 "/mnt/disk/jenkins/workspace/chipset_10.1.0_release_5G/opensource/component_code/vendor/huawei/extra/build/build_script/kirin_kernel_release/kernel/include/linux/signal_types.h"
	.file	117 "/mnt/disk/jenkins/workspace/chipset_10.1.0_release_5G/opensource/component_code/vendor/huawei/extra/build/build_script/kirin_kernel_release/kernel/include/linux/seccomp.h"
	.file	118 "/mnt/disk/jenkins/workspace/chipset_10.1.0_release_5G/opensource/component_code/vendor/huawei/extra/build/build_script/kirin_kernel_release/kernel/include/linux/iocontext.h"
	.file	119 "/mnt/disk/jenkins/workspace/chipset_10.1.0_release_5G/opensource/component_code/vendor/huawei/extra/build/build_script/kirin_kernel_release/kernel/include/linux/bio.h"
	.file	120 "/mnt/disk/jenkins/workspace/chipset_10.1.0_release_5G/opensource/component_code/vendor/huawei/extra/build/build_script/kirin_kernel_release/kernel/include/linux/mempool.h"
	.file	121 "/mnt/disk/jenkins/workspace/chipset_10.1.0_release_5G/opensource/component_code/vendor/huawei/extra/build/build_script/kirin_kernel_release/kernel/include/uapi/asm-generic/siginfo.h"
	.file	122 "/mnt/disk/jenkins/workspace/chipset_10.1.0_release_5G/opensource/component_code/vendor/huawei/extra/build/build_script/kirin_kernel_release/kernel/include/linux/task_io_accounting.h"
	.file	123 "/mnt/disk/jenkins/workspace/chipset_10.1.0_release_5G/opensource/component_code/vendor/huawei/extra/build/build_script/kirin_kernel_release/kernel/include/linux/nodemask.h"
	.file	124 "/mnt/disk/jenkins/workspace/chipset_10.1.0_release_5G/opensource/component_code/vendor/huawei/extra/build/build_script/kirin_kernel_release/kernel/include/linux/compat.h"
	.file	125 "/mnt/disk/jenkins/workspace/chipset_10.1.0_release_5G/opensource/component_code/vendor/huawei/extra/build/build_script/kirin_kernel_release/kernel/arch/arm64/include/asm/processor.h"
	.file	126 "/mnt/disk/jenkins/workspace/chipset_10.1.0_release_5G/opensource/component_code/vendor/huawei/extra/build/build_script/kirin_kernel_release/kernel/arch/arm64/include/uapi/asm/ptrace.h"
	.file	127 "/mnt/disk/jenkins/workspace/chipset_10.1.0_release_5G/opensource/component_code/vendor/huawei/extra/build/build_script/kirin_kernel_release/kernel/arch/arm64/include/asm/fpsimd.h"
	.file	128 "/mnt/disk/jenkins/workspace/chipset_10.1.0_release_5G/opensource/component_code/vendor/huawei/extra/build/build_script/kirin_kernel_release/kernel/include/linux/blk-mq.h"
	.file	129 "/mnt/disk/jenkins/workspace/chipset_10.1.0_release_5G/opensource/component_code/vendor/huawei/extra/build/build_script/kirin_kernel_release/kernel/block/blk.h"
	.file	130 "/mnt/disk/jenkins/workspace/chipset_10.1.0_release_5G/opensource/component_code/vendor/huawei/extra/build/build_script/kirin_kernel_release/kernel/include/linux/sbitmap.h"
	.file	131 "/mnt/disk/jenkins/workspace/chipset_10.1.0_release_5G/opensource/component_code/vendor/huawei/extra/build/build_script/kirin_kernel_release/kernel/include/linux/srcutree.h"
	.file	132 "/mnt/disk/jenkins/workspace/chipset_10.1.0_release_5G/opensource/component_code/vendor/huawei/extra/build/build_script/kirin_kernel_release/kernel/include/linux/rcu_segcblist.h"
	.file	133 "/mnt/disk/jenkins/workspace/chipset_10.1.0_release_5G/opensource/component_code/vendor/huawei/extra/build/build_script/kirin_kernel_release/kernel/include/linux/notifier.h"
	.file	134 "/mnt/disk/jenkins/workspace/chipset_10.1.0_release_5G/opensource/component_code/vendor/huawei/extra/build/build_script/kirin_kernel_release/kernel/block/blk-stat.h"
	.file	135 "/mnt/disk/jenkins/workspace/chipset_10.1.0_release_5G/opensource/component_code/vendor/huawei/extra/build/build_script/kirin_kernel_release/kernel/include/linux/bsg.h"
	.section	.text.hisi_blk_get_lld,"ax",@progbits
	.hidden	hisi_blk_get_lld        // -- Begin function hisi_blk_get_lld
	.globl	hisi_blk_get_lld
	.p2align	2
	.type	hisi_blk_get_lld,@function
hisi_blk_get_lld:                       // @hisi_blk_get_lld
.Lfunc_begin0:
	.loc	2 26 0                  // /mnt/disk/jenkins/workspace/chipset_10.1.0_release_5G/opensource/component_code/vendor/huawei/extra/build/build_script/kirin_kernel_release/kernel/block/hisi-blk-core.c:26:0
	.cfi_sections .debug_frame
	.cfi_startproc
// %bb.0:
	//DEBUG_VALUE: hisi_blk_get_lld:q <- $x0
	//DEBUG_VALUE: hisi_blk_get_lld:q <- $x0
	.loc	2 27 6 prologue_end     // /mnt/disk/jenkins/workspace/chipset_10.1.0_release_5G/opensource/component_code/vendor/huawei/extra/build/build_script/kirin_kernel_release/kernel/block/hisi-blk-core.c:27:6
	ldr	x8, [x0, #312]
.Ltmp0:
	.loc	2 27 6 is_stmt 0        // /mnt/disk/jenkins/workspace/chipset_10.1.0_release_5G/opensource/component_code/vendor/huawei/extra/build/build_script/kirin_kernel_release/kernel/block/hisi-blk-core.c:27:6
	cbz	x8, .LBB0_3
.Ltmp1:
// %bb.1:
	//DEBUG_VALUE: hisi_blk_get_lld:q <- $x0
	.loc	2 28 14 is_stmt 1       // /mnt/disk/jenkins/workspace/chipset_10.1.0_release_5G/opensource/component_code/vendor/huawei/extra/build/build_script/kirin_kernel_release/kernel/block/hisi-blk-core.c:28:14
	ldr	x8, [x0, #3312]
	.loc	2 28 11 is_stmt 0       // /mnt/disk/jenkins/workspace/chipset_10.1.0_release_5G/opensource/component_code/vendor/huawei/extra/build/build_script/kirin_kernel_release/kernel/block/hisi-blk-core.c:28:11
	add	x9, x0, #1808           // =1808
	add	x10, x8, #16            // =16
.Ltmp2:
.LBB0_2:
	//DEBUG_VALUE: hisi_blk_get_lld:q <- $x0
	.loc	2 0 0                   // /mnt/disk/jenkins/workspace/chipset_10.1.0_release_5G/opensource/component_code/vendor/huawei/extra/build/build_script/kirin_kernel_release/kernel/block/hisi-blk-core.c:0:0
	cmp	x8, #0                  // =0
	csel	x0, x9, x10, eq
.Ltmp3:
	.loc	2 32 1 is_stmt 1        // /mnt/disk/jenkins/workspace/chipset_10.1.0_release_5G/opensource/component_code/vendor/huawei/extra/build/build_script/kirin_kernel_release/kernel/block/hisi-blk-core.c:32:1
	ret
.LBB0_3:
.Ltmp4:
	//DEBUG_VALUE: hisi_blk_get_lld:q <- $x0
	.loc	2 30 14                 // /mnt/disk/jenkins/workspace/chipset_10.1.0_release_5G/opensource/component_code/vendor/huawei/extra/build/build_script/kirin_kernel_release/kernel/block/hisi-blk-core.c:30:14
	ldr	x8, [x0, #720]
	.loc	2 30 11 is_stmt 0       // /mnt/disk/jenkins/workspace/chipset_10.1.0_release_5G/opensource/component_code/vendor/huawei/extra/build/build_script/kirin_kernel_release/kernel/block/hisi-blk-core.c:30:11
	add	x9, x0, #1808           // =1808
	add	x10, x8, #120           // =120
	b	.LBB0_2
.Ltmp5:
.Lfunc_end0:
	.size	hisi_blk_get_lld, .Lfunc_end0-hisi_blk_get_lld
	.cfi_endproc
                                        // -- End function
	.section	.text.hisi_blk_get_queue_by_lld,"ax",@progbits
	.hidden	hisi_blk_get_queue_by_lld // -- Begin function hisi_blk_get_queue_by_lld
	.globl	hisi_blk_get_queue_by_lld
	.p2align	2
	.type	hisi_blk_get_queue_by_lld,@function
hisi_blk_get_queue_by_lld:              // @hisi_blk_get_queue_by_lld
.Lfunc_begin1:
	.loc	2 35 0 is_stmt 1        // /mnt/disk/jenkins/workspace/chipset_10.1.0_release_5G/opensource/component_code/vendor/huawei/extra/build/build_script/kirin_kernel_release/kernel/block/hisi-blk-core.c:35:0
	.cfi_startproc
// %bb.0:
	//DEBUG_VALUE: hisi_blk_get_queue_by_lld:lld <- $x0
	//DEBUG_VALUE: hisi_blk_get_queue_by_lld:lld <- $x0
	.loc	2 38 15 prologue_end    // /mnt/disk/jenkins/workspace/chipset_10.1.0_release_5G/opensource/component_code/vendor/huawei/extra/build/build_script/kirin_kernel_release/kernel/block/hisi-blk-core.c:38:15
	ldr	w8, [x0, #4]
	.loc	2 38 2 is_stmt 0        // /mnt/disk/jenkins/workspace/chipset_10.1.0_release_5G/opensource/component_code/vendor/huawei/extra/build/build_script/kirin_kernel_release/kernel/block/hisi-blk-core.c:38:2
	cmp	w8, #2                  // =2
	b.eq	.LBB1_4
.Ltmp6:
// %bb.1:
	//DEBUG_VALUE: hisi_blk_get_queue_by_lld:lld <- $x0
	cmp	w8, #1                  // =1
	b.eq	.LBB1_5
.Ltmp7:
// %bb.2:
	//DEBUG_VALUE: hisi_blk_get_queue_by_lld:lld <- $x0
	cbnz	w8, .LBB1_6
.Ltmp8:
// %bb.3:
	//DEBUG_VALUE: hisi_blk_get_queue_by_lld:lld <- $x0
	.loc	2 40 40 is_stmt 1       // /mnt/disk/jenkins/workspace/chipset_10.1.0_release_5G/opensource/component_code/vendor/huawei/extra/build/build_script/kirin_kernel_release/kernel/block/hisi-blk-core.c:40:40
	ldr	x0, [x0, #8]
.Ltmp9:
	.loc	2 51 1                  // /mnt/disk/jenkins/workspace/chipset_10.1.0_release_5G/opensource/component_code/vendor/huawei/extra/build/build_script/kirin_kernel_release/kernel/block/hisi-blk-core.c:51:1
	ret
.LBB1_4:
.Ltmp10:
	//DEBUG_VALUE: hisi_blk_get_queue_by_lld:lld <- $x0
	.loc	2 46 44                 // /mnt/disk/jenkins/workspace/chipset_10.1.0_release_5G/opensource/component_code/vendor/huawei/extra/build/build_script/kirin_kernel_release/kernel/block/hisi-blk-core.c:46:44
	ldr	x8, [x0, #8]
.Ltmp11:
	//DEBUG_VALUE: hisi_blk_get_queue_by_lld:tag_set <- $x8
	.loc	2 47 10                 // /mnt/disk/jenkins/workspace/chipset_10.1.0_release_5G/opensource/component_code/vendor/huawei/extra/build/build_script/kirin_kernel_release/kernel/block/hisi-blk-core.c:47:10
	ldr	x8, [x8, #1080]
.Ltmp12:
	//DEBUG_VALUE: __mptr <- $x8
	.loc	2 0 0 is_stmt 0         // /mnt/disk/jenkins/workspace/chipset_10.1.0_release_5G/opensource/component_code/vendor/huawei/extra/build/build_script/kirin_kernel_release/kernel/block/hisi-blk-core.c:0:0
	sub	x0, x8, #3320           // =3320
.Ltmp13:
	.loc	2 51 1 is_stmt 1        // /mnt/disk/jenkins/workspace/chipset_10.1.0_release_5G/opensource/component_code/vendor/huawei/extra/build/build_script/kirin_kernel_release/kernel/block/hisi-blk-core.c:51:1
	ret
.Ltmp14:
.LBB1_5:
	//DEBUG_VALUE: hisi_blk_get_queue_by_lld:lld <- $x0
	.loc	2 42 39                 // /mnt/disk/jenkins/workspace/chipset_10.1.0_release_5G/opensource/component_code/vendor/huawei/extra/build/build_script/kirin_kernel_release/kernel/block/hisi-blk-core.c:42:39
	ldr	x8, [x0, #8]
.Ltmp15:
	//DEBUG_VALUE: hisi_blk_get_queue_by_lld:tag <- $x8
	.loc	2 43 10                 // /mnt/disk/jenkins/workspace/chipset_10.1.0_release_5G/opensource/component_code/vendor/huawei/extra/build/build_script/kirin_kernel_release/kernel/block/hisi-blk-core.c:43:10
	ldr	x8, [x8, #112]
.Ltmp16:
	//DEBUG_VALUE: __mptr <- $x8
	.loc	2 0 0 is_stmt 0         // /mnt/disk/jenkins/workspace/chipset_10.1.0_release_5G/opensource/component_code/vendor/huawei/extra/build/build_script/kirin_kernel_release/kernel/block/hisi-blk-core.c:0:0
	sub	x0, x8, #3320           // =3320
.Ltmp17:
	.loc	2 51 1 is_stmt 1        // /mnt/disk/jenkins/workspace/chipset_10.1.0_release_5G/opensource/component_code/vendor/huawei/extra/build/build_script/kirin_kernel_release/kernel/block/hisi-blk-core.c:51:1
	ret
.Ltmp18:
.LBB1_6:
	//DEBUG_VALUE: hisi_blk_get_queue_by_lld:lld <- $x0
	.loc	2 0 0 is_stmt 0         // /mnt/disk/jenkins/workspace/chipset_10.1.0_release_5G/opensource/component_code/vendor/huawei/extra/build/build_script/kirin_kernel_release/kernel/block/hisi-blk-core.c:0:0
	mov	x0, xzr
.Ltmp19:
	.loc	2 51 1                  // /mnt/disk/jenkins/workspace/chipset_10.1.0_release_5G/opensource/component_code/vendor/huawei/extra/build/build_script/kirin_kernel_release/kernel/block/hisi-blk-core.c:51:1
	ret
.Ltmp20:
.Lfunc_end1:
	.size	hisi_blk_get_queue_by_lld, .Lfunc_end1-hisi_blk_get_queue_by_lld
	.cfi_endproc
                                        // -- End function
	.section	.text.blk_dio_ck,"ax",@progbits
	.hidden	blk_dio_ck              // -- Begin function blk_dio_ck
	.globl	blk_dio_ck
	.p2align	2
	.type	blk_dio_ck,@function
blk_dio_ck:                             // @blk_dio_ck
.Lfunc_begin2:
	.loc	2 113 0 is_stmt 1       // /mnt/disk/jenkins/workspace/chipset_10.1.0_release_5G/opensource/component_code/vendor/huawei/extra/build/build_script/kirin_kernel_release/kernel/block/hisi-blk-core.c:113:0
	.cfi_startproc
// %bb.0:
	str	x21, [sp, #-48]!        // 8-byte Folded Spill
	stp	x20, x19, [sp, #16]     // 16-byte Folded Spill
	stp	x29, x30, [sp, #32]     // 16-byte Folded Spill
	add	x29, sp, #32            // =32
	.cfi_def_cfa w29, 16
	.cfi_offset w30, -8
	.cfi_offset w29, -16
	.cfi_offset w19, -24
	.cfi_offset w20, -32
	.cfi_offset w21, -48
	//DEBUG_VALUE: blk_dio_ck:target_disk <- $x0
	//DEBUG_VALUE: blk_dio_ck:dio_start <- $x1
	//DEBUG_VALUE: blk_dio_ck:dio_op <- $w2
	//DEBUG_VALUE: blk_dio_ck:dio_page_count <- $w3
.Ltmp21:
	//DEBUG_VALUE: blk_dio_do_vl:dio_start <- $x1
	//DEBUG_VALUE: ktime_us_delta:earlier <- $x1
	//DEBUG_VALUE: blk_dio_do_vl:dio_page_count <- $w3
	//DEBUG_VALUE: blk_dio_do_vl:dio_start <- $x1
	//DEBUG_VALUE: ktime_us_delta:earlier <- $x1
	//DEBUG_VALUE: blk_dio_do_vl:dio_page_count <- $w3
	//DEBUG_VALUE: blk_dio_ck:dio_op <- $w2
	//DEBUG_VALUE: blk_dio_ck:target_disk <- $x0
	.loc	2 114 6 prologue_end    // /mnt/disk/jenkins/workspace/chipset_10.1.0_release_5G/opensource/component_code/vendor/huawei/extra/build/build_script/kirin_kernel_release/kernel/block/hisi-blk-core.c:114:6
	cbz	x0, .LBB2_13
.Ltmp22:
// %bb.1:
	//DEBUG_VALUE: blk_dio_ck:dio_page_count <- $w3
	//DEBUG_VALUE: blk_dio_ck:dio_op <- $w2
	//DEBUG_VALUE: blk_dio_ck:dio_start <- $x1
	//DEBUG_VALUE: blk_dio_ck:target_disk <- $x0
	ldr	x8, [x0, #1112]
.Ltmp23:
	//DEBUG_VALUE: hisi_blk_get_lld:q <- $x8
	//DEBUG_VALUE: hisi_blk_get_lld:q <- $x8
	.loc	2 114 6 is_stmt 0       // /mnt/disk/jenkins/workspace/chipset_10.1.0_release_5G/opensource/component_code/vendor/huawei/extra/build/build_script/kirin_kernel_release/kernel/block/hisi-blk-core.c:114:6
	cbz	x8, .LBB2_13
.Ltmp24:
// %bb.2:
	//DEBUG_VALUE: blk_dio_ck:dio_page_count <- $w3
	//DEBUG_VALUE: blk_dio_ck:dio_op <- $w2
	//DEBUG_VALUE: blk_dio_ck:dio_start <- $x1
	//DEBUG_VALUE: blk_dio_ck:target_disk <- $x0
	.loc	2 0 6                   // /mnt/disk/jenkins/workspace/chipset_10.1.0_release_5G/opensource/component_code/vendor/huawei/extra/build/build_script/kirin_kernel_release/kernel/block/hisi-blk-core.c:0:6
	mov	w19, w3
.Ltmp25:
	//DEBUG_VALUE: blk_dio_do_vl:dio_page_count <- $w19
	//DEBUG_VALUE: blk_dio_do_vl:dio_page_count <- $w19
	//DEBUG_VALUE: blk_dio_ck:dio_page_count <- $w19
	mov	x20, x1
.Ltmp26:
	//DEBUG_VALUE: ktime_us_delta:earlier <- $x20
	//DEBUG_VALUE: blk_dio_do_vl:dio_start <- $x20
	//DEBUG_VALUE: ktime_us_delta:earlier <- $x20
	//DEBUG_VALUE: blk_dio_do_vl:dio_start <- $x20
	//DEBUG_VALUE: blk_dio_ck:dio_start <- $x20
	.loc	2 117 6 is_stmt 1       // /mnt/disk/jenkins/workspace/chipset_10.1.0_release_5G/opensource/component_code/vendor/huawei/extra/build/build_script/kirin_kernel_release/kernel/block/hisi-blk-core.c:117:6
	cmp	w2, #1                  // =1
	b.eq	.LBB2_7
.Ltmp27:
// %bb.3:
	//DEBUG_VALUE: blk_dio_ck:dio_start <- $x20
	//DEBUG_VALUE: blk_dio_ck:dio_page_count <- $w19
	//DEBUG_VALUE: blk_dio_ck:dio_op <- $w2
	//DEBUG_VALUE: blk_dio_ck:target_disk <- $x0
	cbnz	w2, .LBB2_13
.Ltmp28:
// %bb.4:
	//DEBUG_VALUE: blk_dio_ck:dio_start <- $x20
	//DEBUG_VALUE: blk_dio_ck:dio_page_count <- $w19
	//DEBUG_VALUE: blk_dio_ck:dio_op <- $w2
	//DEBUG_VALUE: blk_dio_ck:target_disk <- $x0
	.loc	2 27 6                  // /mnt/disk/jenkins/workspace/chipset_10.1.0_release_5G/opensource/component_code/vendor/huawei/extra/build/build_script/kirin_kernel_release/kernel/block/hisi-blk-core.c:27:6
	ldr	x9, [x8, #312]
.Ltmp29:
	.loc	2 27 6 is_stmt 0        // /mnt/disk/jenkins/workspace/chipset_10.1.0_release_5G/opensource/component_code/vendor/huawei/extra/build/build_script/kirin_kernel_release/kernel/block/hisi-blk-core.c:27:6
	cbz	x9, .LBB2_14
.Ltmp30:
// %bb.5:
	//DEBUG_VALUE: blk_dio_ck:dio_start <- $x20
	//DEBUG_VALUE: blk_dio_ck:dio_page_count <- $w19
	//DEBUG_VALUE: blk_dio_ck:dio_op <- $w2
	//DEBUG_VALUE: blk_dio_ck:target_disk <- $x0
	.loc	2 28 14 is_stmt 1       // /mnt/disk/jenkins/workspace/chipset_10.1.0_release_5G/opensource/component_code/vendor/huawei/extra/build/build_script/kirin_kernel_release/kernel/block/hisi-blk-core.c:28:14
	ldr	x9, [x8, #3312]
	.loc	2 28 11 is_stmt 0       // /mnt/disk/jenkins/workspace/chipset_10.1.0_release_5G/opensource/component_code/vendor/huawei/extra/build/build_script/kirin_kernel_release/kernel/block/hisi-blk-core.c:28:11
	add	x8, x8, #1808           // =1808
	add	x10, x9, #16            // =16
.Ltmp31:
.LBB2_6:
	//DEBUG_VALUE: blk_dio_ck:dio_start <- $x20
	//DEBUG_VALUE: blk_dio_ck:dio_page_count <- $w19
	//DEBUG_VALUE: blk_dio_ck:dio_op <- $w2
	//DEBUG_VALUE: blk_dio_ck:target_disk <- $x0
	.loc	2 0 0                   // /mnt/disk/jenkins/workspace/chipset_10.1.0_release_5G/opensource/component_code/vendor/huawei/extra/build/build_script/kirin_kernel_release/kernel/block/hisi-blk-core.c:0:0
	cmp	x9, #0                  // =0
	csel	x8, x8, x10, eq
.Ltmp32:
	.loc	2 118 55 is_stmt 1      // /mnt/disk/jenkins/workspace/chipset_10.1.0_release_5G/opensource/component_code/vendor/huawei/extra/build/build_script/kirin_kernel_release/kernel/block/hisi-blk-core.c:118:55
	ldrsw	x21, [x8, #928]
.Ltmp33:
	//DEBUG_VALUE: blk_dio_do_vl:rate <- 3906
	//DEBUG_VALUE: blk_dio_do_vl:target_v <- $w21
	.loc	2 96 6                  // /mnt/disk/jenkins/workspace/chipset_10.1.0_release_5G/opensource/component_code/vendor/huawei/extra/build/build_script/kirin_kernel_release/kernel/block/hisi-blk-core.c:96:6
	cbnz	w21, .LBB2_10
	b	.LBB2_13
.Ltmp34:
.LBB2_7:
	//DEBUG_VALUE: blk_dio_ck:dio_start <- $x20
	//DEBUG_VALUE: blk_dio_ck:dio_page_count <- $w19
	//DEBUG_VALUE: blk_dio_ck:dio_op <- $w2
	//DEBUG_VALUE: blk_dio_ck:target_disk <- $x0
	.loc	2 27 6                  // /mnt/disk/jenkins/workspace/chipset_10.1.0_release_5G/opensource/component_code/vendor/huawei/extra/build/build_script/kirin_kernel_release/kernel/block/hisi-blk-core.c:27:6
	ldr	x9, [x8, #312]
.Ltmp35:
	.loc	2 27 6 is_stmt 0        // /mnt/disk/jenkins/workspace/chipset_10.1.0_release_5G/opensource/component_code/vendor/huawei/extra/build/build_script/kirin_kernel_release/kernel/block/hisi-blk-core.c:27:6
	cbz	x9, .LBB2_15
.Ltmp36:
// %bb.8:
	//DEBUG_VALUE: blk_dio_ck:dio_start <- $x20
	//DEBUG_VALUE: blk_dio_ck:dio_page_count <- $w19
	//DEBUG_VALUE: blk_dio_ck:dio_op <- $w2
	//DEBUG_VALUE: blk_dio_ck:target_disk <- $x0
	.loc	2 28 14 is_stmt 1       // /mnt/disk/jenkins/workspace/chipset_10.1.0_release_5G/opensource/component_code/vendor/huawei/extra/build/build_script/kirin_kernel_release/kernel/block/hisi-blk-core.c:28:14
	ldr	x9, [x8, #3312]
	.loc	2 28 11 is_stmt 0       // /mnt/disk/jenkins/workspace/chipset_10.1.0_release_5G/opensource/component_code/vendor/huawei/extra/build/build_script/kirin_kernel_release/kernel/block/hisi-blk-core.c:28:11
	add	x8, x8, #1808           // =1808
	add	x10, x9, #16            // =16
.Ltmp37:
.LBB2_9:
	//DEBUG_VALUE: blk_dio_ck:dio_start <- $x20
	//DEBUG_VALUE: blk_dio_ck:dio_page_count <- $w19
	//DEBUG_VALUE: blk_dio_ck:dio_op <- $w2
	//DEBUG_VALUE: blk_dio_ck:target_disk <- $x0
	.loc	2 0 0                   // /mnt/disk/jenkins/workspace/chipset_10.1.0_release_5G/opensource/component_code/vendor/huawei/extra/build/build_script/kirin_kernel_release/kernel/block/hisi-blk-core.c:0:0
	cmp	x9, #0                  // =0
	csel	x8, x8, x10, eq
.Ltmp38:
	.loc	2 121 55 is_stmt 1      // /mnt/disk/jenkins/workspace/chipset_10.1.0_release_5G/opensource/component_code/vendor/huawei/extra/build/build_script/kirin_kernel_release/kernel/block/hisi-blk-core.c:121:55
	ldrsw	x21, [x8, #932]
.Ltmp39:
	//DEBUG_VALUE: blk_dio_do_vl:rate <- 3906
	//DEBUG_VALUE: blk_dio_do_vl:target_v <- $w21
	.loc	2 96 6                  // /mnt/disk/jenkins/workspace/chipset_10.1.0_release_5G/opensource/component_code/vendor/huawei/extra/build/build_script/kirin_kernel_release/kernel/block/hisi-blk-core.c:96:6
	cbz	w21, .LBB2_13
.Ltmp40:
.LBB2_10:
	//DEBUG_VALUE: blk_dio_ck:dio_start <- $x20
	//DEBUG_VALUE: blk_dio_ck:dio_page_count <- $w19
	//DEBUG_VALUE: blk_dio_ck:dio_op <- $w2
	//DEBUG_VALUE: blk_dio_ck:target_disk <- $x0
	.loc	2 0 0 is_stmt 0         // /mnt/disk/jenkins/workspace/chipset_10.1.0_release_5G/opensource/component_code/vendor/huawei/extra/build/build_script/kirin_kernel_release/kernel/block/hisi-blk-core.c:0:0
	bl	ktime_get
.Ltmp41:
	//DEBUG_VALUE: ktime_us_delta:later <- $x0
	sub	x8, x0, x20
.Ltmp42:
	//DEBUG_VALUE: ktime_divns:div <- 1000
	//DEBUG_VALUE: ktime_divns:kt <- $x8
	//DEBUG_VALUE: ktime_to_us:kt <- $x8
	cmn	x8, #999                // =999
	b.lt	.LBB2_13
.Ltmp43:
// %bb.11:
	//DEBUG_VALUE: blk_dio_ck:dio_start <- $x20
	//DEBUG_VALUE: blk_dio_ck:dio_page_count <- $w19
	mov	x9, #63439
	movk	x9, #58195, lsl #16
	movk	x9, #39845, lsl #32
	movk	x9, #8388, lsl #48
	mov	w10, #3906
	smulh	x8, x8, x9
	smull	x9, w19, w10
	asr	x10, x8, #7
	add	x8, x10, x8, lsr #63
.Ltmp44:
	//DEBUG_VALUE: blk_dio_do_vl:real_lat <- $x8
	sdiv	x9, x9, x21
.Ltmp45:
	//DEBUG_VALUE: blk_dio_do_vl:target_lat <- $x9
	sub	x0, x9, x8
.Ltmp46:
	//DEBUG_VALUE: blk_dio_do_vl:target_lat <- $x0
	cmp	x0, #1                  // =1
	b.lt	.LBB2_13
.Ltmp47:
// %bb.12:
	//DEBUG_VALUE: blk_dio_do_vl:target_lat <- $x0
	//DEBUG_VALUE: blk_dio_do_vl:real_lat <- $x8
	//DEBUG_VALUE: blk_dio_ck:dio_start <- $x20
	//DEBUG_VALUE: blk_dio_ck:dio_page_count <- $w19
	bl	__udelay
.Ltmp48:
.LBB2_13:
	.loc	2 123 1 is_stmt 1       // /mnt/disk/jenkins/workspace/chipset_10.1.0_release_5G/opensource/component_code/vendor/huawei/extra/build/build_script/kirin_kernel_release/kernel/block/hisi-blk-core.c:123:1
	ldp	x29, x30, [sp, #32]     // 16-byte Folded Reload
	ldp	x20, x19, [sp, #16]     // 16-byte Folded Reload
	ldr	x21, [sp], #48          // 8-byte Folded Reload
	ret
.LBB2_14:
.Ltmp49:
	//DEBUG_VALUE: blk_dio_ck:dio_start <- $x20
	//DEBUG_VALUE: blk_dio_ck:dio_page_count <- $w19
	//DEBUG_VALUE: blk_dio_ck:dio_op <- $w2
	//DEBUG_VALUE: blk_dio_ck:target_disk <- $x0
	.loc	2 30 14                 // /mnt/disk/jenkins/workspace/chipset_10.1.0_release_5G/opensource/component_code/vendor/huawei/extra/build/build_script/kirin_kernel_release/kernel/block/hisi-blk-core.c:30:14
	ldr	x9, [x8, #720]
	.loc	2 30 11 is_stmt 0       // /mnt/disk/jenkins/workspace/chipset_10.1.0_release_5G/opensource/component_code/vendor/huawei/extra/build/build_script/kirin_kernel_release/kernel/block/hisi-blk-core.c:30:11
	add	x8, x8, #1808           // =1808
	add	x10, x9, #120           // =120
	b	.LBB2_6
.Ltmp50:
.LBB2_15:
	//DEBUG_VALUE: blk_dio_ck:dio_start <- $x20
	//DEBUG_VALUE: blk_dio_ck:dio_page_count <- $w19
	//DEBUG_VALUE: blk_dio_ck:dio_op <- $w2
	//DEBUG_VALUE: blk_dio_ck:target_disk <- $x0
	.loc	2 30 14                 // /mnt/disk/jenkins/workspace/chipset_10.1.0_release_5G/opensource/component_code/vendor/huawei/extra/build/build_script/kirin_kernel_release/kernel/block/hisi-blk-core.c:30:14
	ldr	x9, [x8, #720]
	.loc	2 30 11                 // /mnt/disk/jenkins/workspace/chipset_10.1.0_release_5G/opensource/component_code/vendor/huawei/extra/build/build_script/kirin_kernel_release/kernel/block/hisi-blk-core.c:30:11
	add	x8, x8, #1808           // =1808
	add	x10, x9, #120           // =120
	b	.LBB2_9
.Ltmp51:
.Lfunc_end2:
	.size	blk_dio_ck, .Lfunc_end2-blk_dio_ck
	.cfi_endproc
                                        // -- End function
	.section	.text.blk_mq_tagset_vl_setup,"ax",@progbits
	.hidden	blk_mq_tagset_vl_setup  // -- Begin function blk_mq_tagset_vl_setup
	.globl	blk_mq_tagset_vl_setup
	.p2align	2
	.type	blk_mq_tagset_vl_setup,@function
blk_mq_tagset_vl_setup:                 // @blk_mq_tagset_vl_setup
.Lfunc_begin3:
	.loc	2 127 0 is_stmt 1       // /mnt/disk/jenkins/workspace/chipset_10.1.0_release_5G/opensource/component_code/vendor/huawei/extra/build/build_script/kirin_kernel_release/kernel/block/hisi-blk-core.c:127:0
	.cfi_startproc
// %bb.0:
	//DEBUG_VALUE: blk_mq_tagset_vl_setup:tag_set <- $x0
	//DEBUG_VALUE: blk_mq_tagset_vl_setup:tag_set <- $x0
	//DEBUG_VALUE: blk_mq_tagset_vl_setup:device_capacity <- $x1
	//DEBUG_VALUE: blk_mq_tagset_vl_setup:device_capacity <- $x1
	//DEBUG_VALUE: blk_mq_tagset_vl_setup:sqw_bw <- 0
	//DEBUG_VALUE: blk_mq_tagset_vl_setup:sqr_bw <- 0
	.loc	2 134 2 prologue_end    // /mnt/disk/jenkins/workspace/chipset_10.1.0_release_5G/opensource/component_code/vendor/huawei/extra/build/build_script/kirin_kernel_release/kernel/block/hisi-blk-core.c:134:2
	lsr	x8, x1, #28
	mov	w9, #500
	mov	w10, #300
	cmp	x8, #0                  // =0
	csel	w8, w10, w9, eq
.Ltmp52:
	//DEBUG_VALUE: blk_mq_tagset_vl_setup:sqw_bw <- $w8
	.loc	2 138 26                // /mnt/disk/jenkins/workspace/chipset_10.1.0_release_5G/opensource/component_code/vendor/huawei/extra/build/build_script/kirin_kernel_release/kernel/block/hisi-blk-core.c:138:26
	str	wzr, [x0, #944]
	.loc	2 139 26                // /mnt/disk/jenkins/workspace/chipset_10.1.0_release_5G/opensource/component_code/vendor/huawei/extra/build/build_script/kirin_kernel_release/kernel/block/hisi-blk-core.c:139:26
	str	w8, [x0, #948]
	.loc	2 141 1                 // /mnt/disk/jenkins/workspace/chipset_10.1.0_release_5G/opensource/component_code/vendor/huawei/extra/build/build_script/kirin_kernel_release/kernel/block/hisi-blk-core.c:141:1
	ret
.Ltmp53:
.Lfunc_end3:
	.size	blk_mq_tagset_vl_setup, .Lfunc_end3-blk_mq_tagset_vl_setup
	.cfi_endproc
                                        // -- End function
	.section	.text.blk_queue_set_inline_crypto_flag,"ax",@progbits
	.hidden	blk_queue_set_inline_crypto_flag // -- Begin function blk_queue_set_inline_crypto_flag
	.globl	blk_queue_set_inline_crypto_flag
	.p2align	2
	.type	blk_queue_set_inline_crypto_flag,@function
blk_queue_set_inline_crypto_flag:       // @blk_queue_set_inline_crypto_flag
.Lfunc_begin4:
	.loc	2 148 0                 // /mnt/disk/jenkins/workspace/chipset_10.1.0_release_5G/opensource/component_code/vendor/huawei/extra/build/build_script/kirin_kernel_release/kernel/block/hisi-blk-core.c:148:0
	.cfi_startproc
// %bb.0:
	//DEBUG_VALUE: blk_queue_set_inline_crypto_flag:q <- $x0
	//DEBUG_VALUE: blk_queue_set_inline_crypto_flag:q <- $x0
	//DEBUG_VALUE: blk_queue_set_inline_crypto_flag:enable <- $w1
	//DEBUG_VALUE: blk_queue_set_inline_crypto_flag:enable <- undef
	//DEBUG_VALUE: hisi_blk_get_lld:q <- $x0
	//DEBUG_VALUE: hisi_blk_get_lld:q <- $x0
	.loc	2 27 6 prologue_end     // /mnt/disk/jenkins/workspace/chipset_10.1.0_release_5G/opensource/component_code/vendor/huawei/extra/build/build_script/kirin_kernel_release/kernel/block/hisi-blk-core.c:27:6
	ldr	x8, [x0, #312]
.Ltmp54:
	//DEBUG_VALUE: blk_queue_set_inline_crypto_flag:enable <- $w1
	.loc	2 27 6 is_stmt 0        // /mnt/disk/jenkins/workspace/chipset_10.1.0_release_5G/opensource/component_code/vendor/huawei/extra/build/build_script/kirin_kernel_release/kernel/block/hisi-blk-core.c:27:6
	cbz	x8, .LBB4_3
// %bb.1:
	//DEBUG_VALUE: hisi_blk_get_lld:q <- $x0
	//DEBUG_VALUE: blk_queue_set_inline_crypto_flag:enable <- $w1
	//DEBUG_VALUE: blk_queue_set_inline_crypto_flag:q <- $x0
.Ltmp55:
	.loc	2 28 14 is_stmt 1       // /mnt/disk/jenkins/workspace/chipset_10.1.0_release_5G/opensource/component_code/vendor/huawei/extra/build/build_script/kirin_kernel_release/kernel/block/hisi-blk-core.c:28:14
	ldr	x8, [x0, #3312]
	.loc	2 28 11 is_stmt 0       // /mnt/disk/jenkins/workspace/chipset_10.1.0_release_5G/opensource/component_code/vendor/huawei/extra/build/build_script/kirin_kernel_release/kernel/block/hisi-blk-core.c:28:11
	add	x9, x0, #1808           // =1808
	add	x10, x8, #16            // =16
.LBB4_2:
	//DEBUG_VALUE: hisi_blk_get_lld:q <- $x0
	//DEBUG_VALUE: blk_queue_set_inline_crypto_flag:enable <- $w1
	//DEBUG_VALUE: blk_queue_set_inline_crypto_flag:q <- $x0
	.loc	2 0 0                   // /mnt/disk/jenkins/workspace/chipset_10.1.0_release_5G/opensource/component_code/vendor/huawei/extra/build/build_script/kirin_kernel_release/kernel/block/hisi-blk-core.c:0:0
	cmp	x8, #0                  // =0
	csel	x8, x9, x10, eq
.Ltmp56:
	//DEBUG_VALUE: blk_queue_set_inline_crypto_flag:blk_lld <- $x8
	ldr	x9, [x8, #24]
.Ltmp57:
	.loc	2 150 6 is_stmt 1       // /mnt/disk/jenkins/workspace/chipset_10.1.0_release_5G/opensource/component_code/vendor/huawei/extra/build/build_script/kirin_kernel_release/kernel/block/hisi-blk-core.c:150:6
	tst	w1, #0x1
	and	x10, x9, #0xffffffffffffffef
	orr	x9, x9, #0x10
	csel	x9, x9, x10, ne
.Ltmp58:
	.loc	2 0 0 is_stmt 0         // /mnt/disk/jenkins/workspace/chipset_10.1.0_release_5G/opensource/component_code/vendor/huawei/extra/build/build_script/kirin_kernel_release/kernel/block/hisi-blk-core.c:0:0
	str	x9, [x8, #24]
.Ltmp59:
	.loc	2 154 1 is_stmt 1       // /mnt/disk/jenkins/workspace/chipset_10.1.0_release_5G/opensource/component_code/vendor/huawei/extra/build/build_script/kirin_kernel_release/kernel/block/hisi-blk-core.c:154:1
	ret
.Ltmp60:
.LBB4_3:
	//DEBUG_VALUE: hisi_blk_get_lld:q <- $x0
	//DEBUG_VALUE: blk_queue_set_inline_crypto_flag:enable <- $w1
	//DEBUG_VALUE: blk_queue_set_inline_crypto_flag:q <- $x0
	.loc	2 30 14                 // /mnt/disk/jenkins/workspace/chipset_10.1.0_release_5G/opensource/component_code/vendor/huawei/extra/build/build_script/kirin_kernel_release/kernel/block/hisi-blk-core.c:30:14
	ldr	x8, [x0, #720]
	.loc	2 30 11 is_stmt 0       // /mnt/disk/jenkins/workspace/chipset_10.1.0_release_5G/opensource/component_code/vendor/huawei/extra/build/build_script/kirin_kernel_release/kernel/block/hisi-blk-core.c:30:11
	add	x9, x0, #1808           // =1808
	add	x10, x8, #120           // =120
	b	.LBB4_2
.Ltmp61:
.Lfunc_end4:
	.size	blk_queue_set_inline_crypto_flag, .Lfunc_end4-blk_queue_set_inline_crypto_flag
	.cfi_endproc
                                        // -- End function
	.section	.text.is_blk_queue_support_crypto,"ax",@progbits
	.hidden	is_blk_queue_support_crypto // -- Begin function is_blk_queue_support_crypto
	.globl	is_blk_queue_support_crypto
	.p2align	2
	.type	is_blk_queue_support_crypto,@function
is_blk_queue_support_crypto:            // @is_blk_queue_support_crypto
.Lfunc_begin5:
	.loc	2 161 0 is_stmt 1       // /mnt/disk/jenkins/workspace/chipset_10.1.0_release_5G/opensource/component_code/vendor/huawei/extra/build/build_script/kirin_kernel_release/kernel/block/hisi-blk-core.c:161:0
	.cfi_startproc
// %bb.0:
	//DEBUG_VALUE: is_blk_queue_support_crypto:q <- $x0
	//DEBUG_VALUE: is_blk_queue_support_crypto:q <- $x0
	//DEBUG_VALUE: hisi_blk_get_lld:q <- $x0
	//DEBUG_VALUE: hisi_blk_get_lld:q <- $x0
	.loc	2 27 6 prologue_end     // /mnt/disk/jenkins/workspace/chipset_10.1.0_release_5G/opensource/component_code/vendor/huawei/extra/build/build_script/kirin_kernel_release/kernel/block/hisi-blk-core.c:27:6
	ldr	x8, [x0, #312]
.Ltmp62:
	.loc	2 27 6 is_stmt 0        // /mnt/disk/jenkins/workspace/chipset_10.1.0_release_5G/opensource/component_code/vendor/huawei/extra/build/build_script/kirin_kernel_release/kernel/block/hisi-blk-core.c:27:6
	cbz	x8, .LBB5_3
.Ltmp63:
// %bb.1:
	//DEBUG_VALUE: hisi_blk_get_lld:q <- $x0
	//DEBUG_VALUE: is_blk_queue_support_crypto:q <- $x0
	.loc	2 28 14 is_stmt 1       // /mnt/disk/jenkins/workspace/chipset_10.1.0_release_5G/opensource/component_code/vendor/huawei/extra/build/build_script/kirin_kernel_release/kernel/block/hisi-blk-core.c:28:14
	ldr	x8, [x0, #3312]
	.loc	2 28 11 is_stmt 0       // /mnt/disk/jenkins/workspace/chipset_10.1.0_release_5G/opensource/component_code/vendor/huawei/extra/build/build_script/kirin_kernel_release/kernel/block/hisi-blk-core.c:28:11
	add	x9, x0, #1808           // =1808
	add	x10, x8, #16            // =16
.Ltmp64:
.LBB5_2:
	//DEBUG_VALUE: hisi_blk_get_lld:q <- $x0
	//DEBUG_VALUE: is_blk_queue_support_crypto:q <- $x0
	.loc	2 0 0                   // /mnt/disk/jenkins/workspace/chipset_10.1.0_release_5G/opensource/component_code/vendor/huawei/extra/build/build_script/kirin_kernel_release/kernel/block/hisi-blk-core.c:0:0
	cmp	x8, #0                  // =0
	csel	x8, x9, x10, eq
.Ltmp65:
	//DEBUG_VALUE: is_blk_queue_support_crypto:blk_lld <- $x8
	.loc	2 163 19 is_stmt 1      // /mnt/disk/jenkins/workspace/chipset_10.1.0_release_5G/opensource/component_code/vendor/huawei/extra/build/build_script/kirin_kernel_release/kernel/block/hisi-blk-core.c:163:19
	ldr	w8, [x8, #24]
.Ltmp66:
	.loc	2 163 9 is_stmt 0       // /mnt/disk/jenkins/workspace/chipset_10.1.0_release_5G/opensource/component_code/vendor/huawei/extra/build/build_script/kirin_kernel_release/kernel/block/hisi-blk-core.c:163:9
	and	w0, w8, #0x10
.Ltmp67:
	.loc	2 163 2                 // /mnt/disk/jenkins/workspace/chipset_10.1.0_release_5G/opensource/component_code/vendor/huawei/extra/build/build_script/kirin_kernel_release/kernel/block/hisi-blk-core.c:163:2
	ret
.LBB5_3:
.Ltmp68:
	//DEBUG_VALUE: hisi_blk_get_lld:q <- $x0
	//DEBUG_VALUE: is_blk_queue_support_crypto:q <- $x0
	.loc	2 30 14 is_stmt 1       // /mnt/disk/jenkins/workspace/chipset_10.1.0_release_5G/opensource/component_code/vendor/huawei/extra/build/build_script/kirin_kernel_release/kernel/block/hisi-blk-core.c:30:14
	ldr	x8, [x0, #720]
	.loc	2 30 11 is_stmt 0       // /mnt/disk/jenkins/workspace/chipset_10.1.0_release_5G/opensource/component_code/vendor/huawei/extra/build/build_script/kirin_kernel_release/kernel/block/hisi-blk-core.c:30:11
	add	x9, x0, #1808           // =1808
	add	x10, x8, #120           // =120
	b	.LBB5_2
.Ltmp69:
.Lfunc_end5:
	.size	is_blk_queue_support_crypto, .Lfunc_end5-is_blk_queue_support_crypto
	.cfi_endproc
                                        // -- End function
	.section	.text.hisi_blk_queue_usr_ctrl_set,"ax",@progbits
	.hidden	hisi_blk_queue_usr_ctrl_set // -- Begin function hisi_blk_queue_usr_ctrl_set
	.globl	hisi_blk_queue_usr_ctrl_set
	.p2align	2
	.type	hisi_blk_queue_usr_ctrl_set,@function
hisi_blk_queue_usr_ctrl_set:            // @hisi_blk_queue_usr_ctrl_set
.Lfunc_begin6:
	.loc	2 335 0 is_stmt 1       // /mnt/disk/jenkins/workspace/chipset_10.1.0_release_5G/opensource/component_code/vendor/huawei/extra/build/build_script/kirin_kernel_release/kernel/block/hisi-blk-core.c:335:0
	.cfi_startproc
// %bb.0:
	stp	x20, x19, [sp, #-32]!   // 16-byte Folded Spill
	stp	x29, x30, [sp, #16]     // 16-byte Folded Spill
	add	x29, sp, #16            // =16
	.cfi_def_cfa w29, 16
	.cfi_offset w30, -8
	.cfi_offset w29, -16
	.cfi_offset w19, -24
	.cfi_offset w20, -32
	//DEBUG_VALUE: hisi_blk_queue_usr_ctrl_set:q <- $x0
	//DEBUG_VALUE: hisi_blk_queue_usr_ctrl_set:q <- $x0
.Ltmp70:
	.loc	2 336 20 prologue_end   // /mnt/disk/jenkins/workspace/chipset_10.1.0_release_5G/opensource/component_code/vendor/huawei/extra/build/build_script/kirin_kernel_release/kernel/block/hisi-blk-core.c:336:20
	ldr	x8, [x0, #1552]
	mov	w9, #28570
	movk	w9, #4, lsl #16
.Ltmp71:
	.loc	2 336 6 is_stmt 0       // /mnt/disk/jenkins/workspace/chipset_10.1.0_release_5G/opensource/component_code/vendor/huawei/extra/build/build_script/kirin_kernel_release/kernel/block/hisi-blk-core.c:336:6
	cmp	x8, x9
	b.ne	.LBB6_2
.Ltmp72:
// %bb.1:
	//DEBUG_VALUE: hisi_blk_queue_usr_ctrl_set:q <- $x0
	.loc	2 0 6                   // /mnt/disk/jenkins/workspace/chipset_10.1.0_release_5G/opensource/component_code/vendor/huawei/extra/build/build_script/kirin_kernel_release/kernel/block/hisi-blk-core.c:0:6
	mov	w8, #100
.Ltmp73:
	.loc	2 337 22 is_stmt 1      // /mnt/disk/jenkins/workspace/chipset_10.1.0_release_5G/opensource/component_code/vendor/huawei/extra/build/build_script/kirin_kernel_release/kernel/block/hisi-blk-core.c:337:22
	str	x8, [x0, #1736]
	.loc	2 339 4                 // /mnt/disk/jenkins/workspace/chipset_10.1.0_release_5G/opensource/component_code/vendor/huawei/extra/build/build_script/kirin_kernel_release/kernel/block/hisi-blk-core.c:339:4
	adrp	x8, jiffies
	ldr	x20, [x8, :lo12:jiffies]
	.loc	2 338 28                // /mnt/disk/jenkins/workspace/chipset_10.1.0_release_5G/opensource/component_code/vendor/huawei/extra/build/build_script/kirin_kernel_release/kernel/block/hisi-blk-core.c:338:28
	add	x19, x0, #1744          // =1744
.Ltmp74:
	//DEBUG_VALUE: msecs_to_jiffies:m <- 3600000
	.file	136 "/mnt/disk/jenkins/workspace/chipset_10.1.0_release_5G/opensource/component_code/vendor/huawei/extra/build/build_script/kirin_kernel_release/kernel/include/linux/jiffies.h"
	.loc	136 370 10              // /mnt/disk/jenkins/workspace/chipset_10.1.0_release_5G/opensource/component_code/vendor/huawei/extra/build/build_script/kirin_kernel_release/kernel/include/linux/jiffies.h:370:10
	mov	w0, #61056
.Ltmp75:
	movk	w0, #54, lsl #16
	bl	__msecs_to_jiffies
.Ltmp76:
	.loc	2 339 12                // /mnt/disk/jenkins/workspace/chipset_10.1.0_release_5G/opensource/component_code/vendor/huawei/extra/build/build_script/kirin_kernel_release/kernel/block/hisi-blk-core.c:339:12
	add	x1, x0, x20
	.loc	2 338 3                 // /mnt/disk/jenkins/workspace/chipset_10.1.0_release_5G/opensource/component_code/vendor/huawei/extra/build/build_script/kirin_kernel_release/kernel/block/hisi-blk-core.c:338:3
	mov	x0, x19
	bl	mod_timer
	b	.LBB6_3
.Ltmp77:
.LBB6_2:
	//DEBUG_VALUE: hisi_blk_queue_usr_ctrl_set:q <- $x0
	.loc	2 343 22                // /mnt/disk/jenkins/workspace/chipset_10.1.0_release_5G/opensource/component_code/vendor/huawei/extra/build/build_script/kirin_kernel_release/kernel/block/hisi-blk-core.c:343:22
	str	xzr, [x0, #1736]
	.loc	2 344 33                // /mnt/disk/jenkins/workspace/chipset_10.1.0_release_5G/opensource/component_code/vendor/huawei/extra/build/build_script/kirin_kernel_release/kernel/block/hisi-blk-core.c:344:33
	add	x0, x0, #1744           // =1744
.Ltmp78:
	.loc	2 344 3 is_stmt 0       // /mnt/disk/jenkins/workspace/chipset_10.1.0_release_5G/opensource/component_code/vendor/huawei/extra/build/build_script/kirin_kernel_release/kernel/block/hisi-blk-core.c:344:3
	bl	del_timer_sync
.Ltmp79:
.LBB6_3:
	.loc	2 346 1 is_stmt 1       // /mnt/disk/jenkins/workspace/chipset_10.1.0_release_5G/opensource/component_code/vendor/huawei/extra/build/build_script/kirin_kernel_release/kernel/block/hisi-blk-core.c:346:1
	ldp	x29, x30, [sp, #16]     // 16-byte Folded Reload
	ldp	x20, x19, [sp], #32     // 16-byte Folded Reload
	ret
.Ltmp80:
.Lfunc_end6:
	.size	hisi_blk_queue_usr_ctrl_set, .Lfunc_end6-hisi_blk_queue_usr_ctrl_set
	.cfi_endproc
                                        // -- End function
	.section	.text.hisi_blk_queue_usr_ctrl_recovery_timer_expire,"ax",@progbits
	.hidden	hisi_blk_queue_usr_ctrl_recovery_timer_expire // -- Begin function hisi_blk_queue_usr_ctrl_recovery_timer_expire
	.globl	hisi_blk_queue_usr_ctrl_recovery_timer_expire
	.p2align	2
	.type	hisi_blk_queue_usr_ctrl_recovery_timer_expire,@function
hisi_blk_queue_usr_ctrl_recovery_timer_expire: // @hisi_blk_queue_usr_ctrl_recovery_timer_expire
.Lfunc_begin7:
	.loc	2 349 0                 // /mnt/disk/jenkins/workspace/chipset_10.1.0_release_5G/opensource/component_code/vendor/huawei/extra/build/build_script/kirin_kernel_release/kernel/block/hisi-blk-core.c:349:0
	.cfi_startproc
// %bb.0:
	//DEBUG_VALUE: hisi_blk_queue_usr_ctrl_recovery_timer_expire:data <- $x0
	//DEBUG_VALUE: hisi_blk_queue_usr_ctrl_recovery_timer_expire:data <- $x0
	//DEBUG_VALUE: hisi_blk_queue_usr_ctrl_recovery_timer_expire:q <- $x0
	.loc	2 351 27 prologue_end   // /mnt/disk/jenkins/workspace/chipset_10.1.0_release_5G/opensource/component_code/vendor/huawei/extra/build/build_script/kirin_kernel_release/kernel/block/hisi-blk-core.c:351:27
	str	xzr, [x0, #1552]
	.loc	2 352 21                // /mnt/disk/jenkins/workspace/chipset_10.1.0_release_5G/opensource/component_code/vendor/huawei/extra/build/build_script/kirin_kernel_release/kernel/block/hisi-blk-core.c:352:21
	str	xzr, [x0, #1736]
	.loc	2 353 1                 // /mnt/disk/jenkins/workspace/chipset_10.1.0_release_5G/opensource/component_code/vendor/huawei/extra/build/build_script/kirin_kernel_release/kernel/block/hisi-blk-core.c:353:1
	ret
.Ltmp81:
.Lfunc_end7:
	.size	hisi_blk_queue_usr_ctrl_recovery_timer_expire, .Lfunc_end7-hisi_blk_queue_usr_ctrl_recovery_timer_expire
	.cfi_endproc
                                        // -- End function
	.section	.text.hisi_blk_bio_queue_split,"ax",@progbits
	.hidden	hisi_blk_bio_queue_split // -- Begin function hisi_blk_bio_queue_split
	.globl	hisi_blk_bio_queue_split
	.p2align	2
	.type	hisi_blk_bio_queue_split,@function
hisi_blk_bio_queue_split:               // @hisi_blk_bio_queue_split
.Lfunc_begin8:
	.loc	2 377 0                 // /mnt/disk/jenkins/workspace/chipset_10.1.0_release_5G/opensource/component_code/vendor/huawei/extra/build/build_script/kirin_kernel_release/kernel/block/hisi-blk-core.c:377:0
	.cfi_startproc
// %bb.0:
	stp	x20, x19, [sp, #-32]!   // 16-byte Folded Spill
	stp	x29, x30, [sp, #16]     // 16-byte Folded Spill
	add	x29, sp, #16            // =16
	.cfi_def_cfa w29, 16
	.cfi_offset w30, -8
	.cfi_offset w29, -16
	.cfi_offset w19, -24
	.cfi_offset w20, -32
	//DEBUG_VALUE: hisi_blk_bio_queue_split:q <- $x0
	//DEBUG_VALUE: hisi_blk_bio_queue_split:bio <- $x1
	//DEBUG_VALUE: hisi_blk_bio_queue_split:split <- $x2
.Ltmp82:
	.loc	2 378 37 prologue_end   // /mnt/disk/jenkins/workspace/chipset_10.1.0_release_5G/opensource/component_code/vendor/huawei/extra/build/build_script/kirin_kernel_release/kernel/block/hisi-blk-core.c:378:37
	ldr	x8, [x1]
	mov	x20, x0
.Ltmp83:
	//DEBUG_VALUE: hisi_blk_bio_queue_split:q <- $x20
	.loc	2 0 37 is_stmt 0        // /mnt/disk/jenkins/workspace/chipset_10.1.0_release_5G/opensource/component_code/vendor/huawei/extra/build/build_script/kirin_kernel_release/kernel/block/hisi-blk-core.c:0:37
	mov	x19, x2
.Ltmp84:
	//DEBUG_VALUE: hisi_blk_bio_queue_split:split <- $x19
	//DEBUG_VALUE: hisi_blk_bio_queue_split:bio <- $x1
	.loc	2 378 2                 // /mnt/disk/jenkins/workspace/chipset_10.1.0_release_5G/opensource/component_code/vendor/huawei/extra/build/build_script/kirin_kernel_release/kernel/block/hisi-blk-core.c:378:2
	mov	x0, x8
	bl	hisi_blk_busy_idle_check_bio_endio
.Ltmp85:
	.loc	2 379 2 is_stmt 1       // /mnt/disk/jenkins/workspace/chipset_10.1.0_release_5G/opensource/component_code/vendor/huawei/extra/build/build_script/kirin_kernel_release/kernel/block/hisi-blk-core.c:379:2
	mov	x0, x20
.Ltmp86:
	//DEBUG_VALUE: hisi_blk_bio_queue_split:q <- $x0
	mov	x1, x19
.Ltmp87:
	//DEBUG_VALUE: hisi_blk_bio_queue_split:split <- $x1
	bl	hisi_blk_busy_idle_check_bio
.Ltmp88:
	.loc	2 380 1                 // /mnt/disk/jenkins/workspace/chipset_10.1.0_release_5G/opensource/component_code/vendor/huawei/extra/build/build_script/kirin_kernel_release/kernel/block/hisi-blk-core.c:380:1
	ldp	x29, x30, [sp, #16]     // 16-byte Folded Reload
	ldp	x20, x19, [sp], #32     // 16-byte Folded Reload
	ret
.Ltmp89:
.Lfunc_end8:
	.size	hisi_blk_bio_queue_split, .Lfunc_end8-hisi_blk_bio_queue_split
	.cfi_endproc
                                        // -- End function
	.section	.text.hisi_blk_queue_bounce,"ax",@progbits
	.hidden	hisi_blk_queue_bounce   // -- Begin function hisi_blk_queue_bounce
	.globl	hisi_blk_queue_bounce
	.p2align	2
	.type	hisi_blk_queue_bounce,@function
hisi_blk_queue_bounce:                  // @hisi_blk_queue_bounce
.Lfunc_begin9:
	.loc	2 387 0                 // /mnt/disk/jenkins/workspace/chipset_10.1.0_release_5G/opensource/component_code/vendor/huawei/extra/build/build_script/kirin_kernel_release/kernel/block/hisi-blk-core.c:387:0
	.cfi_startproc
// %bb.0:
	stp	x29, x30, [sp, #-16]!   // 16-byte Folded Spill
	mov	x29, sp
	.cfi_def_cfa w29, 16
	.cfi_offset w30, -8
	.cfi_offset w29, -16
	//DEBUG_VALUE: hisi_blk_queue_bounce:q <- $x0
	//DEBUG_VALUE: hisi_blk_queue_bounce:bio_orig <- $x1
	//DEBUG_VALUE: hisi_blk_queue_bounce:bio_cloned <- $x2
	mov	x1, x2
.Ltmp90:
	//DEBUG_VALUE: hisi_blk_queue_bounce:bio_cloned <- $x1
	//DEBUG_VALUE: hisi_blk_queue_bounce:q <- $x0
	//DEBUG_VALUE: hisi_blk_queue_bounce:bio_cloned <- $x1
	//DEBUG_VALUE: hisi_blk_queue_bounce:q <- $x0
	.loc	2 388 2 prologue_end    // /mnt/disk/jenkins/workspace/chipset_10.1.0_release_5G/opensource/component_code/vendor/huawei/extra/build/build_script/kirin_kernel_release/kernel/block/hisi-blk-core.c:388:2
	bl	hisi_blk_busy_idle_check_bio
.Ltmp91:
	.loc	2 389 1                 // /mnt/disk/jenkins/workspace/chipset_10.1.0_release_5G/opensource/component_code/vendor/huawei/extra/build/build_script/kirin_kernel_release/kernel/block/hisi-blk-core.c:389:1
	ldp	x29, x30, [sp], #16     // 16-byte Folded Reload
	ret
.Ltmp92:
.Lfunc_end9:
	.size	hisi_blk_queue_bounce, .Lfunc_end9-hisi_blk_queue_bounce
	.cfi_endproc
                                        // -- End function
	.section	.text.hisi_blk_bio_split_pre,"ax",@progbits
	.hidden	hisi_blk_bio_split_pre  // -- Begin function hisi_blk_bio_split_pre
	.globl	hisi_blk_bio_split_pre
	.p2align	2
	.type	hisi_blk_bio_split_pre,@function
hisi_blk_bio_split_pre:                 // @hisi_blk_bio_split_pre
.Lfunc_begin10:
	.loc	2 395 0                 // /mnt/disk/jenkins/workspace/chipset_10.1.0_release_5G/opensource/component_code/vendor/huawei/extra/build/build_script/kirin_kernel_release/kernel/block/hisi-blk-core.c:395:0
	.cfi_startproc
// %bb.0:
	//DEBUG_VALUE: hisi_blk_bio_split_pre:bio <- $x0
	//DEBUG_VALUE: hisi_blk_bio_split_pre:split <- $x1
	//DEBUG_VALUE: hisi_blk_lld_inline_crypto_bio_split_pre:bio <- $x0
	//DEBUG_VALUE: hisi_blk_lld_inline_crypto_bio_split_pre:split <- $x1
	.loc	2 250 20 prologue_end   // /mnt/disk/jenkins/workspace/chipset_10.1.0_release_5G/opensource/component_code/vendor/huawei/extra/build/build_script/kirin_kernel_release/kernel/block/hisi-blk-core.c:250:20
	ldr	x8, [x0, #256]
.Ltmp93:
	.loc	2 250 6 is_stmt 0       // /mnt/disk/jenkins/workspace/chipset_10.1.0_release_5G/opensource/component_code/vendor/huawei/extra/build/build_script/kirin_kernel_release/kernel/block/hisi-blk-core.c:250:6
	cbz	x8, .LBB10_4
.Ltmp94:
// %bb.1:
	//DEBUG_VALUE: hisi_blk_lld_inline_crypto_bio_split_pre:split <- $x1
	//DEBUG_VALUE: hisi_blk_lld_inline_crypto_bio_split_pre:bio <- $x0
	//DEBUG_VALUE: hisi_blk_bio_split_pre:split <- $x1
	//DEBUG_VALUE: hisi_blk_bio_split_pre:bio <- $x0
	stp	x20, x19, [sp, #-32]!   // 16-byte Folded Spill
	stp	x29, x30, [sp, #16]     // 16-byte Folded Spill
	add	x29, sp, #16            // =16
	.cfi_def_cfa w29, 16
	.cfi_offset w30, -8
	.cfi_offset w29, -16
	.cfi_offset w19, -24
	.cfi_offset w20, -32
.Ltmp95:
	.loc	2 251 21 is_stmt 1      // /mnt/disk/jenkins/workspace/chipset_10.1.0_release_5G/opensource/component_code/vendor/huawei/extra/build/build_script/kirin_kernel_release/kernel/block/hisi-blk-core.c:251:21
	ldr	w9, [x0, #264]
	mov	x19, x0
.Ltmp96:
	//DEBUG_VALUE: hisi_blk_bio_split_pre:bio <- $x19
	//DEBUG_VALUE: hisi_blk_lld_inline_crypto_bio_split_pre:bio <- $x19
	.loc	2 0 21 is_stmt 0        // /mnt/disk/jenkins/workspace/chipset_10.1.0_release_5G/opensource/component_code/vendor/huawei/extra/build/build_script/kirin_kernel_release/kernel/block/hisi-blk-core.c:0:21
	mov	x20, x1
.Ltmp97:
	//DEBUG_VALUE: hisi_blk_bio_split_pre:split <- $x20
	//DEBUG_VALUE: hisi_blk_lld_inline_crypto_bio_split_pre:split <- $x20
	.loc	2 251 7                 // /mnt/disk/jenkins/workspace/chipset_10.1.0_release_5G/opensource/component_code/vendor/huawei/extra/build/build_script/kirin_kernel_release/kernel/block/hisi-blk-core.c:251:7
	cmp	w9, #64                 // =64
	b.eq	.LBB10_3
.Ltmp98:
// %bb.2:
	//DEBUG_VALUE: hisi_blk_lld_inline_crypto_bio_split_pre:split <- $x20
	//DEBUG_VALUE: hisi_blk_bio_split_pre:split <- $x20
	//DEBUG_VALUE: hisi_blk_lld_inline_crypto_bio_split_pre:bio <- $x19
	//DEBUG_VALUE: hisi_blk_bio_split_pre:bio <- $x19
	.loc	2 252 4 is_stmt 1       // /mnt/disk/jenkins/workspace/chipset_10.1.0_release_5G/opensource/component_code/vendor/huawei/extra/build/build_script/kirin_kernel_release/kernel/block/hisi-blk-core.c:252:4
	adrp	x0, .L.str.4
	adrp	x1, .L__func__.hisi_blk_lld_inline_crypto_bio_split_pre
	add	x0, x0, :lo12:.L.str.4
	add	x1, x1, :lo12:.L__func__.hisi_blk_lld_inline_crypto_bio_split_pre
	bl	printk
.Ltmp99:
	.loc	2 255 42                // /mnt/disk/jenkins/workspace/chipset_10.1.0_release_5G/opensource/component_code/vendor/huawei/extra/build/build_script/kirin_kernel_release/kernel/block/hisi-blk-core.c:255:42
	ldr	x8, [x19, #256]
.Ltmp100:
.LBB10_3:
	//DEBUG_VALUE: hisi_blk_lld_inline_crypto_bio_split_pre:split <- $x20
	//DEBUG_VALUE: hisi_blk_bio_split_pre:split <- $x20
	//DEBUG_VALUE: hisi_blk_lld_inline_crypto_bio_split_pre:bio <- $x19
	//DEBUG_VALUE: hisi_blk_bio_split_pre:bio <- $x19
	.loc	2 255 26 is_stmt 0      // /mnt/disk/jenkins/workspace/chipset_10.1.0_release_5G/opensource/component_code/vendor/huawei/extra/build/build_script/kirin_kernel_release/kernel/block/hisi-blk-core.c:255:26
	str	x8, [x20, #256]
	.loc	2 256 46 is_stmt 1      // /mnt/disk/jenkins/workspace/chipset_10.1.0_release_5G/opensource/component_code/vendor/huawei/extra/build/build_script/kirin_kernel_release/kernel/block/hisi-blk-core.c:256:46
	ldr	w8, [x19, #264]
	.loc	2 256 30 is_stmt 0      // /mnt/disk/jenkins/workspace/chipset_10.1.0_release_5G/opensource/component_code/vendor/huawei/extra/build/build_script/kirin_kernel_release/kernel/block/hisi-blk-core.c:256:30
	str	w8, [x20, #264]
	.loc	2 257 48 is_stmt 1      // /mnt/disk/jenkins/workspace/chipset_10.1.0_release_5G/opensource/component_code/vendor/huawei/extra/build/build_script/kirin_kernel_release/kernel/block/hisi-blk-core.c:257:48
	ldr	w8, [x19, #268]
	.loc	2 257 32 is_stmt 0      // /mnt/disk/jenkins/workspace/chipset_10.1.0_release_5G/opensource/component_code/vendor/huawei/extra/build/build_script/kirin_kernel_release/kernel/block/hisi-blk-core.c:257:32
	str	w8, [x20, #268]
	.loc	2 258 41 is_stmt 1      // /mnt/disk/jenkins/workspace/chipset_10.1.0_release_5G/opensource/component_code/vendor/huawei/extra/build/build_script/kirin_kernel_release/kernel/block/hisi-blk-core.c:258:41
	ldr	x8, [x19, #272]
	.loc	2 258 25 is_stmt 0      // /mnt/disk/jenkins/workspace/chipset_10.1.0_release_5G/opensource/component_code/vendor/huawei/extra/build/build_script/kirin_kernel_release/kernel/block/hisi-blk-core.c:258:25
	str	x8, [x20, #272]
	ldp	x29, x30, [sp, #16]     // 16-byte Folded Reload
	ldp	x20, x19, [sp], #32     // 16-byte Folded Reload
.Ltmp101:
.LBB10_4:
	.loc	2 397 1 is_stmt 1       // /mnt/disk/jenkins/workspace/chipset_10.1.0_release_5G/opensource/component_code/vendor/huawei/extra/build/build_script/kirin_kernel_release/kernel/block/hisi-blk-core.c:397:1
	ret
.Ltmp102:
.Lfunc_end10:
	.size	hisi_blk_bio_split_pre, .Lfunc_end10-hisi_blk_bio_split_pre
	.cfi_endproc
                                        // -- End function
	.section	.text.hisi_blk_bio_split_post,"ax",@progbits
	.hidden	hisi_blk_bio_split_post // -- Begin function hisi_blk_bio_split_post
	.globl	hisi_blk_bio_split_post
	.p2align	2
	.type	hisi_blk_bio_split_post,@function
hisi_blk_bio_split_post:                // @hisi_blk_bio_split_post
.Lfunc_begin11:
	.loc	2 403 0                 // /mnt/disk/jenkins/workspace/chipset_10.1.0_release_5G/opensource/component_code/vendor/huawei/extra/build/build_script/kirin_kernel_release/kernel/block/hisi-blk-core.c:403:0
	.cfi_startproc
// %bb.0:
	//DEBUG_VALUE: hisi_blk_bio_split_post:bio <- $x0
	//DEBUG_VALUE: hisi_blk_bio_split_post:split <- $x1
	//DEBUG_VALUE: hisi_blk_lld_inline_crypto_bio_split_post:bio <- $x0
	.loc	2 275 20 prologue_end   // /mnt/disk/jenkins/workspace/chipset_10.1.0_release_5G/opensource/component_code/vendor/huawei/extra/build/build_script/kirin_kernel_release/kernel/block/hisi-blk-core.c:275:20
	ldr	x8, [x0, #256]
.Ltmp103:
	.loc	2 275 6 is_stmt 0       // /mnt/disk/jenkins/workspace/chipset_10.1.0_release_5G/opensource/component_code/vendor/huawei/extra/build/build_script/kirin_kernel_release/kernel/block/hisi-blk-core.c:275:6
	cbz	x8, .LBB11_4
.Ltmp104:
// %bb.1:
	//DEBUG_VALUE: hisi_blk_lld_inline_crypto_bio_split_post:bio <- $x0
	//DEBUG_VALUE: hisi_blk_bio_split_post:split <- $x1
	//DEBUG_VALUE: hisi_blk_bio_split_post:bio <- $x0
	str	x19, [sp, #-32]!        // 8-byte Folded Spill
	stp	x29, x30, [sp, #16]     // 16-byte Folded Spill
	add	x29, sp, #16            // =16
	.cfi_def_cfa w29, 16
	.cfi_offset w30, -8
	.cfi_offset w29, -16
	.cfi_offset w19, -32
.Ltmp105:
	.loc	2 276 21 is_stmt 1      // /mnt/disk/jenkins/workspace/chipset_10.1.0_release_5G/opensource/component_code/vendor/huawei/extra/build/build_script/kirin_kernel_release/kernel/block/hisi-blk-core.c:276:21
	ldr	w8, [x0, #264]
	mov	x19, x0
.Ltmp106:
	//DEBUG_VALUE: hisi_blk_bio_split_post:bio <- $x19
	//DEBUG_VALUE: hisi_blk_lld_inline_crypto_bio_split_post:bio <- $x19
	.loc	2 276 7 is_stmt 0       // /mnt/disk/jenkins/workspace/chipset_10.1.0_release_5G/opensource/component_code/vendor/huawei/extra/build/build_script/kirin_kernel_release/kernel/block/hisi-blk-core.c:276:7
	cmp	w8, #64                 // =64
	b.eq	.LBB11_3
.Ltmp107:
// %bb.2:
	//DEBUG_VALUE: hisi_blk_lld_inline_crypto_bio_split_post:bio <- $x19
	//DEBUG_VALUE: hisi_blk_bio_split_post:bio <- $x19
	//DEBUG_VALUE: hisi_blk_bio_split_post:split <- $x1
	.loc	2 277 4 is_stmt 1       // /mnt/disk/jenkins/workspace/chipset_10.1.0_release_5G/opensource/component_code/vendor/huawei/extra/build/build_script/kirin_kernel_release/kernel/block/hisi-blk-core.c:277:4
	adrp	x0, .L.str.4
	adrp	x1, .L__func__.hisi_blk_lld_inline_crypto_bio_split_post
.Ltmp108:
	add	x0, x0, :lo12:.L.str.4
	add	x1, x1, :lo12:.L__func__.hisi_blk_lld_inline_crypto_bio_split_post
	bl	printk
.Ltmp109:
.LBB11_3:
	//DEBUG_VALUE: hisi_blk_lld_inline_crypto_bio_split_post:bio <- $x19
	//DEBUG_VALUE: hisi_blk_bio_split_post:bio <- $x19
	.loc	2 279 25                // /mnt/disk/jenkins/workspace/chipset_10.1.0_release_5G/opensource/component_code/vendor/huawei/extra/build/build_script/kirin_kernel_release/kernel/block/hisi-blk-core.c:279:25
	ldr	w8, [x19, #52]
	ldr	x9, [x19, #360]
	lsl	x8, x8, #4
	ldr	x8, [x9, x8]
	.loc	2 279 40 is_stmt 0      // /mnt/disk/jenkins/workspace/chipset_10.1.0_release_5G/opensource/component_code/vendor/huawei/extra/build/build_script/kirin_kernel_release/kernel/block/hisi-blk-core.c:279:40
	ldr	x8, [x8, #16]
	.loc	2 279 23                // /mnt/disk/jenkins/workspace/chipset_10.1.0_release_5G/opensource/component_code/vendor/huawei/extra/build/build_script/kirin_kernel_release/kernel/block/hisi-blk-core.c:279:23
	str	x8, [x19, #272]
	ldp	x29, x30, [sp, #16]     // 16-byte Folded Reload
	ldr	x19, [sp], #32          // 8-byte Folded Reload
.Ltmp110:
.LBB11_4:
	.loc	2 405 1 is_stmt 1       // /mnt/disk/jenkins/workspace/chipset_10.1.0_release_5G/opensource/component_code/vendor/huawei/extra/build/build_script/kirin_kernel_release/kernel/block/hisi-blk-core.c:405:1
	ret
.Ltmp111:
.Lfunc_end11:
	.size	hisi_blk_bio_split_post, .Lfunc_end11-hisi_blk_bio_split_post
	.cfi_endproc
                                        // -- End function
	.section	.text.hisi_blk_bio_merge_allow,"ax",@progbits
	.hidden	hisi_blk_bio_merge_allow // -- Begin function hisi_blk_bio_merge_allow
	.globl	hisi_blk_bio_merge_allow
	.p2align	2
	.type	hisi_blk_bio_merge_allow,@function
hisi_blk_bio_merge_allow:               // @hisi_blk_bio_merge_allow
.Lfunc_begin12:
	.loc	2 411 0                 // /mnt/disk/jenkins/workspace/chipset_10.1.0_release_5G/opensource/component_code/vendor/huawei/extra/build/build_script/kirin_kernel_release/kernel/block/hisi-blk-core.c:411:0
	.cfi_startproc
// %bb.0:
	str	x21, [sp, #-48]!        // 8-byte Folded Spill
	stp	x20, x19, [sp, #16]     // 16-byte Folded Spill
	stp	x29, x30, [sp, #32]     // 16-byte Folded Spill
	add	x29, sp, #32            // =32
	.cfi_def_cfa w29, 16
	.cfi_offset w30, -8
	.cfi_offset w29, -16
	.cfi_offset w19, -24
	.cfi_offset w20, -32
	.cfi_offset w21, -48
	//DEBUG_VALUE: hisi_blk_bio_merge_allow:rq <- $x0
	//DEBUG_VALUE: hisi_blk_bio_merge_allow:bio <- $x1
.Ltmp112:
	//DEBUG_VALUE: hisi_blk_lld_inline_crypto_bio_merge_allow:rq <- $x0
	//DEBUG_VALUE: hisi_blk_lld_inline_crypto_bio_merge_allow:bio <- $x1
	.loc	2 197 39 prologue_end   // /mnt/disk/jenkins/workspace/chipset_10.1.0_release_5G/opensource/component_code/vendor/huawei/extra/build/build_script/kirin_kernel_release/kernel/block/hisi-blk-core.c:197:39
	ldr	x8, [x0, #64]
.Ltmp113:
	//DEBUG_VALUE: hisi_blk_get_lld:q <- $x8
	//DEBUG_VALUE: is_blk_queue_support_crypto:q <- $x8
	.loc	2 0 39 is_stmt 0        // /mnt/disk/jenkins/workspace/chipset_10.1.0_release_5G/opensource/component_code/vendor/huawei/extra/build/build_script/kirin_kernel_release/kernel/block/hisi-blk-core.c:0:39
	mov	x20, x0
.Ltmp114:
	//DEBUG_VALUE: hisi_blk_lld_inline_crypto_bio_merge_allow:rq <- $x20
	//DEBUG_VALUE: hisi_blk_bio_merge_allow:rq <- $x20
	mov	x19, x1
.Ltmp115:
	//DEBUG_VALUE: hisi_blk_lld_inline_crypto_bio_merge_allow:bio <- $x19
	//DEBUG_VALUE: hisi_blk_bio_merge_allow:bio <- $x19
	.loc	2 27 6 is_stmt 1        // /mnt/disk/jenkins/workspace/chipset_10.1.0_release_5G/opensource/component_code/vendor/huawei/extra/build/build_script/kirin_kernel_release/kernel/block/hisi-blk-core.c:27:6
	ldr	x9, [x8, #312]
.Ltmp116:
	.loc	2 27 6 is_stmt 0        // /mnt/disk/jenkins/workspace/chipset_10.1.0_release_5G/opensource/component_code/vendor/huawei/extra/build/build_script/kirin_kernel_release/kernel/block/hisi-blk-core.c:27:6
	cbz	x9, .LBB12_17
.Ltmp117:
// %bb.1:
	//DEBUG_VALUE: hisi_blk_bio_merge_allow:bio <- $x19
	//DEBUG_VALUE: hisi_blk_lld_inline_crypto_bio_merge_allow:bio <- $x19
	//DEBUG_VALUE: hisi_blk_bio_merge_allow:rq <- $x20
	//DEBUG_VALUE: hisi_blk_lld_inline_crypto_bio_merge_allow:rq <- $x20
	//DEBUG_VALUE: is_blk_queue_support_crypto:q <- $x8
	//DEBUG_VALUE: hisi_blk_get_lld:q <- $x8
	.loc	2 28 14 is_stmt 1       // /mnt/disk/jenkins/workspace/chipset_10.1.0_release_5G/opensource/component_code/vendor/huawei/extra/build/build_script/kirin_kernel_release/kernel/block/hisi-blk-core.c:28:14
	ldr	x9, [x8, #3312]
	.loc	2 28 11 is_stmt 0       // /mnt/disk/jenkins/workspace/chipset_10.1.0_release_5G/opensource/component_code/vendor/huawei/extra/build/build_script/kirin_kernel_release/kernel/block/hisi-blk-core.c:28:11
	add	x8, x8, #1808           // =1808
.Ltmp118:
	add	x10, x9, #16            // =16
.Ltmp119:
.LBB12_2:
	//DEBUG_VALUE: hisi_blk_bio_merge_allow:bio <- $x19
	//DEBUG_VALUE: hisi_blk_lld_inline_crypto_bio_merge_allow:bio <- $x19
	//DEBUG_VALUE: hisi_blk_bio_merge_allow:rq <- $x20
	//DEBUG_VALUE: hisi_blk_lld_inline_crypto_bio_merge_allow:rq <- $x20
	.loc	2 0 0                   // /mnt/disk/jenkins/workspace/chipset_10.1.0_release_5G/opensource/component_code/vendor/huawei/extra/build/build_script/kirin_kernel_release/kernel/block/hisi-blk-core.c:0:0
	cmp	x9, #0                  // =0
	csel	x8, x8, x10, eq
.Ltmp120:
	//DEBUG_VALUE: is_blk_queue_support_crypto:blk_lld <- $x8
	.loc	2 197 6 is_stmt 1       // /mnt/disk/jenkins/workspace/chipset_10.1.0_release_5G/opensource/component_code/vendor/huawei/extra/build/build_script/kirin_kernel_release/kernel/block/hisi-blk-core.c:197:6
	ldrb	w8, [x8, #24]
.Ltmp121:
	tbz	w8, #4, .LBB12_14
.Ltmp122:
// %bb.3:
	//DEBUG_VALUE: hisi_blk_bio_merge_allow:bio <- $x19
	//DEBUG_VALUE: hisi_blk_lld_inline_crypto_bio_merge_allow:bio <- $x19
	//DEBUG_VALUE: hisi_blk_bio_merge_allow:rq <- $x20
	//DEBUG_VALUE: hisi_blk_lld_inline_crypto_bio_merge_allow:rq <- $x20
	.loc	2 204 21                // /mnt/disk/jenkins/workspace/chipset_10.1.0_release_5G/opensource/component_code/vendor/huawei/extra/build/build_script/kirin_kernel_release/kernel/block/hisi-blk-core.c:204:21
	ldr	x8, [x19, #256]
.Ltmp123:
	.loc	2 0 0 is_stmt 0         // /mnt/disk/jenkins/workspace/chipset_10.1.0_release_5G/opensource/component_code/vendor/huawei/extra/build/build_script/kirin_kernel_release/kernel/block/hisi-blk-core.c:0:0
	ldr	x9, [x20, #416]
.Ltmp124:
	.loc	2 204 28                // /mnt/disk/jenkins/workspace/chipset_10.1.0_release_5G/opensource/component_code/vendor/huawei/extra/build/build_script/kirin_kernel_release/kernel/block/hisi-blk-core.c:204:28
	cbz	x8, .LBB12_13
.Ltmp125:
// %bb.4:
	//DEBUG_VALUE: hisi_blk_bio_merge_allow:bio <- $x19
	//DEBUG_VALUE: hisi_blk_lld_inline_crypto_bio_merge_allow:bio <- $x19
	//DEBUG_VALUE: hisi_blk_bio_merge_allow:rq <- $x20
	//DEBUG_VALUE: hisi_blk_lld_inline_crypto_bio_merge_allow:rq <- $x20
	cbz	x9, .LBB12_13
.Ltmp126:
// %bb.5:
	//DEBUG_VALUE: hisi_blk_bio_merge_allow:bio <- $x19
	//DEBUG_VALUE: hisi_blk_lld_inline_crypto_bio_merge_allow:bio <- $x19
	//DEBUG_VALUE: hisi_blk_bio_merge_allow:rq <- $x20
	//DEBUG_VALUE: hisi_blk_lld_inline_crypto_bio_merge_allow:rq <- $x20
	.loc	2 215 20 is_stmt 1      // /mnt/disk/jenkins/workspace/chipset_10.1.0_release_5G/opensource/component_code/vendor/huawei/extra/build/build_script/kirin_kernel_release/kernel/block/hisi-blk-core.c:215:20
	ldr	w10, [x19, #264]
	.loc	2 215 47 is_stmt 0      // /mnt/disk/jenkins/workspace/chipset_10.1.0_release_5G/opensource/component_code/vendor/huawei/extra/build/build_script/kirin_kernel_release/kernel/block/hisi-blk-core.c:215:47
	ldr	w11, [x20, #424]
.Ltmp127:
	.loc	2 215 6                 // /mnt/disk/jenkins/workspace/chipset_10.1.0_release_5G/opensource/component_code/vendor/huawei/extra/build/build_script/kirin_kernel_release/kernel/block/hisi-blk-core.c:215:6
	cmp	w10, w11
	b.ne	.LBB12_12
.Ltmp128:
// %bb.6:
	//DEBUG_VALUE: hisi_blk_bio_merge_allow:bio <- $x19
	//DEBUG_VALUE: hisi_blk_lld_inline_crypto_bio_merge_allow:bio <- $x19
	//DEBUG_VALUE: hisi_blk_bio_merge_allow:rq <- $x20
	//DEBUG_VALUE: hisi_blk_lld_inline_crypto_bio_merge_allow:rq <- $x20
	.loc	2 218 6 is_stmt 1       // /mnt/disk/jenkins/workspace/chipset_10.1.0_release_5G/opensource/component_code/vendor/huawei/extra/build/build_script/kirin_kernel_release/kernel/block/hisi-blk-core.c:218:6
	cmp	w10, #64                // =64
	b.eq	.LBB12_8
.Ltmp129:
// %bb.7:
	//DEBUG_VALUE: hisi_blk_bio_merge_allow:bio <- $x19
	//DEBUG_VALUE: hisi_blk_lld_inline_crypto_bio_merge_allow:bio <- $x19
	//DEBUG_VALUE: hisi_blk_bio_merge_allow:rq <- $x20
	//DEBUG_VALUE: hisi_blk_lld_inline_crypto_bio_merge_allow:rq <- $x20
	.loc	2 219 3                 // /mnt/disk/jenkins/workspace/chipset_10.1.0_release_5G/opensource/component_code/vendor/huawei/extra/build/build_script/kirin_kernel_release/kernel/block/hisi-blk-core.c:219:3
	adrp	x0, .L.str.5
	adrp	x1, .L__func__.hisi_blk_lld_inline_crypto_bio_merge_allow
	add	x0, x0, :lo12:.L.str.5
	add	x1, x1, :lo12:.L__func__.hisi_blk_lld_inline_crypto_bio_merge_allow
	bl	printk
.Ltmp130:
	.loc	2 221 20                // /mnt/disk/jenkins/workspace/chipset_10.1.0_release_5G/opensource/component_code/vendor/huawei/extra/build/build_script/kirin_kernel_release/kernel/block/hisi-blk-core.c:221:20
	ldr	x8, [x19, #256]
	.loc	2 221 43 is_stmt 0      // /mnt/disk/jenkins/workspace/chipset_10.1.0_release_5G/opensource/component_code/vendor/huawei/extra/build/build_script/kirin_kernel_release/kernel/block/hisi-blk-core.c:221:43
	ldr	x9, [x20, #416]
.Ltmp131:
.LBB12_8:
	//DEBUG_VALUE: hisi_blk_bio_merge_allow:bio <- $x19
	//DEBUG_VALUE: hisi_blk_lld_inline_crypto_bio_merge_allow:bio <- $x19
	//DEBUG_VALUE: hisi_blk_bio_merge_allow:rq <- $x20
	//DEBUG_VALUE: hisi_blk_lld_inline_crypto_bio_merge_allow:rq <- $x20
	.loc	2 221 6                 // /mnt/disk/jenkins/workspace/chipset_10.1.0_release_5G/opensource/component_code/vendor/huawei/extra/build/build_script/kirin_kernel_release/kernel/block/hisi-blk-core.c:221:6
	cmp	x8, x9
	b.ne	.LBB12_12
.Ltmp132:
// %bb.9:
	//DEBUG_VALUE: hisi_blk_bio_merge_allow:bio <- $x19
	//DEBUG_VALUE: hisi_blk_lld_inline_crypto_bio_merge_allow:bio <- $x19
	//DEBUG_VALUE: hisi_blk_bio_merge_allow:rq <- $x20
	//DEBUG_VALUE: hisi_blk_lld_inline_crypto_bio_merge_allow:rq <- $x20
	.loc	2 222 26 is_stmt 1      // /mnt/disk/jenkins/workspace/chipset_10.1.0_release_5G/opensource/component_code/vendor/huawei/extra/build/build_script/kirin_kernel_release/kernel/block/hisi-blk-core.c:222:26
	ldr	x21, [x20, #128]
.Ltmp133:
	//DEBUG_VALUE: prev <- $x21
	.loc	2 225 9                 // /mnt/disk/jenkins/workspace/chipset_10.1.0_release_5G/opensource/component_code/vendor/huawei/extra/build/build_script/kirin_kernel_release/kernel/block/hisi-blk-core.c:225:9
	mov	x0, x20
	mov	x1, x19
	bl	blk_try_merge
.Ltmp134:
	//DEBUG_VALUE: ret <- $w0
	.loc	2 226 3                 // /mnt/disk/jenkins/workspace/chipset_10.1.0_release_5G/opensource/component_code/vendor/huawei/extra/build/build_script/kirin_kernel_release/kernel/block/hisi-blk-core.c:226:3
	cmp	w0, #1                  // =1
	b.eq	.LBB12_16
.Ltmp135:
// %bb.10:
	//DEBUG_VALUE: ret <- $w0
	//DEBUG_VALUE: prev <- $x21
	//DEBUG_VALUE: hisi_blk_bio_merge_allow:bio <- $x19
	//DEBUG_VALUE: hisi_blk_lld_inline_crypto_bio_merge_allow:bio <- $x19
	//DEBUG_VALUE: hisi_blk_bio_merge_allow:rq <- $x20
	//DEBUG_VALUE: hisi_blk_lld_inline_crypto_bio_merge_allow:rq <- $x20
	cmp	w0, #2                  // =2
	b.ne	.LBB12_12
.Ltmp136:
// %bb.11:
	//DEBUG_VALUE: ret <- $w0
	//DEBUG_VALUE: prev <- $x21
	//DEBUG_VALUE: hisi_blk_bio_merge_allow:bio <- $x19
	//DEBUG_VALUE: hisi_blk_lld_inline_crypto_bio_merge_allow:bio <- $x19
	//DEBUG_VALUE: hisi_blk_bio_merge_allow:rq <- $x20
	//DEBUG_VALUE: hisi_blk_lld_inline_crypto_bio_merge_allow:rq <- $x20
	.loc	2 228 23                // /mnt/disk/jenkins/workspace/chipset_10.1.0_release_5G/opensource/component_code/vendor/huawei/extra/build/build_script/kirin_kernel_release/kernel/block/hisi-blk-core.c:228:23
	ldr	x8, [x21, #272]
	.loc	2 228 37 is_stmt 0      // /mnt/disk/jenkins/workspace/chipset_10.1.0_release_5G/opensource/component_code/vendor/huawei/extra/build/build_script/kirin_kernel_release/kernel/block/hisi-blk-core.c:228:37
	ldrh	w9, [x21, #352]
	.loc	2 229 19 is_stmt 1      // /mnt/disk/jenkins/workspace/chipset_10.1.0_release_5G/opensource/component_code/vendor/huawei/extra/build/build_script/kirin_kernel_release/kernel/block/hisi-blk-core.c:229:19
	ldr	x10, [x19, #272]
	.loc	2 228 29                // /mnt/disk/jenkins/workspace/chipset_10.1.0_release_5G/opensource/component_code/vendor/huawei/extra/build/build_script/kirin_kernel_release/kernel/block/hisi-blk-core.c:228:29
	add	x8, x8, x9
.Ltmp137:
	.loc	2 228 8 is_stmt 0       // /mnt/disk/jenkins/workspace/chipset_10.1.0_release_5G/opensource/component_code/vendor/huawei/extra/build/build_script/kirin_kernel_release/kernel/block/hisi-blk-core.c:228:8
	cmp	x8, x10
	b.eq	.LBB12_14
.Ltmp138:
.LBB12_12:
	//DEBUG_VALUE: hisi_blk_bio_merge_allow:bio <- $x19
	//DEBUG_VALUE: hisi_blk_lld_inline_crypto_bio_merge_allow:bio <- $x19
	//DEBUG_VALUE: hisi_blk_bio_merge_allow:rq <- $x20
	//DEBUG_VALUE: hisi_blk_lld_inline_crypto_bio_merge_allow:rq <- $x20
	.loc	2 0 8                   // /mnt/disk/jenkins/workspace/chipset_10.1.0_release_5G/opensource/component_code/vendor/huawei/extra/build/build_script/kirin_kernel_release/kernel/block/hisi-blk-core.c:0:8
	mov	w0, wzr
	b	.LBB12_15
.Ltmp139:
.LBB12_13:
	//DEBUG_VALUE: hisi_blk_bio_merge_allow:bio <- $x19
	//DEBUG_VALUE: hisi_blk_lld_inline_crypto_bio_merge_allow:bio <- $x19
	//DEBUG_VALUE: hisi_blk_bio_merge_allow:rq <- $x20
	//DEBUG_VALUE: hisi_blk_lld_inline_crypto_bio_merge_allow:rq <- $x20
	.loc	2 204 7 is_stmt 1       // /mnt/disk/jenkins/workspace/chipset_10.1.0_release_5G/opensource/component_code/vendor/huawei/extra/build/build_script/kirin_kernel_release/kernel/block/hisi-blk-core.c:204:7
	orr	x8, x8, x9
.Ltmp140:
	.loc	2 414 2                 // /mnt/disk/jenkins/workspace/chipset_10.1.0_release_5G/opensource/component_code/vendor/huawei/extra/build/build_script/kirin_kernel_release/kernel/block/hisi-blk-core.c:414:2
	cbnz	x8, .LBB12_12
.Ltmp141:
.LBB12_14:
	//DEBUG_VALUE: hisi_blk_bio_merge_allow:bio <- $x19
	//DEBUG_VALUE: hisi_blk_lld_inline_crypto_bio_merge_allow:bio <- $x19
	//DEBUG_VALUE: hisi_blk_bio_merge_allow:rq <- $x20
	//DEBUG_VALUE: hisi_blk_lld_inline_crypto_bio_merge_allow:rq <- $x20
	.loc	2 0 2 is_stmt 0         // /mnt/disk/jenkins/workspace/chipset_10.1.0_release_5G/opensource/component_code/vendor/huawei/extra/build/build_script/kirin_kernel_release/kernel/block/hisi-blk-core.c:0:2
	orr	w0, wzr, #0x1
.Ltmp142:
.LBB12_15:
	//DEBUG_VALUE: hisi_blk_bio_merge_allow:bio <- $x19
	//DEBUG_VALUE: hisi_blk_bio_merge_allow:rq <- $x20
	.loc	2 415 1 is_stmt 1       // /mnt/disk/jenkins/workspace/chipset_10.1.0_release_5G/opensource/component_code/vendor/huawei/extra/build/build_script/kirin_kernel_release/kernel/block/hisi-blk-core.c:415:1
	ldp	x29, x30, [sp, #32]     // 16-byte Folded Reload
	ldp	x20, x19, [sp, #16]     // 16-byte Folded Reload
.Ltmp143:
	ldr	x21, [sp], #48          // 8-byte Folded Reload
	ret
.LBB12_16:
.Ltmp144:
	//DEBUG_VALUE: ret <- $w0
	//DEBUG_VALUE: prev <- $x21
	//DEBUG_VALUE: hisi_blk_bio_merge_allow:bio <- $x19
	//DEBUG_VALUE: hisi_blk_lld_inline_crypto_bio_merge_allow:bio <- $x19
	//DEBUG_VALUE: hisi_blk_bio_merge_allow:rq <- $x20
	//DEBUG_VALUE: hisi_blk_lld_inline_crypto_bio_merge_allow:rq <- $x20
	.loc	2 234 9                 // /mnt/disk/jenkins/workspace/chipset_10.1.0_release_5G/opensource/component_code/vendor/huawei/extra/build/build_script/kirin_kernel_release/kernel/block/hisi-blk-core.c:234:9
	ldr	x8, [x20, #120]
	.loc	2 233 22                // /mnt/disk/jenkins/workspace/chipset_10.1.0_release_5G/opensource/component_code/vendor/huawei/extra/build/build_script/kirin_kernel_release/kernel/block/hisi-blk-core.c:233:22
	ldr	x9, [x19, #272]
	.loc	2 233 35 is_stmt 0      // /mnt/disk/jenkins/workspace/chipset_10.1.0_release_5G/opensource/component_code/vendor/huawei/extra/build/build_script/kirin_kernel_release/kernel/block/hisi-blk-core.c:233:35
	ldrh	w10, [x19, #352]
	.loc	2 234 23 is_stmt 1      // /mnt/disk/jenkins/workspace/chipset_10.1.0_release_5G/opensource/component_code/vendor/huawei/extra/build/build_script/kirin_kernel_release/kernel/block/hisi-blk-core.c:234:23
	ldr	x8, [x8, #272]
	.loc	2 233 28                // /mnt/disk/jenkins/workspace/chipset_10.1.0_release_5G/opensource/component_code/vendor/huawei/extra/build/build_script/kirin_kernel_release/kernel/block/hisi-blk-core.c:233:28
	add	x9, x9, x10
.Ltmp145:
	.loc	2 233 8 is_stmt 0       // /mnt/disk/jenkins/workspace/chipset_10.1.0_release_5G/opensource/component_code/vendor/huawei/extra/build/build_script/kirin_kernel_release/kernel/block/hisi-blk-core.c:233:8
	cmp	x9, x8
	b.eq	.LBB12_14
	b	.LBB12_12
.Ltmp146:
.LBB12_17:
	//DEBUG_VALUE: hisi_blk_bio_merge_allow:bio <- $x19
	//DEBUG_VALUE: hisi_blk_lld_inline_crypto_bio_merge_allow:bio <- $x19
	//DEBUG_VALUE: hisi_blk_bio_merge_allow:rq <- $x20
	//DEBUG_VALUE: hisi_blk_lld_inline_crypto_bio_merge_allow:rq <- $x20
	//DEBUG_VALUE: is_blk_queue_support_crypto:q <- $x8
	//DEBUG_VALUE: hisi_blk_get_lld:q <- $x8
	.loc	2 30 14 is_stmt 1       // /mnt/disk/jenkins/workspace/chipset_10.1.0_release_5G/opensource/component_code/vendor/huawei/extra/build/build_script/kirin_kernel_release/kernel/block/hisi-blk-core.c:30:14
	ldr	x9, [x8, #720]
	.loc	2 30 11 is_stmt 0       // /mnt/disk/jenkins/workspace/chipset_10.1.0_release_5G/opensource/component_code/vendor/huawei/extra/build/build_script/kirin_kernel_release/kernel/block/hisi-blk-core.c:30:11
	add	x8, x8, #1808           // =1808
.Ltmp147:
	add	x10, x9, #120           // =120
	b	.LBB12_2
.Ltmp148:
.Lfunc_end12:
	.size	hisi_blk_bio_merge_allow, .Lfunc_end12-hisi_blk_bio_merge_allow
	.cfi_endproc
                                        // -- End function
	.section	.text.hisi_blk_bio_merge_done,"ax",@progbits
	.hidden	hisi_blk_bio_merge_done // -- Begin function hisi_blk_bio_merge_done
	.globl	hisi_blk_bio_merge_done
	.p2align	2
	.type	hisi_blk_bio_merge_done,@function
hisi_blk_bio_merge_done:                // @hisi_blk_bio_merge_done
.Lfunc_begin13:
	.loc	2 422 0 is_stmt 1       // /mnt/disk/jenkins/workspace/chipset_10.1.0_release_5G/opensource/component_code/vendor/huawei/extra/build/build_script/kirin_kernel_release/kernel/block/hisi-blk-core.c:422:0
	.cfi_startproc
// %bb.0:
	stp	x29, x30, [sp, #-16]!   // 16-byte Folded Spill
	mov	x29, sp
	.cfi_def_cfa w29, 16
	.cfi_offset w30, -8
	.cfi_offset w29, -16
	//DEBUG_VALUE: hisi_blk_bio_merge_done:q <- $x0
	//DEBUG_VALUE: hisi_blk_bio_merge_done:req <- $x1
	//DEBUG_VALUE: hisi_blk_bio_merge_done:next <- $x2
	mov	x0, x1
.Ltmp149:
	//DEBUG_VALUE: hisi_blk_bio_merge_done:next <- $x2
	//DEBUG_VALUE: hisi_blk_bio_merge_done:req <- $x0
	//DEBUG_VALUE: hisi_blk_bio_merge_done:req <- $x0
	.loc	2 423 2 prologue_end    // /mnt/disk/jenkins/workspace/chipset_10.1.0_release_5G/opensource/component_code/vendor/huawei/extra/build/build_script/kirin_kernel_release/kernel/block/hisi-blk-core.c:423:2
	mov	x1, x2
.Ltmp150:
	//DEBUG_VALUE: hisi_blk_bio_merge_done:next <- $x1
	bl	hisi_blk_latency_for_merge
.Ltmp151:
	.loc	2 424 1                 // /mnt/disk/jenkins/workspace/chipset_10.1.0_release_5G/opensource/component_code/vendor/huawei/extra/build/build_script/kirin_kernel_release/kernel/block/hisi-blk-core.c:424:1
	ldp	x29, x30, [sp], #16     // 16-byte Folded Reload
	ret
.Ltmp152:
.Lfunc_end13:
	.size	hisi_blk_bio_merge_done, .Lfunc_end13-hisi_blk_bio_merge_done
	.cfi_endproc
                                        // -- End function
	.section	.text.hisi_blk_account_io_completion,"ax",@progbits
	.hidden	hisi_blk_account_io_completion // -- Begin function hisi_blk_account_io_completion
	.globl	hisi_blk_account_io_completion
	.p2align	2
	.type	hisi_blk_account_io_completion,@function
hisi_blk_account_io_completion:         // @hisi_blk_account_io_completion
.Lfunc_begin14:
	.loc	2 430 0                 // /mnt/disk/jenkins/workspace/chipset_10.1.0_release_5G/opensource/component_code/vendor/huawei/extra/build/build_script/kirin_kernel_release/kernel/block/hisi-blk-core.c:430:0
	.cfi_startproc
// %bb.0:
	//DEBUG_VALUE: hisi_blk_account_io_completion:req <- $x0
	//DEBUG_VALUE: hisi_blk_account_io_completion:req <- $x0
	//DEBUG_VALUE: hisi_blk_account_io_completion:bytes <- $w1
	//DEBUG_VALUE: hisi_blk_account_io_completion:bytes <- $w1
	.loc	2 433 6 prologue_end    // /mnt/disk/jenkins/workspace/chipset_10.1.0_release_5G/opensource/component_code/vendor/huawei/extra/build/build_script/kirin_kernel_release/kernel/block/hisi-blk-core.c:433:6
	cbz	x0, .LBB14_8
.Ltmp153:
// %bb.1:
	//DEBUG_VALUE: hisi_blk_account_io_completion:bytes <- $w1
	//DEBUG_VALUE: hisi_blk_account_io_completion:req <- $x0
	.loc	2 436 30                // /mnt/disk/jenkins/workspace/chipset_10.1.0_release_5G/opensource/component_code/vendor/huawei/extra/build/build_script/kirin_kernel_release/kernel/block/hisi-blk-core.c:436:30
	ldr	x8, [x0, #64]
.Ltmp154:
	//DEBUG_VALUE: hisi_blk_get_lld:q <- $x8
	.loc	2 27 6                  // /mnt/disk/jenkins/workspace/chipset_10.1.0_release_5G/opensource/component_code/vendor/huawei/extra/build/build_script/kirin_kernel_release/kernel/block/hisi-blk-core.c:27:6
	ldr	x9, [x8, #312]
.Ltmp155:
	.loc	2 27 6 is_stmt 0        // /mnt/disk/jenkins/workspace/chipset_10.1.0_release_5G/opensource/component_code/vendor/huawei/extra/build/build_script/kirin_kernel_release/kernel/block/hisi-blk-core.c:27:6
	cbz	x9, .LBB14_11
.Ltmp156:
// %bb.2:
	//DEBUG_VALUE: hisi_blk_get_lld:q <- $x8
	//DEBUG_VALUE: hisi_blk_account_io_completion:bytes <- $w1
	//DEBUG_VALUE: hisi_blk_account_io_completion:req <- $x0
	.loc	2 28 14 is_stmt 1       // /mnt/disk/jenkins/workspace/chipset_10.1.0_release_5G/opensource/component_code/vendor/huawei/extra/build/build_script/kirin_kernel_release/kernel/block/hisi-blk-core.c:28:14
	ldr	x9, [x8, #3312]
	.loc	2 28 11 is_stmt 0       // /mnt/disk/jenkins/workspace/chipset_10.1.0_release_5G/opensource/component_code/vendor/huawei/extra/build/build_script/kirin_kernel_release/kernel/block/hisi-blk-core.c:28:11
	add	x8, x8, #1808           // =1808
.Ltmp157:
	add	x10, x9, #16            // =16
.Ltmp158:
.LBB14_3:
	//DEBUG_VALUE: hisi_blk_account_io_completion:bytes <- $w1
	//DEBUG_VALUE: hisi_blk_account_io_completion:req <- $x0
	.loc	2 0 0                   // /mnt/disk/jenkins/workspace/chipset_10.1.0_release_5G/opensource/component_code/vendor/huawei/extra/build/build_script/kirin_kernel_release/kernel/block/hisi-blk-core.c:0:0
	cmp	x9, #0                  // =0
	csel	x8, x8, x10, eq
.Ltmp159:
	//DEBUG_VALUE: hisi_blk_account_io_completion:lld <- $x8
	.loc	2 437 6 is_stmt 1       // /mnt/disk/jenkins/workspace/chipset_10.1.0_release_5G/opensource/component_code/vendor/huawei/extra/build/build_script/kirin_kernel_release/kernel/block/hisi-blk-core.c:437:6
	cbz	x8, .LBB14_9
.Ltmp160:
// %bb.4:
	//DEBUG_VALUE: hisi_blk_account_io_completion:lld <- $x8
	//DEBUG_VALUE: hisi_blk_account_io_completion:bytes <- $w1
	//DEBUG_VALUE: hisi_blk_account_io_completion:req <- $x0
	.loc	2 438 7                 // /mnt/disk/jenkins/workspace/chipset_10.1.0_release_5G/opensource/component_code/vendor/huawei/extra/build/build_script/kirin_kernel_release/kernel/block/hisi-blk-core.c:438:7
	ldrb	w9, [x0, #84]
.Ltmp161:
	.loc	2 438 7 is_stmt 0       // /mnt/disk/jenkins/workspace/chipset_10.1.0_release_5G/opensource/component_code/vendor/huawei/extra/build/build_script/kirin_kernel_release/kernel/block/hisi-blk-core.c:438:7
	cmp	w9, #3                  // =3
	b.ne	.LBB14_6
.Ltmp162:
// %bb.5:
	//DEBUG_VALUE: hisi_blk_account_io_completion:lld <- $x8
	//DEBUG_VALUE: hisi_blk_account_io_completion:bytes <- $w1
	//DEBUG_VALUE: hisi_blk_account_io_completion:req <- $x0
	.loc	2 439 21 is_stmt 1      // /mnt/disk/jenkins/workspace/chipset_10.1.0_release_5G/opensource/component_code/vendor/huawei/extra/build/build_script/kirin_kernel_release/kernel/block/hisi-blk-core.c:439:21
	ldr	x9, [x8, #904]
	add	x9, x9, w1, uxtw
	str	x9, [x8, #904]
.Ltmp163:
	.loc	2 441 7                 // /mnt/disk/jenkins/workspace/chipset_10.1.0_release_5G/opensource/component_code/vendor/huawei/extra/build/build_script/kirin_kernel_release/kernel/block/hisi-blk-core.c:441:7
	ldrb	w9, [x0, #84]
.Ltmp164:
.LBB14_6:
	//DEBUG_VALUE: hisi_blk_account_io_completion:lld <- $x8
	//DEBUG_VALUE: hisi_blk_account_io_completion:bytes <- $w1
	//DEBUG_VALUE: hisi_blk_account_io_completion:req <- $x0
	.loc	2 441 7 is_stmt 0       // /mnt/disk/jenkins/workspace/chipset_10.1.0_release_5G/opensource/component_code/vendor/huawei/extra/build/build_script/kirin_kernel_release/kernel/block/hisi-blk-core.c:441:7
	cmp	w9, #1                  // =1
	b.ne	.LBB14_10
.Ltmp165:
// %bb.7:
	//DEBUG_VALUE: hisi_blk_account_io_completion:lld <- $x8
	//DEBUG_VALUE: hisi_blk_account_io_completion:bytes <- $w1
	//DEBUG_VALUE: hisi_blk_account_io_completion:req <- $x0
	.loc	2 442 19 is_stmt 1      // /mnt/disk/jenkins/workspace/chipset_10.1.0_release_5G/opensource/component_code/vendor/huawei/extra/build/build_script/kirin_kernel_release/kernel/block/hisi-blk-core.c:442:19
	ldr	x9, [x8, #896]
.Ltmp166:
	.loc	2 0 0 is_stmt 0         // /mnt/disk/jenkins/workspace/chipset_10.1.0_release_5G/opensource/component_code/vendor/huawei/extra/build/build_script/kirin_kernel_release/kernel/block/hisi-blk-core.c:0:0
	mov	w0, wzr
.Ltmp167:
	.loc	2 442 19                // /mnt/disk/jenkins/workspace/chipset_10.1.0_release_5G/opensource/component_code/vendor/huawei/extra/build/build_script/kirin_kernel_release/kernel/block/hisi-blk-core.c:442:19
	add	x9, x9, w1, uxtw
	str	x9, [x8, #896]
.Ltmp168:
	.loc	2 446 1 is_stmt 1       // /mnt/disk/jenkins/workspace/chipset_10.1.0_release_5G/opensource/component_code/vendor/huawei/extra/build/build_script/kirin_kernel_release/kernel/block/hisi-blk-core.c:446:1
	ret
.Ltmp169:
.LBB14_8:
	//DEBUG_VALUE: hisi_blk_account_io_completion:bytes <- $w1
	//DEBUG_VALUE: hisi_blk_account_io_completion:req <- $x0
	.loc	2 0 1 is_stmt 0         // /mnt/disk/jenkins/workspace/chipset_10.1.0_release_5G/opensource/component_code/vendor/huawei/extra/build/build_script/kirin_kernel_release/kernel/block/hisi-blk-core.c:0:1
	mov	w0, #-1
.Ltmp170:
	.loc	2 446 1                 // /mnt/disk/jenkins/workspace/chipset_10.1.0_release_5G/opensource/component_code/vendor/huawei/extra/build/build_script/kirin_kernel_release/kernel/block/hisi-blk-core.c:446:1
	ret
.LBB14_9:
.Ltmp171:
	//DEBUG_VALUE: hisi_blk_account_io_completion:lld <- $x8
	//DEBUG_VALUE: hisi_blk_account_io_completion:bytes <- $w1
	//DEBUG_VALUE: hisi_blk_account_io_completion:req <- $x0
	.loc	2 0 0                   // /mnt/disk/jenkins/workspace/chipset_10.1.0_release_5G/opensource/component_code/vendor/huawei/extra/build/build_script/kirin_kernel_release/kernel/block/hisi-blk-core.c:0:0
	mov	w0, wzr
.Ltmp172:
	.loc	2 446 1                 // /mnt/disk/jenkins/workspace/chipset_10.1.0_release_5G/opensource/component_code/vendor/huawei/extra/build/build_script/kirin_kernel_release/kernel/block/hisi-blk-core.c:446:1
	ret
.Ltmp173:
.LBB14_10:
	//DEBUG_VALUE: hisi_blk_account_io_completion:lld <- $x8
	//DEBUG_VALUE: hisi_blk_account_io_completion:bytes <- $w1
	//DEBUG_VALUE: hisi_blk_account_io_completion:req <- $x0
	.loc	2 0 0                   // /mnt/disk/jenkins/workspace/chipset_10.1.0_release_5G/opensource/component_code/vendor/huawei/extra/build/build_script/kirin_kernel_release/kernel/block/hisi-blk-core.c:0:0
	mov	w0, wzr
.Ltmp174:
	.loc	2 446 1                 // /mnt/disk/jenkins/workspace/chipset_10.1.0_release_5G/opensource/component_code/vendor/huawei/extra/build/build_script/kirin_kernel_release/kernel/block/hisi-blk-core.c:446:1
	ret
.Ltmp175:
.LBB14_11:
	//DEBUG_VALUE: hisi_blk_get_lld:q <- $x8
	//DEBUG_VALUE: hisi_blk_account_io_completion:bytes <- $w1
	//DEBUG_VALUE: hisi_blk_account_io_completion:req <- $x0
	.loc	2 30 14 is_stmt 1       // /mnt/disk/jenkins/workspace/chipset_10.1.0_release_5G/opensource/component_code/vendor/huawei/extra/build/build_script/kirin_kernel_release/kernel/block/hisi-blk-core.c:30:14
	ldr	x9, [x8, #720]
	.loc	2 30 11 is_stmt 0       // /mnt/disk/jenkins/workspace/chipset_10.1.0_release_5G/opensource/component_code/vendor/huawei/extra/build/build_script/kirin_kernel_release/kernel/block/hisi-blk-core.c:30:11
	add	x8, x8, #1808           // =1808
.Ltmp176:
	add	x10, x9, #120           // =120
	b	.LBB14_3
.Ltmp177:
.Lfunc_end14:
	.size	hisi_blk_account_io_completion, .Lfunc_end14-hisi_blk_account_io_completion
	.cfi_endproc
                                        // -- End function
	.section	.text.hisi_blk_generic_make_request_check,"ax",@progbits
	.hidden	hisi_blk_generic_make_request_check // -- Begin function hisi_blk_generic_make_request_check
	.globl	hisi_blk_generic_make_request_check
	.p2align	2
	.type	hisi_blk_generic_make_request_check,@function
hisi_blk_generic_make_request_check:    // @hisi_blk_generic_make_request_check
.Lfunc_begin15:
	.loc	2 487 0 is_stmt 1       // /mnt/disk/jenkins/workspace/chipset_10.1.0_release_5G/opensource/component_code/vendor/huawei/extra/build/build_script/kirin_kernel_release/kernel/block/hisi-blk-core.c:487:0
	.cfi_startproc
// %bb.0:
	stp	x20, x19, [sp, #-32]!   // 16-byte Folded Spill
	stp	x29, x30, [sp, #16]     // 16-byte Folded Spill
	add	x29, sp, #16            // =16
	.cfi_def_cfa w29, 16
	.cfi_offset w30, -8
	.cfi_offset w29, -16
	.cfi_offset w19, -24
	.cfi_offset w20, -32
	//DEBUG_VALUE: hisi_blk_generic_make_request_check:bio <- $x0
.Ltmp178:
	.loc	2 488 33 prologue_end   // /mnt/disk/jenkins/workspace/chipset_10.1.0_release_5G/opensource/component_code/vendor/huawei/extra/build/build_script/kirin_kernel_release/kernel/block/hisi-blk-core.c:488:33
	ldr	x8, [x0, #8]
	.loc	2 506 2                 // /mnt/disk/jenkins/workspace/chipset_10.1.0_release_5G/opensource/component_code/vendor/huawei/extra/build/build_script/kirin_kernel_release/kernel/block/hisi-blk-core.c:506:2
	mov	w1, wzr
	mov	x19, x0
.Ltmp179:
	//DEBUG_VALUE: hisi_blk_generic_make_request_check:bio <- $x19
	.loc	2 488 42                // /mnt/disk/jenkins/workspace/chipset_10.1.0_release_5G/opensource/component_code/vendor/huawei/extra/build/build_script/kirin_kernel_release/kernel/block/hisi-blk-core.c:488:42
	ldr	x20, [x8, #1112]
.Ltmp180:
	//DEBUG_VALUE: hisi_blk_generic_make_request_check:q <- $x20
	.loc	2 506 2                 // /mnt/disk/jenkins/workspace/chipset_10.1.0_release_5G/opensource/component_code/vendor/huawei/extra/build/build_script/kirin_kernel_release/kernel/block/hisi-blk-core.c:506:2
	bl	hisi_blk_latency_bio_check
.Ltmp181:
	.loc	2 507 6                 // /mnt/disk/jenkins/workspace/chipset_10.1.0_release_5G/opensource/component_code/vendor/huawei/extra/build/build_script/kirin_kernel_release/kernel/block/hisi-blk-core.c:507:6
	mov	x0, x20
	mov	x1, x19
	bl	hisi_blk_flush_sync_dispatch
.Ltmp182:
	.loc	2 507 6 is_stmt 0       // /mnt/disk/jenkins/workspace/chipset_10.1.0_release_5G/opensource/component_code/vendor/huawei/extra/build/build_script/kirin_kernel_release/kernel/block/hisi-blk-core.c:507:6
	tbz	w0, #0, .LBB15_3
.Ltmp183:
// %bb.1:
	//DEBUG_VALUE: hisi_blk_generic_make_request_check:q <- $x20
	//DEBUG_VALUE: hisi_blk_generic_make_request_check:bio <- $x19
	.loc	2 512 2 is_stmt 1       // /mnt/disk/jenkins/workspace/chipset_10.1.0_release_5G/opensource/component_code/vendor/huawei/extra/build/build_script/kirin_kernel_release/kernel/block/hisi-blk-core.c:512:2
	mov	x0, x20
	mov	x1, x19
	bl	hisi_blk_busy_idle_check_bio
	.loc	2 0 0 is_stmt 0         // /mnt/disk/jenkins/workspace/chipset_10.1.0_release_5G/opensource/component_code/vendor/huawei/extra/build/build_script/kirin_kernel_release/kernel/block/hisi-blk-core.c:0:0
	mov	w0, wzr
.Ltmp184:
.LBB15_2:
	//DEBUG_VALUE: hisi_blk_generic_make_request_check:q <- $x20
	//DEBUG_VALUE: hisi_blk_generic_make_request_check:bio <- $x19
	.loc	2 515 1 is_stmt 1       // /mnt/disk/jenkins/workspace/chipset_10.1.0_release_5G/opensource/component_code/vendor/huawei/extra/build/build_script/kirin_kernel_release/kernel/block/hisi-blk-core.c:515:1
	ldp	x29, x30, [sp, #16]     // 16-byte Folded Reload
	ldp	x20, x19, [sp], #32     // 16-byte Folded Reload
.Ltmp185:
	ret
.LBB15_3:
.Ltmp186:
	//DEBUG_VALUE: hisi_blk_generic_make_request_check:q <- $x20
	//DEBUG_VALUE: hisi_blk_generic_make_request_check:bio <- $x19
	.loc	2 509 3                 // /mnt/disk/jenkins/workspace/chipset_10.1.0_release_5G/opensource/component_code/vendor/huawei/extra/build/build_script/kirin_kernel_release/kernel/block/hisi-blk-core.c:509:3
	mov	x0, x19
	.loc	2 508 18                // /mnt/disk/jenkins/workspace/chipset_10.1.0_release_5G/opensource/component_code/vendor/huawei/extra/build/build_script/kirin_kernel_release/kernel/block/hisi-blk-core.c:508:18
	strb	wzr, [x19, #26]
	.loc	2 509 3                 // /mnt/disk/jenkins/workspace/chipset_10.1.0_release_5G/opensource/component_code/vendor/huawei/extra/build/build_script/kirin_kernel_release/kernel/block/hisi-blk-core.c:509:3
	bl	bio_endio
	orr	w0, wzr, #0x1
	b	.LBB15_2
.Ltmp187:
.Lfunc_end15:
	.size	hisi_blk_generic_make_request_check, .Lfunc_end15-hisi_blk_generic_make_request_check
	.cfi_endproc
                                        // -- End function
	.section	.text.hisi_blk_generic_make_request,"ax",@progbits
	.hidden	hisi_blk_generic_make_request // -- Begin function hisi_blk_generic_make_request
	.globl	hisi_blk_generic_make_request
	.p2align	2
	.type	hisi_blk_generic_make_request,@function
hisi_blk_generic_make_request:          // @hisi_blk_generic_make_request
.Lfunc_begin16:
	.loc	2 521 0                 // /mnt/disk/jenkins/workspace/chipset_10.1.0_release_5G/opensource/component_code/vendor/huawei/extra/build/build_script/kirin_kernel_release/kernel/block/hisi-blk-core.c:521:0
	.cfi_startproc
// %bb.0:
	stp	x29, x30, [sp, #-16]!   // 16-byte Folded Spill
	mov	x29, sp
	.cfi_def_cfa w29, 16
	.cfi_offset w30, -8
	.cfi_offset w29, -16
	//DEBUG_VALUE: hisi_blk_generic_make_request:bio <- $x0
	//DEBUG_VALUE: hisi_blk_generic_make_request:bio <- $x0
.Ltmp188:
	.loc	2 522 2 prologue_end    // /mnt/disk/jenkins/workspace/chipset_10.1.0_release_5G/opensource/component_code/vendor/huawei/extra/build/build_script/kirin_kernel_release/kernel/block/hisi-blk-core.c:522:2
	orr	w1, wzr, #0x2
	//DEBUG_VALUE: hisi_blk_generic_make_request:bio <- $x0
	bl	hisi_blk_latency_bio_check
.Ltmp189:
	.loc	2 523 1                 // /mnt/disk/jenkins/workspace/chipset_10.1.0_release_5G/opensource/component_code/vendor/huawei/extra/build/build_script/kirin_kernel_release/kernel/block/hisi-blk-core.c:523:1
	ldp	x29, x30, [sp], #16     // 16-byte Folded Reload
	ret
.Ltmp190:
.Lfunc_end16:
	.size	hisi_blk_generic_make_request, .Lfunc_end16-hisi_blk_generic_make_request
	.cfi_endproc
                                        // -- End function
	.section	.text.hisi_blk_start_plug,"ax",@progbits
	.hidden	hisi_blk_start_plug     // -- Begin function hisi_blk_start_plug
	.globl	hisi_blk_start_plug
	.p2align	2
	.type	hisi_blk_start_plug,@function
hisi_blk_start_plug:                    // @hisi_blk_start_plug
.Lfunc_begin17:
	.loc	2 529 0                 // /mnt/disk/jenkins/workspace/chipset_10.1.0_release_5G/opensource/component_code/vendor/huawei/extra/build/build_script/kirin_kernel_release/kernel/block/hisi-blk-core.c:529:0
	.cfi_startproc
// %bb.0:
	//DEBUG_VALUE: hisi_blk_start_plug:plug <- $x0
	//DEBUG_VALUE: hisi_blk_start_plug:plug <- $x0
	.loc	2 530 24 prologue_end   // /mnt/disk/jenkins/workspace/chipset_10.1.0_release_5G/opensource/component_code/vendor/huawei/extra/build/build_script/kirin_kernel_release/kernel/block/hisi-blk-core.c:530:24
	add	x8, x0, #48             // =48
.Ltmp191:
	//DEBUG_VALUE: __write_once_size:p <- $x8
	//DEBUG_VALUE: __write_once_size:size <- 8
	//DEBUG_VALUE: __write_once_size:res <- undef
	//DEBUG_VALUE: INIT_LIST_HEAD:list <- $x8
	.file	137 "/mnt/disk/jenkins/workspace/chipset_10.1.0_release_5G/opensource/component_code/vendor/huawei/extra/build/build_script/kirin_kernel_release/kernel/include/linux/compiler.h"
	.loc	137 213 31              // /mnt/disk/jenkins/workspace/chipset_10.1.0_release_5G/opensource/component_code/vendor/huawei/extra/build/build_script/kirin_kernel_release/kernel/include/linux/compiler.h:213:31
	str	x8, [x0, #48]
.Ltmp192:
	.file	138 "/mnt/disk/jenkins/workspace/chipset_10.1.0_release_5G/opensource/component_code/vendor/huawei/extra/build/build_script/kirin_kernel_release/kernel/include/linux/list.h"
	.loc	138 29 13               // /mnt/disk/jenkins/workspace/chipset_10.1.0_release_5G/opensource/component_code/vendor/huawei/extra/build/build_script/kirin_kernel_release/kernel/include/linux/list.h:29:13
	stp	x8, xzr, [x0, #56]
.Ltmp193:
	.loc	2 532 1                 // /mnt/disk/jenkins/workspace/chipset_10.1.0_release_5G/opensource/component_code/vendor/huawei/extra/build/build_script/kirin_kernel_release/kernel/block/hisi-blk-core.c:532:1
	ret
.Ltmp194:
.Lfunc_end17:
	.size	hisi_blk_start_plug, .Lfunc_end17-hisi_blk_start_plug
	.cfi_endproc
                                        // -- End function
	.section	.text.hisi_blk_flush_plug_list,"ax",@progbits
	.hidden	hisi_blk_flush_plug_list // -- Begin function hisi_blk_flush_plug_list
	.globl	hisi_blk_flush_plug_list
	.p2align	2
	.type	hisi_blk_flush_plug_list,@function
hisi_blk_flush_plug_list:               // @hisi_blk_flush_plug_list
.Lfunc_begin18:
	.loc	2 538 0                 // /mnt/disk/jenkins/workspace/chipset_10.1.0_release_5G/opensource/component_code/vendor/huawei/extra/build/build_script/kirin_kernel_release/kernel/block/hisi-blk-core.c:538:0
	.cfi_startproc
// %bb.0:
	//DEBUG_VALUE: hisi_blk_flush_plug_list:plug <- $x0
	//DEBUG_VALUE: hisi_blk_flush_plug_list:plug <- $x0
	//DEBUG_VALUE: hisi_blk_flush_plug_list:from_schedule <- $w1
	//DEBUG_VALUE: hisi_blk_flush_plug_list:from_schedule <- undef
	//DEBUG_VALUE: __read_once_size:res <- undef
	//DEBUG_VALUE: __read_once_size:size <- 8
	//DEBUG_VALUE: list_empty:head <- undef
	//DEBUG_VALUE: __read_once_size:p <- undef
	.loc	137 186 2 prologue_end  // /mnt/disk/jenkins/workspace/chipset_10.1.0_release_5G/opensource/component_code/vendor/huawei/extra/build/build_script/kirin_kernel_release/kernel/include/linux/compiler.h:186:2
	mov	x8, x0
	ldr	x9, [x8, #48]!
.Ltmp195:
	.loc	2 539 6                 // /mnt/disk/jenkins/workspace/chipset_10.1.0_release_5G/opensource/component_code/vendor/huawei/extra/build/build_script/kirin_kernel_release/kernel/block/hisi-blk-core.c:539:6
	cmp	x8, x9
.Ltmp196:
	//DEBUG_VALUE: hisi_blk_flush_plug_list:from_schedule <- $w1
	b.eq	.LBB18_3
.Ltmp197:
// %bb.1:
	//DEBUG_VALUE: hisi_blk_flush_plug_list:from_schedule <- $w1
	//DEBUG_VALUE: hisi_blk_flush_plug_list:plug <- $x0
	ldr	x8, [x0, #64]
.Ltmp198:
	.loc	2 539 6 is_stmt 0       // /mnt/disk/jenkins/workspace/chipset_10.1.0_release_5G/opensource/component_code/vendor/huawei/extra/build/build_script/kirin_kernel_release/kernel/block/hisi-blk-core.c:539:6
	cbz	x8, .LBB18_3
.Ltmp199:
// %bb.2:
	//DEBUG_VALUE: hisi_blk_flush_plug_list:from_schedule <- $w1
	//DEBUG_VALUE: hisi_blk_flush_plug_list:plug <- $x0
	stp	x29, x30, [sp, #-16]!   // 16-byte Folded Spill
	mov	x29, sp
	.cfi_def_cfa w29, 16
	.cfi_offset w30, -8
	.cfi_offset w29, -16
.Ltmp200:
	.loc	2 541 3 is_stmt 1       // /mnt/disk/jenkins/workspace/chipset_10.1.0_release_5G/opensource/component_code/vendor/huawei/extra/build/build_script/kirin_kernel_release/kernel/block/hisi-blk-core.c:541:3
	and	w1, w1, #0x1
.Ltmp201:
	blr	x8
.Ltmp202:
	.loc	2 0 3 is_stmt 0         // /mnt/disk/jenkins/workspace/chipset_10.1.0_release_5G/opensource/component_code/vendor/huawei/extra/build/build_script/kirin_kernel_release/kernel/block/hisi-blk-core.c:0:3
	ldp	x29, x30, [sp], #16     // 16-byte Folded Reload
.Ltmp203:
.LBB18_3:
	.loc	2 542 1 is_stmt 1       // /mnt/disk/jenkins/workspace/chipset_10.1.0_release_5G/opensource/component_code/vendor/huawei/extra/build/build_script/kirin_kernel_release/kernel/block/hisi-blk-core.c:542:1
	ret
.Ltmp204:
.Lfunc_end18:
	.size	hisi_blk_flush_plug_list, .Lfunc_end18-hisi_blk_flush_plug_list
	.cfi_endproc
                                        // -- End function
	.section	.text.hisi_blk_bio_endio,"ax",@progbits
	.hidden	hisi_blk_bio_endio      // -- Begin function hisi_blk_bio_endio
	.globl	hisi_blk_bio_endio
	.p2align	2
	.type	hisi_blk_bio_endio,@function
hisi_blk_bio_endio:                     // @hisi_blk_bio_endio
.Lfunc_begin19:
	.loc	2 548 0                 // /mnt/disk/jenkins/workspace/chipset_10.1.0_release_5G/opensource/component_code/vendor/huawei/extra/build/build_script/kirin_kernel_release/kernel/block/hisi-blk-core.c:548:0
	.cfi_startproc
// %bb.0:
	str	x19, [sp, #-32]!        // 8-byte Folded Spill
	stp	x29, x30, [sp, #16]     // 16-byte Folded Spill
	add	x29, sp, #16            // =16
	.cfi_def_cfa w29, 16
	.cfi_offset w30, -8
	.cfi_offset w29, -16
	.cfi_offset w19, -32
	//DEBUG_VALUE: hisi_blk_bio_endio:bio <- $x0
	mov	x19, x0
.Ltmp205:
	//DEBUG_VALUE: hisi_blk_bio_endio:bio <- $x19
	.loc	2 549 2 prologue_end    // /mnt/disk/jenkins/workspace/chipset_10.1.0_release_5G/opensource/component_code/vendor/huawei/extra/build/build_script/kirin_kernel_release/kernel/block/hisi-blk-core.c:549:2
	bl	hisi_blk_busy_idle_check_bio_endio
	.loc	2 550 2                 // /mnt/disk/jenkins/workspace/chipset_10.1.0_release_5G/opensource/component_code/vendor/huawei/extra/build/build_script/kirin_kernel_release/kernel/block/hisi-blk-core.c:550:2
	orr	w1, wzr, #0x1
	mov	x0, x19
	bl	hisi_blk_latency_bio_check
	.loc	2 551 1                 // /mnt/disk/jenkins/workspace/chipset_10.1.0_release_5G/opensource/component_code/vendor/huawei/extra/build/build_script/kirin_kernel_release/kernel/block/hisi-blk-core.c:551:1
	ldp	x29, x30, [sp, #16]     // 16-byte Folded Reload
	ldr	x19, [sp], #32          // 8-byte Folded Reload
.Ltmp206:
	ret
.Ltmp207:
.Lfunc_end19:
	.size	hisi_blk_bio_endio, .Lfunc_end19-hisi_blk_bio_endio
	.cfi_endproc
                                        // -- End function
	.section	.text.hisi_blk_bio_free,"ax",@progbits
	.hidden	hisi_blk_bio_free       // -- Begin function hisi_blk_bio_free
	.globl	hisi_blk_bio_free
	.p2align	2
	.type	hisi_blk_bio_free,@function
hisi_blk_bio_free:                      // @hisi_blk_bio_free
.Lfunc_begin20:
	.loc	2 557 0                 // /mnt/disk/jenkins/workspace/chipset_10.1.0_release_5G/opensource/component_code/vendor/huawei/extra/build/build_script/kirin_kernel_release/kernel/block/hisi-blk-core.c:557:0
	.cfi_startproc
// %bb.0:
	//DEBUG_VALUE: hisi_blk_bio_free:bio <- $x0
	//DEBUG_VALUE: hisi_blk_bio_free:bio <- $x0
	.loc	2 558 6 prologue_end    // /mnt/disk/jenkins/workspace/chipset_10.1.0_release_5G/opensource/component_code/vendor/huawei/extra/build/build_script/kirin_kernel_release/kernel/block/hisi-blk-core.c:558:6
	ldrb	w8, [x0, #136]
.Ltmp208:
	.loc	2 558 6 is_stmt 0       // /mnt/disk/jenkins/workspace/chipset_10.1.0_release_5G/opensource/component_code/vendor/huawei/extra/build/build_script/kirin_kernel_release/kernel/block/hisi-blk-core.c:558:6
	tbnz	w8, #0, .LBB20_2
.Ltmp209:
// %bb.1:
	//DEBUG_VALUE: hisi_blk_bio_free:bio <- $x0
	.loc	2 567 1 is_stmt 1       // /mnt/disk/jenkins/workspace/chipset_10.1.0_release_5G/opensource/component_code/vendor/huawei/extra/build/build_script/kirin_kernel_release/kernel/block/hisi-blk-core.c:567:1
	ret
.Ltmp210:
.LBB20_2:
	//DEBUG_VALUE: hisi_blk_bio_free:bio <- $x0
	stp	x29, x30, [sp, #-16]!   // 16-byte Folded Spill
	mov	x29, sp
	.cfi_def_cfa w29, 16
	.cfi_offset w30, -8
	.cfi_offset w29, -16
.Ltmp211:
	.loc	2 564 3                 // /mnt/disk/jenkins/workspace/chipset_10.1.0_release_5G/opensource/component_code/vendor/huawei/extra/build/build_script/kirin_kernel_release/kernel/block/hisi-blk-core.c:564:3
	bl	hisi_blk_busy_idle_check_bio_endio
.Ltmp212:
	.loc	2 0 3 is_stmt 0         // /mnt/disk/jenkins/workspace/chipset_10.1.0_release_5G/opensource/component_code/vendor/huawei/extra/build/build_script/kirin_kernel_release/kernel/block/hisi-blk-core.c:0:3
	ldp	x29, x30, [sp], #16     // 16-byte Folded Reload
.Ltmp213:
	.loc	2 567 1 is_stmt 1       // /mnt/disk/jenkins/workspace/chipset_10.1.0_release_5G/opensource/component_code/vendor/huawei/extra/build/build_script/kirin_kernel_release/kernel/block/hisi-blk-core.c:567:1
	ret
.Ltmp214:
.Lfunc_end20:
	.size	hisi_blk_bio_free, .Lfunc_end20-hisi_blk_bio_free
	.cfi_endproc
                                        // -- End function
	.section	.text.hisi_blk_request_init_from_bio,"ax",@progbits
	.hidden	hisi_blk_request_init_from_bio // -- Begin function hisi_blk_request_init_from_bio
	.globl	hisi_blk_request_init_from_bio
	.p2align	2
	.type	hisi_blk_request_init_from_bio,@function
hisi_blk_request_init_from_bio:         // @hisi_blk_request_init_from_bio
.Lfunc_begin21:
	.loc	2 574 0                 // /mnt/disk/jenkins/workspace/chipset_10.1.0_release_5G/opensource/component_code/vendor/huawei/extra/build/build_script/kirin_kernel_release/kernel/block/hisi-blk-core.c:574:0
	.cfi_startproc
// %bb.0:
	stp	x20, x19, [sp, #-32]!   // 16-byte Folded Spill
	stp	x29, x30, [sp, #16]     // 16-byte Folded Spill
	add	x29, sp, #16            // =16
	.cfi_def_cfa w29, 16
	.cfi_offset w30, -8
	.cfi_offset w29, -16
	.cfi_offset w19, -24
	.cfi_offset w20, -32
	//DEBUG_VALUE: hisi_blk_request_init_from_bio:req <- $x0
	//DEBUG_VALUE: hisi_blk_request_init_from_bio:bio <- $x1
.Ltmp215:
	//DEBUG_VALUE: hisi_blk_lld_inline_crypto_init_request_from_bio:req <- $x0
	//DEBUG_VALUE: hisi_blk_lld_inline_crypto_init_request_from_bio:bio <- $x1
	mov	x20, x1
.Ltmp216:
	.loc	2 575 2 prologue_end    // /mnt/disk/jenkins/workspace/chipset_10.1.0_release_5G/opensource/component_code/vendor/huawei/extra/build/build_script/kirin_kernel_release/kernel/block/hisi-blk-core.c:575:2
	mov	w1, wzr
.Ltmp217:
	.loc	2 0 2 is_stmt 0         // /mnt/disk/jenkins/workspace/chipset_10.1.0_release_5G/opensource/component_code/vendor/huawei/extra/build/build_script/kirin_kernel_release/kernel/block/hisi-blk-core.c:0:2
	mov	x19, x0
.Ltmp218:
	//DEBUG_VALUE: hisi_blk_request_init_from_bio:bio <- $x20
	//DEBUG_VALUE: hisi_blk_request_init_from_bio:req <- $x19
	.loc	2 575 2                 // /mnt/disk/jenkins/workspace/chipset_10.1.0_release_5G/opensource/component_code/vendor/huawei/extra/build/build_script/kirin_kernel_release/kernel/block/hisi-blk-core.c:575:2
	bl	hisi_blk_latency_req_check
.Ltmp219:
	.loc	2 576 44 is_stmt 1      // /mnt/disk/jenkins/workspace/chipset_10.1.0_release_5G/opensource/component_code/vendor/huawei/extra/build/build_script/kirin_kernel_release/kernel/block/hisi-blk-core.c:576:44
	ldrb	w8, [x20, #139]
	.loc	2 577 31                // /mnt/disk/jenkins/workspace/chipset_10.1.0_release_5G/opensource/component_code/vendor/huawei/extra/build/build_script/kirin_kernel_release/kernel/block/hisi-blk-core.c:577:31
	str	wzr, [x19, #276]
	.loc	2 576 28                // /mnt/disk/jenkins/workspace/chipset_10.1.0_release_5G/opensource/component_code/vendor/huawei/extra/build/build_script/kirin_kernel_release/kernel/block/hisi-blk-core.c:576:28
	strb	w8, [x19, #273]
	.loc	2 578 23                // /mnt/disk/jenkins/workspace/chipset_10.1.0_release_5G/opensource/component_code/vendor/huawei/extra/build/build_script/kirin_kernel_release/kernel/block/hisi-blk-core.c:578:23
	str	x19, [x20, #96]
.Ltmp220:
	//DEBUG_VALUE: hisi_blk_lld_inline_crypto_init_request_from_bio:bio <- $x20
	//DEBUG_VALUE: hisi_blk_lld_inline_crypto_init_request_from_bio:req <- $x19
	.loc	2 170 6                 // /mnt/disk/jenkins/workspace/chipset_10.1.0_release_5G/opensource/component_code/vendor/huawei/extra/build/build_script/kirin_kernel_release/kernel/block/hisi-blk-core.c:170:6
	ldr	x8, [x19, #64]
.Ltmp221:
	//DEBUG_VALUE: hisi_blk_get_lld:q <- $x8
	//DEBUG_VALUE: is_blk_queue_support_crypto:q <- $x8
	.loc	2 27 6                  // /mnt/disk/jenkins/workspace/chipset_10.1.0_release_5G/opensource/component_code/vendor/huawei/extra/build/build_script/kirin_kernel_release/kernel/block/hisi-blk-core.c:27:6
	ldr	x9, [x8, #312]
.Ltmp222:
	.loc	2 27 6 is_stmt 0        // /mnt/disk/jenkins/workspace/chipset_10.1.0_release_5G/opensource/component_code/vendor/huawei/extra/build/build_script/kirin_kernel_release/kernel/block/hisi-blk-core.c:27:6
	cbz	x9, .LBB21_7
.Ltmp223:
// %bb.1:
	//DEBUG_VALUE: is_blk_queue_support_crypto:q <- $x8
	//DEBUG_VALUE: hisi_blk_get_lld:q <- $x8
	//DEBUG_VALUE: hisi_blk_lld_inline_crypto_init_request_from_bio:req <- $x19
	//DEBUG_VALUE: hisi_blk_lld_inline_crypto_init_request_from_bio:bio <- $x20
	//DEBUG_VALUE: hisi_blk_request_init_from_bio:req <- $x19
	//DEBUG_VALUE: hisi_blk_request_init_from_bio:bio <- $x20
	.loc	2 28 14 is_stmt 1       // /mnt/disk/jenkins/workspace/chipset_10.1.0_release_5G/opensource/component_code/vendor/huawei/extra/build/build_script/kirin_kernel_release/kernel/block/hisi-blk-core.c:28:14
	ldr	x9, [x8, #3312]
	.loc	2 28 11 is_stmt 0       // /mnt/disk/jenkins/workspace/chipset_10.1.0_release_5G/opensource/component_code/vendor/huawei/extra/build/build_script/kirin_kernel_release/kernel/block/hisi-blk-core.c:28:11
	add	x8, x8, #1808           // =1808
.Ltmp224:
	add	x10, x9, #16            // =16
.Ltmp225:
.LBB21_2:
	//DEBUG_VALUE: hisi_blk_lld_inline_crypto_init_request_from_bio:req <- $x19
	//DEBUG_VALUE: hisi_blk_lld_inline_crypto_init_request_from_bio:bio <- $x20
	//DEBUG_VALUE: hisi_blk_request_init_from_bio:req <- $x19
	//DEBUG_VALUE: hisi_blk_request_init_from_bio:bio <- $x20
	.loc	2 0 0                   // /mnt/disk/jenkins/workspace/chipset_10.1.0_release_5G/opensource/component_code/vendor/huawei/extra/build/build_script/kirin_kernel_release/kernel/block/hisi-blk-core.c:0:0
	cmp	x9, #0                  // =0
	csel	x8, x8, x10, eq
.Ltmp226:
	//DEBUG_VALUE: is_blk_queue_support_crypto:blk_lld <- $x8
	.loc	2 170 6 is_stmt 1       // /mnt/disk/jenkins/workspace/chipset_10.1.0_release_5G/opensource/component_code/vendor/huawei/extra/build/build_script/kirin_kernel_release/kernel/block/hisi-blk-core.c:170:6
	ldrb	w8, [x8, #24]
.Ltmp227:
	tbz	w8, #4, .LBB21_6
.Ltmp228:
// %bb.3:
	//DEBUG_VALUE: hisi_blk_lld_inline_crypto_init_request_from_bio:req <- $x19
	//DEBUG_VALUE: hisi_blk_lld_inline_crypto_init_request_from_bio:bio <- $x20
	//DEBUG_VALUE: hisi_blk_request_init_from_bio:req <- $x19
	//DEBUG_VALUE: hisi_blk_request_init_from_bio:bio <- $x20
	.loc	2 171 21                // /mnt/disk/jenkins/workspace/chipset_10.1.0_release_5G/opensource/component_code/vendor/huawei/extra/build/build_script/kirin_kernel_release/kernel/block/hisi-blk-core.c:171:21
	ldr	x8, [x20, #256]
.Ltmp229:
	.loc	2 171 7 is_stmt 0       // /mnt/disk/jenkins/workspace/chipset_10.1.0_release_5G/opensource/component_code/vendor/huawei/extra/build/build_script/kirin_kernel_release/kernel/block/hisi-blk-core.c:171:7
	cbz	x8, .LBB21_6
.Ltmp230:
// %bb.4:
	//DEBUG_VALUE: hisi_blk_lld_inline_crypto_init_request_from_bio:req <- $x19
	//DEBUG_VALUE: hisi_blk_lld_inline_crypto_init_request_from_bio:bio <- $x20
	//DEBUG_VALUE: hisi_blk_request_init_from_bio:req <- $x19
	//DEBUG_VALUE: hisi_blk_request_init_from_bio:bio <- $x20
	.loc	2 172 8 is_stmt 1       // /mnt/disk/jenkins/workspace/chipset_10.1.0_release_5G/opensource/component_code/vendor/huawei/extra/build/build_script/kirin_kernel_release/kernel/block/hisi-blk-core.c:172:8
	ldr	w9, [x20, #264]
.Ltmp231:
	.loc	2 172 8 is_stmt 0       // /mnt/disk/jenkins/workspace/chipset_10.1.0_release_5G/opensource/component_code/vendor/huawei/extra/build/build_script/kirin_kernel_release/kernel/block/hisi-blk-core.c:172:8
	cmp	w9, #64                 // =64
	b.ne	.LBB21_8
.Ltmp232:
.LBB21_5:
	//DEBUG_VALUE: hisi_blk_lld_inline_crypto_init_request_from_bio:req <- $x19
	//DEBUG_VALUE: hisi_blk_lld_inline_crypto_init_request_from_bio:bio <- $x20
	//DEBUG_VALUE: hisi_blk_request_init_from_bio:req <- $x19
	//DEBUG_VALUE: hisi_blk_request_init_from_bio:bio <- $x20
	.loc	2 177 25 is_stmt 1      // /mnt/disk/jenkins/workspace/chipset_10.1.0_release_5G/opensource/component_code/vendor/huawei/extra/build/build_script/kirin_kernel_release/kernel/block/hisi-blk-core.c:177:25
	str	x8, [x19, #416]
	.loc	2 178 45                // /mnt/disk/jenkins/workspace/chipset_10.1.0_release_5G/opensource/component_code/vendor/huawei/extra/build/build_script/kirin_kernel_release/kernel/block/hisi-blk-core.c:178:45
	ldr	w8, [x20, #264]
	.loc	2 178 29 is_stmt 0      // /mnt/disk/jenkins/workspace/chipset_10.1.0_release_5G/opensource/component_code/vendor/huawei/extra/build/build_script/kirin_kernel_release/kernel/block/hisi-blk-core.c:178:29
	str	w8, [x19, #424]
	.loc	2 179 47 is_stmt 1      // /mnt/disk/jenkins/workspace/chipset_10.1.0_release_5G/opensource/component_code/vendor/huawei/extra/build/build_script/kirin_kernel_release/kernel/block/hisi-blk-core.c:179:47
	ldr	w8, [x20, #268]
	.loc	2 179 31 is_stmt 0      // /mnt/disk/jenkins/workspace/chipset_10.1.0_release_5G/opensource/component_code/vendor/huawei/extra/build/build_script/kirin_kernel_release/kernel/block/hisi-blk-core.c:179:31
	str	w8, [x19, #428]
.Ltmp233:
.LBB21_6:
	//DEBUG_VALUE: hisi_blk_request_init_from_bio:req <- $x19
	//DEBUG_VALUE: hisi_blk_request_init_from_bio:bio <- $x20
	.loc	2 580 1 is_stmt 1       // /mnt/disk/jenkins/workspace/chipset_10.1.0_release_5G/opensource/component_code/vendor/huawei/extra/build/build_script/kirin_kernel_release/kernel/block/hisi-blk-core.c:580:1
	ldp	x29, x30, [sp, #16]     // 16-byte Folded Reload
	ldp	x20, x19, [sp], #32     // 16-byte Folded Reload
.Ltmp234:
	ret
.LBB21_7:
.Ltmp235:
	//DEBUG_VALUE: is_blk_queue_support_crypto:q <- $x8
	//DEBUG_VALUE: hisi_blk_get_lld:q <- $x8
	//DEBUG_VALUE: hisi_blk_lld_inline_crypto_init_request_from_bio:req <- $x19
	//DEBUG_VALUE: hisi_blk_lld_inline_crypto_init_request_from_bio:bio <- $x20
	//DEBUG_VALUE: hisi_blk_request_init_from_bio:req <- $x19
	//DEBUG_VALUE: hisi_blk_request_init_from_bio:bio <- $x20
	.loc	2 30 14                 // /mnt/disk/jenkins/workspace/chipset_10.1.0_release_5G/opensource/component_code/vendor/huawei/extra/build/build_script/kirin_kernel_release/kernel/block/hisi-blk-core.c:30:14
	ldr	x9, [x8, #720]
	.loc	2 30 11 is_stmt 0       // /mnt/disk/jenkins/workspace/chipset_10.1.0_release_5G/opensource/component_code/vendor/huawei/extra/build/build_script/kirin_kernel_release/kernel/block/hisi-blk-core.c:30:11
	add	x8, x8, #1808           // =1808
.Ltmp236:
	add	x10, x9, #120           // =120
	b	.LBB21_2
.Ltmp237:
.LBB21_8:
	//DEBUG_VALUE: hisi_blk_lld_inline_crypto_init_request_from_bio:req <- $x19
	//DEBUG_VALUE: hisi_blk_lld_inline_crypto_init_request_from_bio:bio <- $x20
	//DEBUG_VALUE: hisi_blk_request_init_from_bio:req <- $x19
	//DEBUG_VALUE: hisi_blk_request_init_from_bio:bio <- $x20
	.loc	2 173 5 is_stmt 1       // /mnt/disk/jenkins/workspace/chipset_10.1.0_release_5G/opensource/component_code/vendor/huawei/extra/build/build_script/kirin_kernel_release/kernel/block/hisi-blk-core.c:173:5
	adrp	x0, .L.str.6
	adrp	x1, .L__func__.hisi_blk_lld_inline_crypto_init_request_from_bio
	add	x0, x0, :lo12:.L.str.6
	add	x1, x1, :lo12:.L__func__.hisi_blk_lld_inline_crypto_init_request_from_bio
	bl	printk
	.loc	2 175 5                 // /mnt/disk/jenkins/workspace/chipset_10.1.0_release_5G/opensource/component_code/vendor/huawei/extra/build/build_script/kirin_kernel_release/kernel/block/hisi-blk-core.c:175:5
	mov	w0, #35
	movk	w0, #32768, lsl #16
	mov	x1, xzr
	mov	x2, xzr
	bl	rdr_syserr_process_for_ap
.Ltmp238:
	.loc	2 177 41                // /mnt/disk/jenkins/workspace/chipset_10.1.0_release_5G/opensource/component_code/vendor/huawei/extra/build/build_script/kirin_kernel_release/kernel/block/hisi-blk-core.c:177:41
	ldr	x8, [x20, #256]
	b	.LBB21_5
.Ltmp239:
.Lfunc_end21:
	.size	hisi_blk_request_init_from_bio, .Lfunc_end21-hisi_blk_request_init_from_bio
	.cfi_endproc
                                        // -- End function
	.section	.text.hisi_blk_insert_cloned_request,"ax",@progbits
	.hidden	hisi_blk_insert_cloned_request // -- Begin function hisi_blk_insert_cloned_request
	.globl	hisi_blk_insert_cloned_request
	.p2align	2
	.type	hisi_blk_insert_cloned_request,@function
hisi_blk_insert_cloned_request:         // @hisi_blk_insert_cloned_request
.Lfunc_begin22:
	.loc	2 587 0                 // /mnt/disk/jenkins/workspace/chipset_10.1.0_release_5G/opensource/component_code/vendor/huawei/extra/build/build_script/kirin_kernel_release/kernel/block/hisi-blk-core.c:587:0
	.cfi_startproc
// %bb.0:
	stp	x29, x30, [sp, #-16]!   // 16-byte Folded Spill
	mov	x29, sp
	.cfi_def_cfa w29, 16
	.cfi_offset w30, -8
	.cfi_offset w29, -16
	//DEBUG_VALUE: hisi_blk_insert_cloned_request:q <- $x0
	//DEBUG_VALUE: hisi_blk_insert_cloned_request:q <- $x0
	//DEBUG_VALUE: hisi_blk_insert_cloned_request:rq <- $x1
	//DEBUG_VALUE: hisi_blk_insert_cloned_request:rq <- $x1
	//DEBUG_VALUE: hisi_blk_insert_cloned_request:rq <- $x1
	//DEBUG_VALUE: hisi_blk_insert_cloned_request:q <- $x0
.Ltmp240:
	.loc	2 588 2 prologue_end    // /mnt/disk/jenkins/workspace/chipset_10.1.0_release_5G/opensource/component_code/vendor/huawei/extra/build/build_script/kirin_kernel_release/kernel/block/hisi-blk-core.c:588:2
	bl	hisi_blk_busy_idle_check_request_bio
.Ltmp241:
	.loc	2 589 1                 // /mnt/disk/jenkins/workspace/chipset_10.1.0_release_5G/opensource/component_code/vendor/huawei/extra/build/build_script/kirin_kernel_release/kernel/block/hisi-blk-core.c:589:1
	ldp	x29, x30, [sp], #16     // 16-byte Folded Reload
	ret
.Ltmp242:
.Lfunc_end22:
	.size	hisi_blk_insert_cloned_request, .Lfunc_end22-hisi_blk_insert_cloned_request
	.cfi_endproc
                                        // -- End function
	.section	.text.hisi_blk_request_execute_nowait,"ax",@progbits
	.hidden	hisi_blk_request_execute_nowait // -- Begin function hisi_blk_request_execute_nowait
	.globl	hisi_blk_request_execute_nowait
	.p2align	2
	.type	hisi_blk_request_execute_nowait,@function
hisi_blk_request_execute_nowait:        // @hisi_blk_request_execute_nowait
.Lfunc_begin23:
	.loc	2 597 0                 // /mnt/disk/jenkins/workspace/chipset_10.1.0_release_5G/opensource/component_code/vendor/huawei/extra/build/build_script/kirin_kernel_release/kernel/block/hisi-blk-core.c:597:0
	.cfi_startproc
// %bb.0:
	stp	x29, x30, [sp, #-16]!   // 16-byte Folded Spill
	mov	x29, sp
	.cfi_def_cfa w29, 16
	.cfi_offset w30, -8
	.cfi_offset w29, -16
	//DEBUG_VALUE: hisi_blk_request_execute_nowait:q <- $x0
	//DEBUG_VALUE: hisi_blk_request_execute_nowait:bd_disk <- $x1
	//DEBUG_VALUE: hisi_blk_request_execute_nowait:rq <- $x2
	//DEBUG_VALUE: hisi_blk_request_execute_nowait:at_head <- $w3
	//DEBUG_VALUE: hisi_blk_request_execute_nowait:done <- $x4
	mov	x1, x2
.Ltmp243:
	//DEBUG_VALUE: hisi_blk_request_execute_nowait:done <- $x4
	//DEBUG_VALUE: hisi_blk_request_execute_nowait:rq <- $x1
	//DEBUG_VALUE: hisi_blk_request_execute_nowait:q <- $x0
	//DEBUG_VALUE: hisi_blk_request_execute_nowait:rq <- $x1
	//DEBUG_VALUE: hisi_blk_request_execute_nowait:q <- $x0
	.loc	2 598 2 prologue_end    // /mnt/disk/jenkins/workspace/chipset_10.1.0_release_5G/opensource/component_code/vendor/huawei/extra/build/build_script/kirin_kernel_release/kernel/block/hisi-blk-core.c:598:2
	mov	x2, x4
.Ltmp244:
	//DEBUG_VALUE: hisi_blk_request_execute_nowait:done <- $x2
	bl	hisi_blk_busy_idle_check_execute_request
.Ltmp245:
	.loc	2 599 1                 // /mnt/disk/jenkins/workspace/chipset_10.1.0_release_5G/opensource/component_code/vendor/huawei/extra/build/build_script/kirin_kernel_release/kernel/block/hisi-blk-core.c:599:1
	ldp	x29, x30, [sp], #16     // 16-byte Folded Reload
	ret
.Ltmp246:
.Lfunc_end23:
	.size	hisi_blk_request_execute_nowait, .Lfunc_end23-hisi_blk_request_execute_nowait
	.cfi_endproc
                                        // -- End function
	.section	.text.hisi_blk_mq_rq_ctx_init,"ax",@progbits
	.hidden	hisi_blk_mq_rq_ctx_init // -- Begin function hisi_blk_mq_rq_ctx_init
	.globl	hisi_blk_mq_rq_ctx_init
	.p2align	2
	.type	hisi_blk_mq_rq_ctx_init,@function
hisi_blk_mq_rq_ctx_init:                // @hisi_blk_mq_rq_ctx_init
.Lfunc_begin24:
	.loc	2 606 0                 // /mnt/disk/jenkins/workspace/chipset_10.1.0_release_5G/opensource/component_code/vendor/huawei/extra/build/build_script/kirin_kernel_release/kernel/block/hisi-blk-core.c:606:0
	.cfi_startproc
// %bb.0:
	str	x19, [sp, #-32]!        // 8-byte Folded Spill
	stp	x29, x30, [sp, #16]     // 16-byte Folded Spill
	add	x29, sp, #16            // =16
	.cfi_def_cfa w29, 16
	.cfi_offset w30, -8
	.cfi_offset w29, -16
	.cfi_offset w19, -32
	//DEBUG_VALUE: hisi_blk_mq_rq_ctx_init:q <- $x0
	//DEBUG_VALUE: hisi_blk_mq_rq_ctx_init:ctx <- $x1
	//DEBUG_VALUE: hisi_blk_mq_rq_ctx_init:rq <- $x2
.Ltmp247:
	//DEBUG_VALUE: hisi_blk_lld_inline_crypto_req_init:rq <- $x2
	.loc	2 607 9 prologue_end    // /mnt/disk/jenkins/workspace/chipset_10.1.0_release_5G/opensource/component_code/vendor/huawei/extra/build/build_script/kirin_kernel_release/kernel/block/hisi-blk-core.c:607:9
	ldr	x8, [x0, #1800]
	//DEBUG_VALUE: hisi_blk_mq_rq_ctx_init:ctx <- $x1
	mov	x19, x2
.Ltmp248:
	//DEBUG_VALUE: hisi_blk_lld_inline_crypto_req_init:rq <- $x19
	//DEBUG_VALUE: hisi_blk_mq_rq_ctx_init:rq <- $x19
	//DEBUG_VALUE: hisi_blk_mq_rq_ctx_init:q <- $x0
	.loc	2 607 24 is_stmt 0      // /mnt/disk/jenkins/workspace/chipset_10.1.0_release_5G/opensource/component_code/vendor/huawei/extra/build/build_script/kirin_kernel_release/kernel/block/hisi-blk-core.c:607:24
	cbz	x8, .LBB24_3
.Ltmp249:
// %bb.1:
	//DEBUG_VALUE: hisi_blk_mq_rq_ctx_init:rq <- $x19
	//DEBUG_VALUE: hisi_blk_mq_rq_ctx_init:ctx <- $x1
	//DEBUG_VALUE: hisi_blk_mq_rq_ctx_init:q <- $x0
	.loc	2 607 46                // /mnt/disk/jenkins/workspace/chipset_10.1.0_release_5G/opensource/component_code/vendor/huawei/extra/build/build_script/kirin_kernel_release/kernel/block/hisi-blk-core.c:607:46
	ldr	x8, [x8, #32]
.Ltmp250:
	.loc	2 607 6                 // /mnt/disk/jenkins/workspace/chipset_10.1.0_release_5G/opensource/component_code/vendor/huawei/extra/build/build_script/kirin_kernel_release/kernel/block/hisi-blk-core.c:607:6
	cbz	x8, .LBB24_3
.Ltmp251:
// %bb.2:
	//DEBUG_VALUE: hisi_blk_mq_rq_ctx_init:rq <- $x19
	//DEBUG_VALUE: hisi_blk_mq_rq_ctx_init:ctx <- $x1
	//DEBUG_VALUE: hisi_blk_mq_rq_ctx_init:q <- $x0
	.loc	2 608 13 is_stmt 1      // /mnt/disk/jenkins/workspace/chipset_10.1.0_release_5G/opensource/component_code/vendor/huawei/extra/build/build_script/kirin_kernel_release/kernel/block/hisi-blk-core.c:608:13
	mov	x2, x19
	blr	x8
.Ltmp252:
	.loc	2 609 7                 // /mnt/disk/jenkins/workspace/chipset_10.1.0_release_5G/opensource/component_code/vendor/huawei/extra/build/build_script/kirin_kernel_release/kernel/block/hisi-blk-core.c:609:7
	cbnz	w0, .LBB24_4
.Ltmp253:
.LBB24_3:
	//DEBUG_VALUE: hisi_blk_mq_rq_ctx_init:rq <- $x19
	.loc	2 0 7 is_stmt 0         // /mnt/disk/jenkins/workspace/chipset_10.1.0_release_5G/opensource/component_code/vendor/huawei/extra/build/build_script/kirin_kernel_release/kernel/block/hisi-blk-core.c:0:7
	mov	x8, #-4294967296
.Ltmp254:
	.loc	2 285 22 is_stmt 1      // /mnt/disk/jenkins/workspace/chipset_10.1.0_release_5G/opensource/component_code/vendor/huawei/extra/build/build_script/kirin_kernel_release/kernel/block/hisi-blk-core.c:285:22
	stp	xzr, x8, [x19, #416]
.Ltmp255:
	.loc	2 618 1                 // /mnt/disk/jenkins/workspace/chipset_10.1.0_release_5G/opensource/component_code/vendor/huawei/extra/build/build_script/kirin_kernel_release/kernel/block/hisi-blk-core.c:618:1
	ldp	x29, x30, [sp, #16]     // 16-byte Folded Reload
	ldr	x19, [sp], #32          // 8-byte Folded Reload
.Ltmp256:
	ret
.LBB24_4:
.Ltmp257:
	//DEBUG_VALUE: hisi_blk_mq_rq_ctx_init:rq <- $x19
	.loc	2 0 0 is_stmt 0         // /mnt/disk/jenkins/workspace/chipset_10.1.0_release_5G/opensource/component_code/vendor/huawei/extra/build/build_script/kirin_kernel_release/kernel/block/hisi-blk-core.c:0:0
	mov	w2, w0
.Ltmp258:
	//DEBUG_VALUE: ret <- $w2
	.loc	2 610 4 is_stmt 1       // /mnt/disk/jenkins/workspace/chipset_10.1.0_release_5G/opensource/component_code/vendor/huawei/extra/build/build_script/kirin_kernel_release/kernel/block/hisi-blk-core.c:610:4
	adrp	x0, .L.str
	adrp	x1, .L__func__.hisi_blk_mq_rq_ctx_init
	add	x0, x0, :lo12:.L.str
	add	x1, x1, :lo12:.L__func__.hisi_blk_mq_rq_ctx_init
	bl	printk
.Ltmp259:
	.loc	2 0 4 is_stmt 0         // /mnt/disk/jenkins/workspace/chipset_10.1.0_release_5G/opensource/component_code/vendor/huawei/extra/build/build_script/kirin_kernel_release/kernel/block/hisi-blk-core.c:0:4
	b	.LBB24_3
.Ltmp260:
.Lfunc_end24:
	.size	hisi_blk_mq_rq_ctx_init, .Lfunc_end24-hisi_blk_mq_rq_ctx_init
	.cfi_endproc
                                        // -- End function
	.section	.text.hisi_blk_mq_request_start,"ax",@progbits
	.hidden	hisi_blk_mq_request_start // -- Begin function hisi_blk_mq_request_start
	.globl	hisi_blk_mq_request_start
	.p2align	2
	.type	hisi_blk_mq_request_start,@function
hisi_blk_mq_request_start:              // @hisi_blk_mq_request_start
.Lfunc_begin25:
	.loc	2 624 0 is_stmt 1       // /mnt/disk/jenkins/workspace/chipset_10.1.0_release_5G/opensource/component_code/vendor/huawei/extra/build/build_script/kirin_kernel_release/kernel/block/hisi-blk-core.c:624:0
	.cfi_startproc
// %bb.0:
	str	x19, [sp, #-32]!        // 8-byte Folded Spill
	stp	x29, x30, [sp, #16]     // 16-byte Folded Spill
	add	x29, sp, #16            // =16
	.cfi_def_cfa w29, 16
	.cfi_offset w30, -8
	.cfi_offset w29, -16
	.cfi_offset w19, -32
	//DEBUG_VALUE: hisi_blk_mq_request_start:req <- $x0
.Ltmp261:
	//DEBUG_VALUE: hisi_blk_io_speed_adj_func:req <- $x0
	//DEBUG_VALUE: blk_rq_is_passthrough:rq <- $x0
	//DEBUG_VALUE: blk_rq_is_scsi:rq <- $x0
	.loc	2 625 2 prologue_end    // /mnt/disk/jenkins/workspace/chipset_10.1.0_release_5G/opensource/component_code/vendor/huawei/extra/build/build_script/kirin_kernel_release/kernel/block/hisi-blk-core.c:625:2
	mov	w1, #5
	mov	x19, x0
.Ltmp262:
	//DEBUG_VALUE: blk_rq_is_scsi:rq <- $x19
	//DEBUG_VALUE: blk_rq_is_passthrough:rq <- $x19
	//DEBUG_VALUE: hisi_blk_io_speed_adj_func:req <- $x19
	//DEBUG_VALUE: hisi_blk_mq_request_start:req <- $x19
	bl	hisi_blk_latency_req_check
.Ltmp263:
	.loc	2 626 6                 // /mnt/disk/jenkins/workspace/chipset_10.1.0_release_5G/opensource/component_code/vendor/huawei/extra/build/build_script/kirin_kernel_release/kernel/block/hisi-blk-core.c:626:6
	ldr	x8, [x19, #64]
	mov	w10, #28570
	movk	w10, #4, lsl #16
	ldr	x9, [x8, #1552]
.Ltmp264:
	.loc	2 626 6 is_stmt 0       // /mnt/disk/jenkins/workspace/chipset_10.1.0_release_5G/opensource/component_code/vendor/huawei/extra/build/build_script/kirin_kernel_release/kernel/block/hisi-blk-core.c:626:6
	cmp	x9, x10
	b.eq	.LBB25_2
.Ltmp265:
.LBB25_1:
	//DEBUG_VALUE: hisi_blk_mq_request_start:req <- $x19
	.loc	2 629 1 is_stmt 1       // /mnt/disk/jenkins/workspace/chipset_10.1.0_release_5G/opensource/component_code/vendor/huawei/extra/build/build_script/kirin_kernel_release/kernel/block/hisi-blk-core.c:629:1
	ldp	x29, x30, [sp, #16]     // 16-byte Folded Reload
	ldr	x19, [sp], #32          // 8-byte Folded Reload
.Ltmp266:
	ret
.LBB25_2:
.Ltmp267:
	//DEBUG_VALUE: hisi_blk_mq_request_start:req <- $x19
	//DEBUG_VALUE: hisi_blk_io_speed_adj_func:req <- $x19
	//DEBUG_VALUE: blk_rq_is_passthrough:rq <- $x19
	//DEBUG_VALUE: blk_rq_is_scsi:rq <- $x19
	.loc	4 350 24                // /mnt/disk/jenkins/workspace/chipset_10.1.0_release_5G/opensource/component_code/vendor/huawei/extra/build/build_script/kirin_kernel_release/kernel/include/linux/blkdev.h:350:24
	ldrb	w9, [x19, #84]
.Ltmp268:
	.loc	4 360 28                // /mnt/disk/jenkins/workspace/chipset_10.1.0_release_5G/opensource/component_code/vendor/huawei/extra/build/build_script/kirin_kernel_release/kernel/include/linux/blkdev.h:360:28
	orr	w10, w9, #0x3
.Ltmp269:
	.loc	2 311 33                // /mnt/disk/jenkins/workspace/chipset_10.1.0_release_5G/opensource/component_code/vendor/huawei/extra/build/build_script/kirin_kernel_release/kernel/block/hisi-blk-core.c:311:33
	cmp	w10, #35                // =35
	b.eq	.LBB25_1
.Ltmp270:
// %bb.3:
	//DEBUG_VALUE: hisi_blk_mq_request_start:req <- $x19
	//DEBUG_VALUE: hisi_blk_io_speed_adj_func:req <- $x19
	.loc	2 311 42 is_stmt 0      // /mnt/disk/jenkins/workspace/chipset_10.1.0_release_5G/opensource/component_code/vendor/huawei/extra/build/build_script/kirin_kernel_release/kernel/block/hisi-blk-core.c:311:42
	ldr	w10, [x19, #104]
.Ltmp271:
	.loc	2 311 6                 // /mnt/disk/jenkins/workspace/chipset_10.1.0_release_5G/opensource/component_code/vendor/huawei/extra/build/build_script/kirin_kernel_release/kernel/block/hisi-blk-core.c:311:6
	cbz	w10, .LBB25_1
.Ltmp272:
// %bb.4:
	//DEBUG_VALUE: hisi_blk_mq_request_start:req <- $x19
	//DEBUG_VALUE: hisi_blk_io_speed_adj_func:req <- $x19
	.loc	2 313 6 is_stmt 1       // /mnt/disk/jenkins/workspace/chipset_10.1.0_release_5G/opensource/component_code/vendor/huawei/extra/build/build_script/kirin_kernel_release/kernel/block/hisi-blk-core.c:313:6
	cmp	w9, #1                  // =1
	b.ne	.LBB25_11
.Ltmp273:
// %bb.5:
	//DEBUG_VALUE: hisi_blk_mq_request_start:req <- $x19
	//DEBUG_VALUE: hisi_blk_io_speed_adj_func:req <- $x19
	.loc	2 314 31                // /mnt/disk/jenkins/workspace/chipset_10.1.0_release_5G/opensource/component_code/vendor/huawei/extra/build/build_script/kirin_kernel_release/kernel/block/hisi-blk-core.c:314:31
	cmp	w10, #32, lsl #12       // =131072
	b.hi	.LBB25_8
.Ltmp274:
// %bb.6:
	//DEBUG_VALUE: hisi_blk_mq_request_start:req <- $x19
	//DEBUG_VALUE: hisi_blk_io_speed_adj_func:req <- $x19
	.loc	2 0 0 is_stmt 0         // /mnt/disk/jenkins/workspace/chipset_10.1.0_release_5G/opensource/component_code/vendor/huawei/extra/build/build_script/kirin_kernel_release/kernel/block/hisi-blk-core.c:0:0
	ldr	x0, [x8, #1736]
	.loc	2 314 31                // /mnt/disk/jenkins/workspace/chipset_10.1.0_release_5G/opensource/component_code/vendor/huawei/extra/build/build_script/kirin_kernel_release/kernel/block/hisi-blk-core.c:314:31
	cbz	x0, .LBB25_8
.Ltmp275:
// %bb.7:
	//DEBUG_VALUE: hisi_blk_mq_request_start:req <- $x19
	//DEBUG_VALUE: hisi_blk_io_speed_adj_func:req <- $x19
	.loc	2 316 4 is_stmt 1       // /mnt/disk/jenkins/workspace/chipset_10.1.0_release_5G/opensource/component_code/vendor/huawei/extra/build/build_script/kirin_kernel_release/kernel/block/hisi-blk-core.c:316:4
	bl	__udelay
.Ltmp276:
	.loc	2 317 12                // /mnt/disk/jenkins/workspace/chipset_10.1.0_release_5G/opensource/component_code/vendor/huawei/extra/build/build_script/kirin_kernel_release/kernel/block/hisi-blk-core.c:317:12
	ldr	x8, [x19, #64]
.Ltmp277:
.LBB25_8:
	//DEBUG_VALUE: hisi_blk_mq_request_start:req <- $x19
	//DEBUG_VALUE: hisi_blk_io_speed_adj_func:req <- $x19
	.loc	2 317 26 is_stmt 0      // /mnt/disk/jenkins/workspace/chipset_10.1.0_release_5G/opensource/component_code/vendor/huawei/extra/build/build_script/kirin_kernel_release/kernel/block/hisi-blk-core.c:317:26
	ldr	x0, [x8, #1720]
	.loc	2 317 31                // /mnt/disk/jenkins/workspace/chipset_10.1.0_release_5G/opensource/component_code/vendor/huawei/extra/build/build_script/kirin_kernel_release/kernel/block/hisi-blk-core.c:317:31
	cbz	x0, .LBB25_11
.Ltmp278:
// %bb.9:
	//DEBUG_VALUE: hisi_blk_mq_request_start:req <- $x19
	//DEBUG_VALUE: hisi_blk_io_speed_adj_func:req <- $x19
	.loc	2 318 10 is_stmt 1      // /mnt/disk/jenkins/workspace/chipset_10.1.0_release_5G/opensource/component_code/vendor/huawei/extra/build/build_script/kirin_kernel_release/kernel/block/hisi-blk-core.c:318:10
	ldr	w8, [x19, #104]
.Ltmp279:
	.loc	2 317 7                 // /mnt/disk/jenkins/workspace/chipset_10.1.0_release_5G/opensource/component_code/vendor/huawei/extra/build/build_script/kirin_kernel_release/kernel/block/hisi-blk-core.c:317:7
	cmp	w8, #32, lsl #12        // =131072
	b.ls	.LBB25_11
.Ltmp280:
// %bb.10:
	//DEBUG_VALUE: hisi_blk_mq_request_start:req <- $x19
	//DEBUG_VALUE: hisi_blk_io_speed_adj_func:req <- $x19
	.loc	2 319 4                 // /mnt/disk/jenkins/workspace/chipset_10.1.0_release_5G/opensource/component_code/vendor/huawei/extra/build/build_script/kirin_kernel_release/kernel/block/hisi-blk-core.c:319:4
	bl	__udelay
.Ltmp281:
.LBB25_11:
	//DEBUG_VALUE: hisi_blk_mq_request_start:req <- $x19
	//DEBUG_VALUE: hisi_blk_io_speed_adj_func:req <- $x19
	.loc	2 321 6                 // /mnt/disk/jenkins/workspace/chipset_10.1.0_release_5G/opensource/component_code/vendor/huawei/extra/build/build_script/kirin_kernel_release/kernel/block/hisi-blk-core.c:321:6
	ldrb	w8, [x19, #84]
	cbnz	w8, .LBB25_1
.Ltmp282:
// %bb.12:
	//DEBUG_VALUE: hisi_blk_mq_request_start:req <- $x19
	//DEBUG_VALUE: hisi_blk_io_speed_adj_func:req <- $x19
	.loc	2 322 12                // /mnt/disk/jenkins/workspace/chipset_10.1.0_release_5G/opensource/component_code/vendor/huawei/extra/build/build_script/kirin_kernel_release/kernel/block/hisi-blk-core.c:322:12
	ldr	x8, [x19, #64]
	.loc	2 322 26 is_stmt 0      // /mnt/disk/jenkins/workspace/chipset_10.1.0_release_5G/opensource/component_code/vendor/huawei/extra/build/build_script/kirin_kernel_release/kernel/block/hisi-blk-core.c:322:26
	ldr	x0, [x8, #1728]
	.loc	2 322 31                // /mnt/disk/jenkins/workspace/chipset_10.1.0_release_5G/opensource/component_code/vendor/huawei/extra/build/build_script/kirin_kernel_release/kernel/block/hisi-blk-core.c:322:31
	cbz	x0, .LBB25_15
.Ltmp283:
// %bb.13:
	//DEBUG_VALUE: hisi_blk_mq_request_start:req <- $x19
	//DEBUG_VALUE: hisi_blk_io_speed_adj_func:req <- $x19
	.loc	2 323 10 is_stmt 1      // /mnt/disk/jenkins/workspace/chipset_10.1.0_release_5G/opensource/component_code/vendor/huawei/extra/build/build_script/kirin_kernel_release/kernel/block/hisi-blk-core.c:323:10
	ldr	w9, [x19, #104]
.Ltmp284:
	.loc	2 322 7                 // /mnt/disk/jenkins/workspace/chipset_10.1.0_release_5G/opensource/component_code/vendor/huawei/extra/build/build_script/kirin_kernel_release/kernel/block/hisi-blk-core.c:322:7
	cmp	w9, #32, lsl #12        // =131072
	b.hi	.LBB25_15
.Ltmp285:
// %bb.14:
	//DEBUG_VALUE: hisi_blk_mq_request_start:req <- $x19
	//DEBUG_VALUE: hisi_blk_io_speed_adj_func:req <- $x19
	.loc	2 324 4                 // /mnt/disk/jenkins/workspace/chipset_10.1.0_release_5G/opensource/component_code/vendor/huawei/extra/build/build_script/kirin_kernel_release/kernel/block/hisi-blk-core.c:324:4
	bl	__udelay
.Ltmp286:
	.loc	2 325 12                // /mnt/disk/jenkins/workspace/chipset_10.1.0_release_5G/opensource/component_code/vendor/huawei/extra/build/build_script/kirin_kernel_release/kernel/block/hisi-blk-core.c:325:12
	ldr	x8, [x19, #64]
.Ltmp287:
.LBB25_15:
	//DEBUG_VALUE: hisi_blk_mq_request_start:req <- $x19
	//DEBUG_VALUE: hisi_blk_io_speed_adj_func:req <- $x19
	.loc	2 325 26 is_stmt 0      // /mnt/disk/jenkins/workspace/chipset_10.1.0_release_5G/opensource/component_code/vendor/huawei/extra/build/build_script/kirin_kernel_release/kernel/block/hisi-blk-core.c:325:26
	ldr	x0, [x8, #1712]
	.loc	2 325 31                // /mnt/disk/jenkins/workspace/chipset_10.1.0_release_5G/opensource/component_code/vendor/huawei/extra/build/build_script/kirin_kernel_release/kernel/block/hisi-blk-core.c:325:31
	cbz	x0, .LBB25_1
.Ltmp288:
// %bb.16:
	//DEBUG_VALUE: hisi_blk_mq_request_start:req <- $x19
	//DEBUG_VALUE: hisi_blk_io_speed_adj_func:req <- $x19
	.loc	2 326 10 is_stmt 1      // /mnt/disk/jenkins/workspace/chipset_10.1.0_release_5G/opensource/component_code/vendor/huawei/extra/build/build_script/kirin_kernel_release/kernel/block/hisi-blk-core.c:326:10
	ldr	w8, [x19, #104]
.Ltmp289:
	.loc	2 325 7                 // /mnt/disk/jenkins/workspace/chipset_10.1.0_release_5G/opensource/component_code/vendor/huawei/extra/build/build_script/kirin_kernel_release/kernel/block/hisi-blk-core.c:325:7
	cmp	w8, #32, lsl #12        // =131072
	b.ls	.LBB25_1
.Ltmp290:
// %bb.17:
	//DEBUG_VALUE: hisi_blk_mq_request_start:req <- $x19
	//DEBUG_VALUE: hisi_blk_io_speed_adj_func:req <- $x19
	.loc	2 327 4                 // /mnt/disk/jenkins/workspace/chipset_10.1.0_release_5G/opensource/component_code/vendor/huawei/extra/build/build_script/kirin_kernel_release/kernel/block/hisi-blk-core.c:327:4
	bl	__udelay
	b	.LBB25_1
.Ltmp291:
.Lfunc_end25:
	.size	hisi_blk_mq_request_start, .Lfunc_end25-hisi_blk_mq_request_start
	.cfi_endproc
                                        // -- End function
	.section	.text.hisi_blk_request_start,"ax",@progbits
	.hidden	hisi_blk_request_start  // -- Begin function hisi_blk_request_start
	.globl	hisi_blk_request_start
	.p2align	2
	.type	hisi_blk_request_start,@function
hisi_blk_request_start:                 // @hisi_blk_request_start
.Lfunc_begin26:
	.loc	2 635 0                 // /mnt/disk/jenkins/workspace/chipset_10.1.0_release_5G/opensource/component_code/vendor/huawei/extra/build/build_script/kirin_kernel_release/kernel/block/hisi-blk-core.c:635:0
	.cfi_startproc
// %bb.0:
	stp	x29, x30, [sp, #-16]!   // 16-byte Folded Spill
	mov	x29, sp
	.cfi_def_cfa w29, 16
	.cfi_offset w30, -8
	.cfi_offset w29, -16
	//DEBUG_VALUE: hisi_blk_request_start:req <- $x0
	//DEBUG_VALUE: hisi_blk_request_start:req <- $x0
.Ltmp292:
	.loc	2 636 2 prologue_end    // /mnt/disk/jenkins/workspace/chipset_10.1.0_release_5G/opensource/component_code/vendor/huawei/extra/build/build_script/kirin_kernel_release/kernel/block/hisi-blk-core.c:636:2
	mov	w1, #5
	//DEBUG_VALUE: hisi_blk_request_start:req <- $x0
	bl	hisi_blk_latency_req_check
.Ltmp293:
	.loc	2 637 1                 // /mnt/disk/jenkins/workspace/chipset_10.1.0_release_5G/opensource/component_code/vendor/huawei/extra/build/build_script/kirin_kernel_release/kernel/block/hisi-blk-core.c:637:1
	ldp	x29, x30, [sp], #16     // 16-byte Folded Reload
	ret
.Ltmp294:
.Lfunc_end26:
	.size	hisi_blk_request_start, .Lfunc_end26-hisi_blk_request_start
	.cfi_endproc
                                        // -- End function
	.section	.text.hisi_blk_requeue_request,"ax",@progbits
	.hidden	hisi_blk_requeue_request // -- Begin function hisi_blk_requeue_request
	.globl	hisi_blk_requeue_request
	.p2align	2
	.type	hisi_blk_requeue_request,@function
hisi_blk_requeue_request:               // @hisi_blk_requeue_request
.Lfunc_begin27:
	.loc	2 643 0                 // /mnt/disk/jenkins/workspace/chipset_10.1.0_release_5G/opensource/component_code/vendor/huawei/extra/build/build_script/kirin_kernel_release/kernel/block/hisi-blk-core.c:643:0
	.cfi_startproc
// %bb.0:
	stp	x29, x30, [sp, #-16]!   // 16-byte Folded Spill
	mov	x29, sp
	.cfi_def_cfa w29, 16
	.cfi_offset w30, -8
	.cfi_offset w29, -16
	//DEBUG_VALUE: hisi_blk_requeue_request:q <- $x0
	//DEBUG_VALUE: hisi_blk_requeue_request:rq <- $x1
	mov	x0, x1
.Ltmp295:
	//DEBUG_VALUE: hisi_blk_requeue_request:rq <- $x0
	.loc	2 644 2 prologue_end    // /mnt/disk/jenkins/workspace/chipset_10.1.0_release_5G/opensource/component_code/vendor/huawei/extra/build/build_script/kirin_kernel_release/kernel/block/hisi-blk-core.c:644:2
	mov	w1, #11
	//DEBUG_VALUE: hisi_blk_requeue_request:rq <- $x0
	bl	hisi_blk_latency_req_check
.Ltmp296:
	.loc	2 645 1                 // /mnt/disk/jenkins/workspace/chipset_10.1.0_release_5G/opensource/component_code/vendor/huawei/extra/build/build_script/kirin_kernel_release/kernel/block/hisi-blk-core.c:645:1
	ldp	x29, x30, [sp], #16     // 16-byte Folded Reload
	ret
.Ltmp297:
.Lfunc_end27:
	.size	hisi_blk_requeue_request, .Lfunc_end27-hisi_blk_requeue_request
	.cfi_endproc
                                        // -- End function
	.section	.text.hisi_blk_request_update,"ax",@progbits
	.hidden	hisi_blk_request_update // -- Begin function hisi_blk_request_update
	.globl	hisi_blk_request_update
	.p2align	2
	.type	hisi_blk_request_update,@function
hisi_blk_request_update:                // @hisi_blk_request_update
.Lfunc_begin28:
	.loc	2 652 0                 // /mnt/disk/jenkins/workspace/chipset_10.1.0_release_5G/opensource/component_code/vendor/huawei/extra/build/build_script/kirin_kernel_release/kernel/block/hisi-blk-core.c:652:0
	.cfi_startproc
// %bb.0:
	str	x19, [sp, #-32]!        // 8-byte Folded Spill
	stp	x29, x30, [sp, #16]     // 16-byte Folded Spill
	add	x29, sp, #16            // =16
	.cfi_def_cfa w29, 16
	.cfi_offset w30, -8
	.cfi_offset w29, -16
	.cfi_offset w19, -32
	//DEBUG_VALUE: hisi_blk_request_update:req <- $x0
	//DEBUG_VALUE: hisi_blk_request_update:error <- $w1
	//DEBUG_VALUE: hisi_blk_request_update:nr_bytes <- $w2
.Ltmp298:
	.loc	2 653 50 prologue_end   // /mnt/disk/jenkins/workspace/chipset_10.1.0_release_5G/opensource/component_code/vendor/huawei/extra/build/build_script/kirin_kernel_release/kernel/block/hisi-blk-core.c:653:50
	ldr	x8, [x0, #64]
.Ltmp299:
	//DEBUG_VALUE: hisi_blk_get_lld:q <- $x8
	.loc	2 0 50 is_stmt 0        // /mnt/disk/jenkins/workspace/chipset_10.1.0_release_5G/opensource/component_code/vendor/huawei/extra/build/build_script/kirin_kernel_release/kernel/block/hisi-blk-core.c:0:50
	mov	x19, x0
	//DEBUG_VALUE: hisi_blk_request_update:nr_bytes <- $w2
.Ltmp300:
	//DEBUG_VALUE: hisi_blk_request_update:error <- undef
	//DEBUG_VALUE: hisi_blk_request_update:req <- $x19
	.loc	2 27 6 is_stmt 1        // /mnt/disk/jenkins/workspace/chipset_10.1.0_release_5G/opensource/component_code/vendor/huawei/extra/build/build_script/kirin_kernel_release/kernel/block/hisi-blk-core.c:27:6
	ldr	x9, [x8, #312]
.Ltmp301:
	//DEBUG_VALUE: hisi_blk_request_update:error <- $w1
	.loc	2 27 6 is_stmt 0        // /mnt/disk/jenkins/workspace/chipset_10.1.0_release_5G/opensource/component_code/vendor/huawei/extra/build/build_script/kirin_kernel_release/kernel/block/hisi-blk-core.c:27:6
	cbz	x9, .LBB28_9
.Ltmp302:
// %bb.1:
	//DEBUG_VALUE: hisi_blk_request_update:req <- $x19
	//DEBUG_VALUE: hisi_blk_get_lld:q <- $x8
	//DEBUG_VALUE: hisi_blk_request_update:nr_bytes <- $w2
	//DEBUG_VALUE: hisi_blk_request_update:error <- $w1
	.loc	2 28 14 is_stmt 1       // /mnt/disk/jenkins/workspace/chipset_10.1.0_release_5G/opensource/component_code/vendor/huawei/extra/build/build_script/kirin_kernel_release/kernel/block/hisi-blk-core.c:28:14
	ldr	x9, [x8, #3312]
	.loc	2 28 11 is_stmt 0       // /mnt/disk/jenkins/workspace/chipset_10.1.0_release_5G/opensource/component_code/vendor/huawei/extra/build/build_script/kirin_kernel_release/kernel/block/hisi-blk-core.c:28:11
	add	x8, x8, #1808           // =1808
.Ltmp303:
	add	x10, x9, #16            // =16
.Ltmp304:
.LBB28_2:
	//DEBUG_VALUE: hisi_blk_request_update:req <- $x19
	//DEBUG_VALUE: hisi_blk_request_update:nr_bytes <- $w2
	//DEBUG_VALUE: hisi_blk_request_update:error <- $w1
	.loc	2 0 0                   // /mnt/disk/jenkins/workspace/chipset_10.1.0_release_5G/opensource/component_code/vendor/huawei/extra/build/build_script/kirin_kernel_release/kernel/block/hisi-blk-core.c:0:0
	cmp	x9, #0                  // =0
.Ltmp305:
	.loc	2 655 6 is_stmt 1       // /mnt/disk/jenkins/workspace/chipset_10.1.0_release_5G/opensource/component_code/vendor/huawei/extra/build/build_script/kirin_kernel_release/kernel/block/hisi-blk-core.c:655:6
	ldrb	w9, [x19, #84]
.Ltmp306:
	.loc	2 0 0 is_stmt 0         // /mnt/disk/jenkins/workspace/chipset_10.1.0_release_5G/opensource/component_code/vendor/huawei/extra/build/build_script/kirin_kernel_release/kernel/block/hisi-blk-core.c:0:0
	csel	x8, x8, x10, eq
.Ltmp307:
	//DEBUG_VALUE: hisi_blk_request_update:lld <- $x8
	.loc	2 655 6                 // /mnt/disk/jenkins/workspace/chipset_10.1.0_release_5G/opensource/component_code/vendor/huawei/extra/build/build_script/kirin_kernel_release/kernel/block/hisi-blk-core.c:655:6
	cmp	w9, #3                  // =3
	b.eq	.LBB28_7
.Ltmp308:
// %bb.3:
	//DEBUG_VALUE: hisi_blk_request_update:lld <- $x8
	//DEBUG_VALUE: hisi_blk_request_update:req <- $x19
	//DEBUG_VALUE: hisi_blk_request_update:nr_bytes <- $w2
	//DEBUG_VALUE: hisi_blk_request_update:error <- $w1
	.loc	2 658 6 is_stmt 1       // /mnt/disk/jenkins/workspace/chipset_10.1.0_release_5G/opensource/component_code/vendor/huawei/extra/build/build_script/kirin_kernel_release/kernel/block/hisi-blk-core.c:658:6
	cmp	w9, #1                  // =1
	b.eq	.LBB28_8
.Ltmp309:
.LBB28_4:
	//DEBUG_VALUE: hisi_blk_request_update:lld <- $x8
	//DEBUG_VALUE: hisi_blk_request_update:req <- $x19
	//DEBUG_VALUE: hisi_blk_request_update:nr_bytes <- $w2
	//DEBUG_VALUE: hisi_blk_request_update:error <- $w1
	.loc	2 661 6                 // /mnt/disk/jenkins/workspace/chipset_10.1.0_release_5G/opensource/component_code/vendor/huawei/extra/build/build_script/kirin_kernel_release/kernel/block/hisi-blk-core.c:661:6
	cmp	w9, #2                  // =2
	b.ne	.LBB28_6
.Ltmp310:
.LBB28_5:
	//DEBUG_VALUE: hisi_blk_request_update:lld <- $x8
	//DEBUG_VALUE: hisi_blk_request_update:req <- $x19
	//DEBUG_VALUE: hisi_blk_request_update:nr_bytes <- $w2
	//DEBUG_VALUE: hisi_blk_request_update:error <- $w1
	.loc	2 662 30                // /mnt/disk/jenkins/workspace/chipset_10.1.0_release_5G/opensource/component_code/vendor/huawei/extra/build/build_script/kirin_kernel_release/kernel/block/hisi-blk-core.c:662:30
	and	w1, w1, #0xff
.Ltmp311:
	.loc	2 662 3 is_stmt 0       // /mnt/disk/jenkins/workspace/chipset_10.1.0_release_5G/opensource/component_code/vendor/huawei/extra/build/build_script/kirin_kernel_release/kernel/block/hisi-blk-core.c:662:3
	mov	x0, x19
	bl	hisi_blk_flush_update
.Ltmp312:
.LBB28_6:
	//DEBUG_VALUE: hisi_blk_request_update:req <- $x19
	.loc	2 664 2 is_stmt 1       // /mnt/disk/jenkins/workspace/chipset_10.1.0_release_5G/opensource/component_code/vendor/huawei/extra/build/build_script/kirin_kernel_release/kernel/block/hisi-blk-core.c:664:2
	mov	w1, #13
	mov	x0, x19
	bl	hisi_blk_latency_req_check
	.loc	2 665 1                 // /mnt/disk/jenkins/workspace/chipset_10.1.0_release_5G/opensource/component_code/vendor/huawei/extra/build/build_script/kirin_kernel_release/kernel/block/hisi-blk-core.c:665:1
	ldp	x29, x30, [sp, #16]     // 16-byte Folded Reload
	ldr	x19, [sp], #32          // 8-byte Folded Reload
.Ltmp313:
	ret
.LBB28_7:
.Ltmp314:
	//DEBUG_VALUE: hisi_blk_request_update:lld <- $x8
	//DEBUG_VALUE: hisi_blk_request_update:req <- $x19
	//DEBUG_VALUE: hisi_blk_request_update:nr_bytes <- $w2
	//DEBUG_VALUE: hisi_blk_request_update:error <- $w1
	.loc	2 656 20                // /mnt/disk/jenkins/workspace/chipset_10.1.0_release_5G/opensource/component_code/vendor/huawei/extra/build/build_script/kirin_kernel_release/kernel/block/hisi-blk-core.c:656:20
	ldr	x9, [x8, #904]
	add	x9, x9, w2, uxtw
	str	x9, [x8, #904]
.Ltmp315:
	.loc	2 658 6                 // /mnt/disk/jenkins/workspace/chipset_10.1.0_release_5G/opensource/component_code/vendor/huawei/extra/build/build_script/kirin_kernel_release/kernel/block/hisi-blk-core.c:658:6
	ldrb	w9, [x19, #84]
.Ltmp316:
	.loc	2 658 6 is_stmt 0       // /mnt/disk/jenkins/workspace/chipset_10.1.0_release_5G/opensource/component_code/vendor/huawei/extra/build/build_script/kirin_kernel_release/kernel/block/hisi-blk-core.c:658:6
	cmp	w9, #1                  // =1
	b.ne	.LBB28_4
.Ltmp317:
.LBB28_8:
	//DEBUG_VALUE: hisi_blk_request_update:lld <- $x8
	//DEBUG_VALUE: hisi_blk_request_update:req <- $x19
	//DEBUG_VALUE: hisi_blk_request_update:nr_bytes <- $w2
	//DEBUG_VALUE: hisi_blk_request_update:error <- $w1
	.loc	2 659 18 is_stmt 1      // /mnt/disk/jenkins/workspace/chipset_10.1.0_release_5G/opensource/component_code/vendor/huawei/extra/build/build_script/kirin_kernel_release/kernel/block/hisi-blk-core.c:659:18
	ldr	x9, [x8, #896]
	add	x9, x9, w2, uxtw
	str	x9, [x8, #896]
.Ltmp318:
	.loc	2 661 6                 // /mnt/disk/jenkins/workspace/chipset_10.1.0_release_5G/opensource/component_code/vendor/huawei/extra/build/build_script/kirin_kernel_release/kernel/block/hisi-blk-core.c:661:6
	ldrb	w9, [x19, #84]
.Ltmp319:
	.loc	2 661 6 is_stmt 0       // /mnt/disk/jenkins/workspace/chipset_10.1.0_release_5G/opensource/component_code/vendor/huawei/extra/build/build_script/kirin_kernel_release/kernel/block/hisi-blk-core.c:661:6
	cmp	w9, #2                  // =2
	b.eq	.LBB28_5
	b	.LBB28_6
.Ltmp320:
.LBB28_9:
	//DEBUG_VALUE: hisi_blk_request_update:req <- $x19
	//DEBUG_VALUE: hisi_blk_get_lld:q <- $x8
	//DEBUG_VALUE: hisi_blk_request_update:nr_bytes <- $w2
	//DEBUG_VALUE: hisi_blk_request_update:error <- $w1
	.loc	2 30 14 is_stmt 1       // /mnt/disk/jenkins/workspace/chipset_10.1.0_release_5G/opensource/component_code/vendor/huawei/extra/build/build_script/kirin_kernel_release/kernel/block/hisi-blk-core.c:30:14
	ldr	x9, [x8, #720]
	.loc	2 30 11 is_stmt 0       // /mnt/disk/jenkins/workspace/chipset_10.1.0_release_5G/opensource/component_code/vendor/huawei/extra/build/build_script/kirin_kernel_release/kernel/block/hisi-blk-core.c:30:11
	add	x8, x8, #1808           // =1808
.Ltmp321:
	add	x10, x9, #120           // =120
	b	.LBB28_2
.Ltmp322:
.Lfunc_end28:
	.size	hisi_blk_request_update, .Lfunc_end28-hisi_blk_request_update
	.cfi_endproc
                                        // -- End function
	.section	.text.hisi_blk_mq_request_free,"ax",@progbits
	.hidden	hisi_blk_mq_request_free // -- Begin function hisi_blk_mq_request_free
	.globl	hisi_blk_mq_request_free
	.p2align	2
	.type	hisi_blk_mq_request_free,@function
hisi_blk_mq_request_free:               // @hisi_blk_mq_request_free
.Lfunc_begin29:
	.loc	2 671 0 is_stmt 1       // /mnt/disk/jenkins/workspace/chipset_10.1.0_release_5G/opensource/component_code/vendor/huawei/extra/build/build_script/kirin_kernel_release/kernel/block/hisi-blk-core.c:671:0
	.cfi_startproc
// %bb.0:
	stp	x29, x30, [sp, #-16]!   // 16-byte Folded Spill
	mov	x29, sp
	.cfi_def_cfa w29, 16
	.cfi_offset w30, -8
	.cfi_offset w29, -16
	//DEBUG_VALUE: hisi_blk_mq_request_free:q <- $x0
	//DEBUG_VALUE: hisi_blk_mq_request_free:rq <- $x1
	mov	x0, x1
.Ltmp323:
	//DEBUG_VALUE: hisi_blk_mq_request_free:rq <- $x0
	.loc	2 672 2 prologue_end    // /mnt/disk/jenkins/workspace/chipset_10.1.0_release_5G/opensource/component_code/vendor/huawei/extra/build/build_script/kirin_kernel_release/kernel/block/hisi-blk-core.c:672:2
	orr	w1, wzr, #0xe
	//DEBUG_VALUE: hisi_blk_mq_request_free:rq <- $x0
	bl	hisi_blk_latency_req_check
.Ltmp324:
	.loc	2 673 1                 // /mnt/disk/jenkins/workspace/chipset_10.1.0_release_5G/opensource/component_code/vendor/huawei/extra/build/build_script/kirin_kernel_release/kernel/block/hisi-blk-core.c:673:1
	ldp	x29, x30, [sp], #16     // 16-byte Folded Reload
	ret
.Ltmp325:
.Lfunc_end29:
	.size	hisi_blk_mq_request_free, .Lfunc_end29-hisi_blk_mq_request_free
	.cfi_endproc
                                        // -- End function
	.section	.text.hisi_blk_request_put,"ax",@progbits
	.hidden	hisi_blk_request_put    // -- Begin function hisi_blk_request_put
	.globl	hisi_blk_request_put
	.p2align	2
	.type	hisi_blk_request_put,@function
hisi_blk_request_put:                   // @hisi_blk_request_put
.Lfunc_begin30:
	.loc	2 679 0                 // /mnt/disk/jenkins/workspace/chipset_10.1.0_release_5G/opensource/component_code/vendor/huawei/extra/build/build_script/kirin_kernel_release/kernel/block/hisi-blk-core.c:679:0
	.cfi_startproc
// %bb.0:
	stp	x29, x30, [sp, #-16]!   // 16-byte Folded Spill
	mov	x29, sp
	.cfi_def_cfa w29, 16
	.cfi_offset w30, -8
	.cfi_offset w29, -16
	//DEBUG_VALUE: hisi_blk_request_put:q <- $x0
	//DEBUG_VALUE: hisi_blk_request_put:req <- $x1
	mov	x0, x1
.Ltmp326:
	//DEBUG_VALUE: hisi_blk_request_put:req <- $x0
	.loc	2 680 2 prologue_end    // /mnt/disk/jenkins/workspace/chipset_10.1.0_release_5G/opensource/component_code/vendor/huawei/extra/build/build_script/kirin_kernel_release/kernel/block/hisi-blk-core.c:680:2
	orr	w1, wzr, #0xe
	//DEBUG_VALUE: hisi_blk_request_put:req <- $x0
	bl	hisi_blk_latency_req_check
.Ltmp327:
	.loc	2 681 1                 // /mnt/disk/jenkins/workspace/chipset_10.1.0_release_5G/opensource/component_code/vendor/huawei/extra/build/build_script/kirin_kernel_release/kernel/block/hisi-blk-core.c:681:1
	ldp	x29, x30, [sp], #16     // 16-byte Folded Reload
	ret
.Ltmp328:
.Lfunc_end30:
	.size	hisi_blk_request_put, .Lfunc_end30-hisi_blk_request_put
	.cfi_endproc
                                        // -- End function
	.section	.text.hisi_blk_check_partition_done,"ax",@progbits
	.hidden	hisi_blk_check_partition_done // -- Begin function hisi_blk_check_partition_done
	.globl	hisi_blk_check_partition_done
	.p2align	2
	.type	hisi_blk_check_partition_done,@function
hisi_blk_check_partition_done:          // @hisi_blk_check_partition_done
.Lfunc_begin31:
	.loc	2 709 0                 // /mnt/disk/jenkins/workspace/chipset_10.1.0_release_5G/opensource/component_code/vendor/huawei/extra/build/build_script/kirin_kernel_release/kernel/block/hisi-blk-core.c:709:0
	.cfi_startproc
// %bb.0:
	//DEBUG_VALUE: hisi_blk_check_partition_done:disk <- $x0
	//DEBUG_VALUE: hisi_blk_check_partition_done:disk <- $x0
	//DEBUG_VALUE: hisi_blk_check_partition_done:has_part_tbl <- $w1
	.loc	2 710 8 prologue_end    // /mnt/disk/jenkins/workspace/chipset_10.1.0_release_5G/opensource/component_code/vendor/huawei/extra/build/build_script/kirin_kernel_release/kernel/block/hisi-blk-core.c:710:8
	ldr	x8, [x0, #1112]
	//DEBUG_VALUE: hisi_blk_check_partition_done:has_part_tbl <- $w1
	and	w9, w1, #0x1
	.loc	2 710 45 is_stmt 0      // /mnt/disk/jenkins/workspace/chipset_10.1.0_release_5G/opensource/component_code/vendor/huawei/extra/build/build_script/kirin_kernel_release/kernel/block/hisi-blk-core.c:710:45
	strb	w9, [x8, #1544]
	.loc	2 711 1 is_stmt 1       // /mnt/disk/jenkins/workspace/chipset_10.1.0_release_5G/opensource/component_code/vendor/huawei/extra/build/build_script/kirin_kernel_release/kernel/block/hisi-blk-core.c:711:1
	ret
.Ltmp329:
.Lfunc_end31:
	.size	hisi_blk_check_partition_done, .Lfunc_end31-hisi_blk_check_partition_done
	.cfi_endproc
                                        // -- End function
	.section	.text.hisi_blk_allocated_queue_init,"ax",@progbits
	.hidden	hisi_blk_allocated_queue_init // -- Begin function hisi_blk_allocated_queue_init
	.globl	hisi_blk_allocated_queue_init
	.p2align	2
	.type	hisi_blk_allocated_queue_init,@function
hisi_blk_allocated_queue_init:          // @hisi_blk_allocated_queue_init
.Lfunc_begin32:
	.loc	2 717 0                 // /mnt/disk/jenkins/workspace/chipset_10.1.0_release_5G/opensource/component_code/vendor/huawei/extra/build/build_script/kirin_kernel_release/kernel/block/hisi-blk-core.c:717:0
	.cfi_startproc
// %bb.0:
	stp	x20, x19, [sp, #-32]!   // 16-byte Folded Spill
	stp	x29, x30, [sp, #16]     // 16-byte Folded Spill
	add	x29, sp, #16            // =16
	.cfi_def_cfa w29, 16
	.cfi_offset w30, -8
	.cfi_offset w29, -16
	.cfi_offset w19, -24
	.cfi_offset w20, -32
	//DEBUG_VALUE: hisi_blk_allocated_queue_init:q <- $x0
.Ltmp330:
	//DEBUG_VALUE: hisi_blk_dev_lld_init:blk_lld <- [DW_OP_plus_uconst 1808, DW_OP_stack_value] $x0
	//DEBUG_VALUE: hisi_blk_dev_lld_init:data <- $x0
	.loc	2 718 32 prologue_end   // /mnt/disk/jenkins/workspace/chipset_10.1.0_release_5G/opensource/component_code/vendor/huawei/extra/build/build_script/kirin_kernel_release/kernel/block/hisi-blk-core.c:718:32
	add	x8, x0, #1696           // =1696
.Ltmp331:
	//DEBUG_VALUE: __write_once_size:res <- undef
	.loc	2 0 32 is_stmt 0        // /mnt/disk/jenkins/workspace/chipset_10.1.0_release_5G/opensource/component_code/vendor/huawei/extra/build/build_script/kirin_kernel_release/kernel/block/hisi-blk-core.c:0:32
	mov	w9, #122
.Ltmp332:
	//DEBUG_VALUE: __write_once_size:p <- $x8
	//DEBUG_VALUE: __write_once_size:size <- 8
	//DEBUG_VALUE: INIT_LIST_HEAD:list <- $x8
	.loc	2 694 42 is_stmt 1      // /mnt/disk/jenkins/workspace/chipset_10.1.0_release_5G/opensource/component_code/vendor/huawei/extra/build/build_script/kirin_kernel_release/kernel/block/hisi-blk-core.c:694:42
	add	x20, x0, #1888          // =1888
	mov	x19, x0
.Ltmp333:
	//DEBUG_VALUE: hisi_blk_allocated_queue_init:q <- $x19
	.loc	137 213 31              // /mnt/disk/jenkins/workspace/chipset_10.1.0_release_5G/opensource/component_code/vendor/huawei/extra/build/build_script/kirin_kernel_release/kernel/include/linux/compiler.h:213:31
	str	x8, [x0, #1696]
.Ltmp334:
	.loc	138 29 13               // /mnt/disk/jenkins/workspace/chipset_10.1.0_release_5G/opensource/component_code/vendor/huawei/extra/build/build_script/kirin_kernel_release/kernel/include/linux/list.h:29:13
	str	x8, [x0, #1704]
.Ltmp335:
	.loc	2 719 35                // /mnt/disk/jenkins/workspace/chipset_10.1.0_release_5G/opensource/component_code/vendor/huawei/extra/build/build_script/kirin_kernel_release/kernel/block/hisi-blk-core.c:719:35
	strb	wzr, [x0, #1544]
.Ltmp336:
	//DEBUG_VALUE: hisi_blk_dev_lld_init:type <- 0
	//DEBUG_VALUE: hisi_blk_dev_lld_init:data <- $x19
	//DEBUG_VALUE: hisi_blk_dev_lld_init:blk_lld <- [DW_OP_plus_uconst 1808, DW_OP_stack_value] $x19
	.loc	2 691 22                // /mnt/disk/jenkins/workspace/chipset_10.1.0_release_5G/opensource/component_code/vendor/huawei/extra/build/build_script/kirin_kernel_release/kernel/block/hisi-blk-core.c:691:22
	str	x9, [x0, #1808]
	.loc	2 693 16                // /mnt/disk/jenkins/workspace/chipset_10.1.0_release_5G/opensource/component_code/vendor/huawei/extra/build/build_script/kirin_kernel_release/kernel/block/hisi-blk-core.c:693:16
	str	x0, [x0, #1816]
	.loc	2 694 2                 // /mnt/disk/jenkins/workspace/chipset_10.1.0_release_5G/opensource/component_code/vendor/huawei/extra/build/build_script/kirin_kernel_release/kernel/block/hisi-blk-core.c:694:2
	mov	x0, x20
	bl	hisi_blk_busy_idle_state_init
.Ltmp337:
	.loc	2 695 15                // /mnt/disk/jenkins/workspace/chipset_10.1.0_release_5G/opensource/component_code/vendor/huawei/extra/build/build_script/kirin_kernel_release/kernel/block/hisi-blk-core.c:695:15
	ldr	x8, [x19, #1832]
.Ltmp338:
	.loc	2 695 6 is_stmt 0       // /mnt/disk/jenkins/workspace/chipset_10.1.0_release_5G/opensource/component_code/vendor/huawei/extra/build/build_script/kirin_kernel_release/kernel/block/hisi-blk-core.c:695:6
	tbz	w8, #6, .LBB32_2
.Ltmp339:
// %bb.1:
	//DEBUG_VALUE: hisi_blk_dev_lld_init:blk_lld <- [DW_OP_plus_uconst 1808, DW_OP_stack_value] $x19
	//DEBUG_VALUE: hisi_blk_dev_lld_init:data <- $x19
	//DEBUG_VALUE: hisi_blk_allocated_queue_init:q <- $x19
	.loc	2 0 6                   // /mnt/disk/jenkins/workspace/chipset_10.1.0_release_5G/opensource/component_code/vendor/huawei/extra/build/build_script/kirin_kernel_release/kernel/block/hisi-blk-core.c:0:6
	orr	w9, wzr, #0x1
.Ltmp340:
	.loc	2 696 39 is_stmt 1      // /mnt/disk/jenkins/workspace/chipset_10.1.0_release_5G/opensource/component_code/vendor/huawei/extra/build/build_script/kirin_kernel_release/kernel/block/hisi-blk-core.c:696:39
	strb	w9, [x20]
.Ltmp341:
.LBB32_2:
	//DEBUG_VALUE: hisi_blk_dev_lld_init:blk_lld <- [DW_OP_plus_uconst 1808, DW_OP_stack_value] $x19
	//DEBUG_VALUE: hisi_blk_dev_lld_init:data <- $x19
	//DEBUG_VALUE: hisi_blk_allocated_queue_init:q <- $x19
	.loc	2 698 24                // /mnt/disk/jenkins/workspace/chipset_10.1.0_release_5G/opensource/component_code/vendor/huawei/extra/build/build_script/kirin_kernel_release/kernel/block/hisi-blk-core.c:698:24
	orr	x8, x8, #0x80
	str	x8, [x19, #1832]
	.loc	2 701 17                // /mnt/disk/jenkins/workspace/chipset_10.1.0_release_5G/opensource/component_code/vendor/huawei/extra/build/build_script/kirin_kernel_release/kernel/block/hisi-blk-core.c:701:17
	str	xzr, [x19, #2736]
.Ltmp342:
	.loc	2 721 1                 // /mnt/disk/jenkins/workspace/chipset_10.1.0_release_5G/opensource/component_code/vendor/huawei/extra/build/build_script/kirin_kernel_release/kernel/block/hisi-blk-core.c:721:1
	ldp	x29, x30, [sp, #16]     // 16-byte Folded Reload
	ldp	x20, x19, [sp], #32     // 16-byte Folded Reload
.Ltmp343:
	ret
.Ltmp344:
.Lfunc_end32:
	.size	hisi_blk_allocated_queue_init, .Lfunc_end32-hisi_blk_allocated_queue_init
	.cfi_endproc
                                        // -- End function
	.section	.text.hisi_blk_sq_init_allocated_queue,"ax",@progbits
	.hidden	hisi_blk_sq_init_allocated_queue // -- Begin function hisi_blk_sq_init_allocated_queue
	.globl	hisi_blk_sq_init_allocated_queue
	.p2align	2
	.type	hisi_blk_sq_init_allocated_queue,@function
hisi_blk_sq_init_allocated_queue:       // @hisi_blk_sq_init_allocated_queue
.Lfunc_begin33:
	.loc	2 735 0                 // /mnt/disk/jenkins/workspace/chipset_10.1.0_release_5G/opensource/component_code/vendor/huawei/extra/build/build_script/kirin_kernel_release/kernel/block/hisi-blk-core.c:735:0
	.cfi_startproc
// %bb.0:
	str	x19, [sp, #-32]!        // 8-byte Folded Spill
	stp	x29, x30, [sp, #16]     // 16-byte Folded Spill
	add	x29, sp, #16            // =16
	.cfi_def_cfa w29, 16
	.cfi_offset w30, -8
	.cfi_offset w29, -16
	.cfi_offset w19, -32
	//DEBUG_VALUE: hisi_blk_sq_init_allocated_queue:q <- $x0
.Ltmp345:
	//DEBUG_VALUE: hisi_blk_queue_init_common:q <- $x0
	//DEBUG_VALUE: hisi_blk_io_speed_adj_init:q <- $x0
	mov	x19, x0
.Ltmp346:
	//DEBUG_VALUE: hisi_blk_queue_init_common:q <- $x19
	//DEBUG_VALUE: hisi_blk_sq_init_allocated_queue:q <- $x19
	.loc	2 725 2 prologue_end    // /mnt/disk/jenkins/workspace/chipset_10.1.0_release_5G/opensource/component_code/vendor/huawei/extra/build/build_script/kirin_kernel_release/kernel/block/hisi-blk-core.c:725:2
	bl	hisi_blk_dump_register_queue
.Ltmp347:
	.loc	2 726 2                 // /mnt/disk/jenkins/workspace/chipset_10.1.0_release_5G/opensource/component_code/vendor/huawei/extra/build/build_script/kirin_kernel_release/kernel/block/hisi-blk-core.c:726:2
	mov	x0, x19
	bl	hisi_blk_queue_latency_init
	.loc	2 727 2                 // /mnt/disk/jenkins/workspace/chipset_10.1.0_release_5G/opensource/component_code/vendor/huawei/extra/build/build_script/kirin_kernel_release/kernel/block/hisi-blk-core.c:727:2
	mov	x0, x19
	bl	hisi_blk_queue_async_flush_init
.Ltmp348:
	//DEBUG_VALUE: hisi_blk_io_speed_adj_init:q <- $x19
	.loc	2 366 2                 // /mnt/disk/jenkins/workspace/chipset_10.1.0_release_5G/opensource/component_code/vendor/huawei/extra/build/build_script/kirin_kernel_release/kernel/block/hisi-blk-core.c:366:2
	add	x0, x19, #1744          // =1744
	mov	w1, wzr
	mov	x2, xzr
	mov	x3, xzr
	.loc	2 363 21                // /mnt/disk/jenkins/workspace/chipset_10.1.0_release_5G/opensource/component_code/vendor/huawei/extra/build/build_script/kirin_kernel_release/kernel/block/hisi-blk-core.c:363:21
	str	xzr, [x19, #1736]
	str	xzr, [x19, #1728]
	str	xzr, [x19, #1720]
	str	xzr, [x19, #1712]
	.loc	2 366 2                 // /mnt/disk/jenkins/workspace/chipset_10.1.0_release_5G/opensource/component_code/vendor/huawei/extra/build/build_script/kirin_kernel_release/kernel/block/hisi-blk-core.c:366:2
	bl	init_timer_key
	.loc	2 367 53                // /mnt/disk/jenkins/workspace/chipset_10.1.0_release_5G/opensource/component_code/vendor/huawei/extra/build/build_script/kirin_kernel_release/kernel/block/hisi-blk-core.c:367:53
	adrp	x8, _cfi_hisi_blk_queue_usr_ctrl_recovery_timer_expire
	add	x8, x8, :lo12:_cfi_hisi_blk_queue_usr_ctrl_recovery_timer_expire
	str	x8, [x19, #1768]
	.loc	2 369 49                // /mnt/disk/jenkins/workspace/chipset_10.1.0_release_5G/opensource/component_code/vendor/huawei/extra/build/build_script/kirin_kernel_release/kernel/block/hisi-blk-core.c:369:49
	str	x19, [x19, #1776]
.Ltmp349:
	.loc	2 737 1                 // /mnt/disk/jenkins/workspace/chipset_10.1.0_release_5G/opensource/component_code/vendor/huawei/extra/build/build_script/kirin_kernel_release/kernel/block/hisi-blk-core.c:737:1
	ldp	x29, x30, [sp, #16]     // 16-byte Folded Reload
	ldr	x19, [sp], #32          // 8-byte Folded Reload
.Ltmp350:
	ret
.Ltmp351:
.Lfunc_end33:
	.size	hisi_blk_sq_init_allocated_queue, .Lfunc_end33-hisi_blk_sq_init_allocated_queue
	.cfi_endproc
                                        // -- End function
	.section	.text.hisi_blk_mq_init_allocated_queue,"ax",@progbits
	.hidden	hisi_blk_mq_init_allocated_queue // -- Begin function hisi_blk_mq_init_allocated_queue
	.globl	hisi_blk_mq_init_allocated_queue
	.p2align	2
	.type	hisi_blk_mq_init_allocated_queue,@function
hisi_blk_mq_init_allocated_queue:       // @hisi_blk_mq_init_allocated_queue
.Lfunc_begin34:
	.loc	2 743 0                 // /mnt/disk/jenkins/workspace/chipset_10.1.0_release_5G/opensource/component_code/vendor/huawei/extra/build/build_script/kirin_kernel_release/kernel/block/hisi-blk-core.c:743:0
	.cfi_startproc
// %bb.0:
	str	x19, [sp, #-32]!        // 8-byte Folded Spill
	stp	x29, x30, [sp, #16]     // 16-byte Folded Spill
	add	x29, sp, #16            // =16
	.cfi_def_cfa w29, 16
	.cfi_offset w30, -8
	.cfi_offset w29, -16
	.cfi_offset w19, -32
	//DEBUG_VALUE: hisi_blk_mq_init_allocated_queue:q <- $x0
.Ltmp352:
	//DEBUG_VALUE: hisi_blk_queue_init_common:q <- $x0
	//DEBUG_VALUE: hisi_blk_io_speed_adj_init:q <- $x0
	mov	x19, x0
.Ltmp353:
	//DEBUG_VALUE: hisi_blk_queue_init_common:q <- $x19
	//DEBUG_VALUE: hisi_blk_mq_init_allocated_queue:q <- $x19
	.loc	2 725 2 prologue_end    // /mnt/disk/jenkins/workspace/chipset_10.1.0_release_5G/opensource/component_code/vendor/huawei/extra/build/build_script/kirin_kernel_release/kernel/block/hisi-blk-core.c:725:2
	bl	hisi_blk_dump_register_queue
.Ltmp354:
	.loc	2 726 2                 // /mnt/disk/jenkins/workspace/chipset_10.1.0_release_5G/opensource/component_code/vendor/huawei/extra/build/build_script/kirin_kernel_release/kernel/block/hisi-blk-core.c:726:2
	mov	x0, x19
	bl	hisi_blk_queue_latency_init
	.loc	2 727 2                 // /mnt/disk/jenkins/workspace/chipset_10.1.0_release_5G/opensource/component_code/vendor/huawei/extra/build/build_script/kirin_kernel_release/kernel/block/hisi-blk-core.c:727:2
	mov	x0, x19
	bl	hisi_blk_queue_async_flush_init
.Ltmp355:
	//DEBUG_VALUE: hisi_blk_io_speed_adj_init:q <- $x19
	.loc	2 366 2                 // /mnt/disk/jenkins/workspace/chipset_10.1.0_release_5G/opensource/component_code/vendor/huawei/extra/build/build_script/kirin_kernel_release/kernel/block/hisi-blk-core.c:366:2
	add	x0, x19, #1744          // =1744
	mov	w1, wzr
	mov	x2, xzr
	mov	x3, xzr
	.loc	2 363 21                // /mnt/disk/jenkins/workspace/chipset_10.1.0_release_5G/opensource/component_code/vendor/huawei/extra/build/build_script/kirin_kernel_release/kernel/block/hisi-blk-core.c:363:21
	str	xzr, [x19, #1736]
	str	xzr, [x19, #1728]
	str	xzr, [x19, #1720]
	str	xzr, [x19, #1712]
	.loc	2 366 2                 // /mnt/disk/jenkins/workspace/chipset_10.1.0_release_5G/opensource/component_code/vendor/huawei/extra/build/build_script/kirin_kernel_release/kernel/block/hisi-blk-core.c:366:2
	bl	init_timer_key
.Ltmp356:
	.loc	2 746 26                // /mnt/disk/jenkins/workspace/chipset_10.1.0_release_5G/opensource/component_code/vendor/huawei/extra/build/build_script/kirin_kernel_release/kernel/block/hisi-blk-core.c:746:26
	ldr	x8, [x19, #3312]
.Ltmp357:
	.loc	2 367 53                // /mnt/disk/jenkins/workspace/chipset_10.1.0_release_5G/opensource/component_code/vendor/huawei/extra/build/build_script/kirin_kernel_release/kernel/block/hisi-blk-core.c:367:53
	adrp	x9, _cfi_hisi_blk_queue_usr_ctrl_recovery_timer_expire
	add	x9, x9, :lo12:_cfi_hisi_blk_queue_usr_ctrl_recovery_timer_expire
	//DEBUG_VALUE: hisi_blk_io_speed_adj_init:q <- $x19
	//DEBUG_VALUE: hisi_blk_queue_init_common:q <- $x19
	str	x9, [x19, #1768]
	.loc	2 369 49                // /mnt/disk/jenkins/workspace/chipset_10.1.0_release_5G/opensource/component_code/vendor/huawei/extra/build/build_script/kirin_kernel_release/kernel/block/hisi-blk-core.c:369:49
	str	x19, [x19, #1776]
.Ltmp358:
	.loc	2 746 34                // /mnt/disk/jenkins/workspace/chipset_10.1.0_release_5G/opensource/component_code/vendor/huawei/extra/build/build_script/kirin_kernel_release/kernel/block/hisi-blk-core.c:746:34
	cbz	x8, .LBB34_6
.Ltmp359:
// %bb.1:
	//DEBUG_VALUE: hisi_blk_mq_init_allocated_queue:q <- $x19
	.loc	2 746 49 is_stmt 0      // /mnt/disk/jenkins/workspace/chipset_10.1.0_release_5G/opensource/component_code/vendor/huawei/extra/build/build_script/kirin_kernel_release/kernel/block/hisi-blk-core.c:746:49
	ldr	x8, [x8, #952]
	.loc	2 746 22                // /mnt/disk/jenkins/workspace/chipset_10.1.0_release_5G/opensource/component_code/vendor/huawei/extra/build/build_script/kirin_kernel_release/kernel/block/hisi-blk-core.c:746:22
	cbz	x8, .LBB34_6
.Ltmp360:
// %bb.2:
	//DEBUG_VALUE: hisi_blk_mq_init_allocated_queue:q <- $x19
	.loc	2 747 40 is_stmt 1      // /mnt/disk/jenkins/workspace/chipset_10.1.0_release_5G/opensource/component_code/vendor/huawei/extra/build/build_script/kirin_kernel_release/kernel/block/hisi-blk-core.c:747:40
	ldr	x8, [x8, #24]
	.loc	2 746 20                // /mnt/disk/jenkins/workspace/chipset_10.1.0_release_5G/opensource/component_code/vendor/huawei/extra/build/build_script/kirin_kernel_release/kernel/block/hisi-blk-core.c:746:20
	str	x8, [x19, #1800]
.Ltmp361:
	.loc	2 749 24                // /mnt/disk/jenkins/workspace/chipset_10.1.0_release_5G/opensource/component_code/vendor/huawei/extra/build/build_script/kirin_kernel_release/kernel/block/hisi-blk-core.c:749:24
	cbz	x8, .LBB34_7
.Ltmp362:
// %bb.3:
	//DEBUG_VALUE: hisi_blk_mq_init_allocated_queue:q <- $x19
	.loc	2 749 46 is_stmt 0      // /mnt/disk/jenkins/workspace/chipset_10.1.0_release_5G/opensource/component_code/vendor/huawei/extra/build/build_script/kirin_kernel_release/kernel/block/hisi-blk-core.c:749:46
	ldr	x8, [x8, #8]
.Ltmp363:
	.loc	2 749 6                 // /mnt/disk/jenkins/workspace/chipset_10.1.0_release_5G/opensource/component_code/vendor/huawei/extra/build/build_script/kirin_kernel_release/kernel/block/hisi-blk-core.c:749:6
	cbz	x8, .LBB34_7
.Ltmp364:
// %bb.4:
	//DEBUG_VALUE: hisi_blk_mq_init_allocated_queue:q <- $x19
	.loc	2 750 13 is_stmt 1      // /mnt/disk/jenkins/workspace/chipset_10.1.0_release_5G/opensource/component_code/vendor/huawei/extra/build/build_script/kirin_kernel_release/kernel/block/hisi-blk-core.c:750:13
	mov	x0, x19
	blr	x8
	.loc	2 751 7                 // /mnt/disk/jenkins/workspace/chipset_10.1.0_release_5G/opensource/component_code/vendor/huawei/extra/build/build_script/kirin_kernel_release/kernel/block/hisi-blk-core.c:751:7
	cbz	w0, .LBB34_7
.Ltmp365:
// %bb.5:
	//DEBUG_VALUE: hisi_blk_mq_init_allocated_queue:q <- $x19
	.loc	2 0 0 is_stmt 0         // /mnt/disk/jenkins/workspace/chipset_10.1.0_release_5G/opensource/component_code/vendor/huawei/extra/build/build_script/kirin_kernel_release/kernel/block/hisi-blk-core.c:0:0
	mov	w2, w0
.Ltmp366:
	//DEBUG_VALUE: ret <- $w2
	.loc	2 752 4 is_stmt 1       // /mnt/disk/jenkins/workspace/chipset_10.1.0_release_5G/opensource/component_code/vendor/huawei/extra/build/build_script/kirin_kernel_release/kernel/block/hisi-blk-core.c:752:4
	adrp	x0, .L.str.1
	adrp	x1, .L__func__.hisi_blk_mq_init_allocated_queue
	add	x0, x0, :lo12:.L.str.1
	add	x1, x1, :lo12:.L__func__.hisi_blk_mq_init_allocated_queue
	bl	printk
.Ltmp367:
	.loc	2 0 4 is_stmt 0         // /mnt/disk/jenkins/workspace/chipset_10.1.0_release_5G/opensource/component_code/vendor/huawei/extra/build/build_script/kirin_kernel_release/kernel/block/hisi-blk-core.c:0:4
	b	.LBB34_7
.Ltmp368:
.LBB34_6:
	//DEBUG_VALUE: hisi_blk_mq_init_allocated_queue:q <- $x19
	.loc	2 746 20 is_stmt 1      // /mnt/disk/jenkins/workspace/chipset_10.1.0_release_5G/opensource/component_code/vendor/huawei/extra/build/build_script/kirin_kernel_release/kernel/block/hisi-blk-core.c:746:20
	str	xzr, [x19, #1800]
.Ltmp369:
.LBB34_7:
	//DEBUG_VALUE: hisi_blk_mq_init_allocated_queue:q <- $x19
	.loc	2 759 1                 // /mnt/disk/jenkins/workspace/chipset_10.1.0_release_5G/opensource/component_code/vendor/huawei/extra/build/build_script/kirin_kernel_release/kernel/block/hisi-blk-core.c:759:1
	ldp	x29, x30, [sp, #16]     // 16-byte Folded Reload
	ldr	x19, [sp], #32          // 8-byte Folded Reload
.Ltmp370:
	ret
.Ltmp371:
.Lfunc_end34:
	.size	hisi_blk_mq_init_allocated_queue, .Lfunc_end34-hisi_blk_mq_init_allocated_queue
	.cfi_endproc
                                        // -- End function
	.section	.text.hisi_blk_mq_free_queue,"ax",@progbits
	.hidden	hisi_blk_mq_free_queue  // -- Begin function hisi_blk_mq_free_queue
	.globl	hisi_blk_mq_free_queue
	.p2align	2
	.type	hisi_blk_mq_free_queue,@function
hisi_blk_mq_free_queue:                 // @hisi_blk_mq_free_queue
.Lfunc_begin35:
	.loc	2 765 0                 // /mnt/disk/jenkins/workspace/chipset_10.1.0_release_5G/opensource/component_code/vendor/huawei/extra/build/build_script/kirin_kernel_release/kernel/block/hisi-blk-core.c:765:0
	.cfi_startproc
// %bb.0:
	stp	x29, x30, [sp, #-16]!   // 16-byte Folded Spill
	mov	x29, sp
	.cfi_def_cfa w29, 16
	.cfi_offset w30, -8
	.cfi_offset w29, -16
	//DEBUG_VALUE: hisi_blk_mq_free_queue:q <- $x0
	//DEBUG_VALUE: hisi_blk_mq_free_queue:q <- $x0
.Ltmp372:
	.loc	2 766 9 prologue_end    // /mnt/disk/jenkins/workspace/chipset_10.1.0_release_5G/opensource/component_code/vendor/huawei/extra/build/build_script/kirin_kernel_release/kernel/block/hisi-blk-core.c:766:9
	ldr	x8, [x0, #1800]
	.loc	2 766 24 is_stmt 0      // /mnt/disk/jenkins/workspace/chipset_10.1.0_release_5G/opensource/component_code/vendor/huawei/extra/build/build_script/kirin_kernel_release/kernel/block/hisi-blk-core.c:766:24
	cbz	x8, .LBB35_3
.Ltmp373:
// %bb.1:
	//DEBUG_VALUE: hisi_blk_mq_free_queue:q <- $x0
	.loc	2 766 46                // /mnt/disk/jenkins/workspace/chipset_10.1.0_release_5G/opensource/component_code/vendor/huawei/extra/build/build_script/kirin_kernel_release/kernel/block/hisi-blk-core.c:766:46
	ldr	x8, [x8, #16]
.Ltmp374:
	.loc	2 766 6                 // /mnt/disk/jenkins/workspace/chipset_10.1.0_release_5G/opensource/component_code/vendor/huawei/extra/build/build_script/kirin_kernel_release/kernel/block/hisi-blk-core.c:766:6
	cbz	x8, .LBB35_3
.Ltmp375:
// %bb.2:
	//DEBUG_VALUE: hisi_blk_mq_free_queue:q <- $x0
	.loc	2 767 13 is_stmt 1      // /mnt/disk/jenkins/workspace/chipset_10.1.0_release_5G/opensource/component_code/vendor/huawei/extra/build/build_script/kirin_kernel_release/kernel/block/hisi-blk-core.c:767:13
	blr	x8
.Ltmp376:
	.loc	2 768 7                 // /mnt/disk/jenkins/workspace/chipset_10.1.0_release_5G/opensource/component_code/vendor/huawei/extra/build/build_script/kirin_kernel_release/kernel/block/hisi-blk-core.c:768:7
	cbnz	w0, .LBB35_4
.Ltmp377:
.LBB35_3:
	.loc	2 776 1                 // /mnt/disk/jenkins/workspace/chipset_10.1.0_release_5G/opensource/component_code/vendor/huawei/extra/build/build_script/kirin_kernel_release/kernel/block/hisi-blk-core.c:776:1
	ldp	x29, x30, [sp], #16     // 16-byte Folded Reload
	ret
.LBB35_4:
.Ltmp378:
	.loc	2 0 0 is_stmt 0         // /mnt/disk/jenkins/workspace/chipset_10.1.0_release_5G/opensource/component_code/vendor/huawei/extra/build/build_script/kirin_kernel_release/kernel/block/hisi-blk-core.c:0:0
	mov	w2, w0
.Ltmp379:
	//DEBUG_VALUE: ret <- $w2
	.loc	2 769 4 is_stmt 1       // /mnt/disk/jenkins/workspace/chipset_10.1.0_release_5G/opensource/component_code/vendor/huawei/extra/build/build_script/kirin_kernel_release/kernel/block/hisi-blk-core.c:769:4
	adrp	x0, .L.str.2
	adrp	x1, .L__func__.hisi_blk_mq_free_queue
	add	x0, x0, :lo12:.L.str.2
	add	x1, x1, :lo12:.L__func__.hisi_blk_mq_free_queue
	bl	printk
.Ltmp380:
	.loc	2 776 1                 // /mnt/disk/jenkins/workspace/chipset_10.1.0_release_5G/opensource/component_code/vendor/huawei/extra/build/build_script/kirin_kernel_release/kernel/block/hisi-blk-core.c:776:1
	ldp	x29, x30, [sp], #16     // 16-byte Folded Reload
	ret
.Ltmp381:
.Lfunc_end35:
	.size	hisi_blk_mq_free_queue, .Lfunc_end35-hisi_blk_mq_free_queue
	.cfi_endproc
                                        // -- End function
	.section	.text.hisi_blk_cleanup_queue,"ax",@progbits
	.hidden	hisi_blk_cleanup_queue  // -- Begin function hisi_blk_cleanup_queue
	.globl	hisi_blk_cleanup_queue
	.p2align	2
	.type	hisi_blk_cleanup_queue,@function
hisi_blk_cleanup_queue:                 // @hisi_blk_cleanup_queue
.Lfunc_begin36:
	.loc	2 782 0                 // /mnt/disk/jenkins/workspace/chipset_10.1.0_release_5G/opensource/component_code/vendor/huawei/extra/build/build_script/kirin_kernel_release/kernel/block/hisi-blk-core.c:782:0
	.cfi_startproc
// %bb.0:
	str	x19, [sp, #-32]!        // 8-byte Folded Spill
	stp	x29, x30, [sp, #16]     // 16-byte Folded Spill
	add	x29, sp, #16            // =16
	.cfi_def_cfa w29, 16
	.cfi_offset w30, -8
	.cfi_offset w29, -16
	.cfi_offset w19, -32
	//DEBUG_VALUE: hisi_blk_cleanup_queue:q <- $x0
.Ltmp382:
	//DEBUG_VALUE: hisi_blk_io_speed_adj_deinit:q <- $x0
	mov	x19, x0
.Ltmp383:
	//DEBUG_VALUE: hisi_blk_cleanup_queue:q <- $x19
	.loc	2 783 2 prologue_end    // /mnt/disk/jenkins/workspace/chipset_10.1.0_release_5G/opensource/component_code/vendor/huawei/extra/build/build_script/kirin_kernel_release/kernel/block/hisi-blk-core.c:783:2
	bl	hisi_blk_dump_unregister_queue
.Ltmp384:
	//DEBUG_VALUE: hisi_blk_io_speed_adj_deinit:q <- $x19
	.loc	2 357 32                // /mnt/disk/jenkins/workspace/chipset_10.1.0_release_5G/opensource/component_code/vendor/huawei/extra/build/build_script/kirin_kernel_release/kernel/block/hisi-blk-core.c:357:32
	add	x0, x19, #1744          // =1744
	.loc	2 357 2 is_stmt 0       // /mnt/disk/jenkins/workspace/chipset_10.1.0_release_5G/opensource/component_code/vendor/huawei/extra/build/build_script/kirin_kernel_release/kernel/block/hisi-blk-core.c:357:2
	bl	del_timer_sync
.Ltmp385:
	.loc	2 785 2 is_stmt 1       // /mnt/disk/jenkins/workspace/chipset_10.1.0_release_5G/opensource/component_code/vendor/huawei/extra/build/build_script/kirin_kernel_release/kernel/block/hisi-blk-core.c:785:2
	mov	x0, x19
	bl	hisi_blk_flush_reduced_queue_unregister
	.loc	2 786 1                 // /mnt/disk/jenkins/workspace/chipset_10.1.0_release_5G/opensource/component_code/vendor/huawei/extra/build/build_script/kirin_kernel_release/kernel/block/hisi-blk-core.c:786:1
	ldp	x29, x30, [sp, #16]     // 16-byte Folded Reload
	ldr	x19, [sp], #32          // 8-byte Folded Reload
.Ltmp386:
	ret
.Ltmp387:
.Lfunc_end36:
	.size	hisi_blk_cleanup_queue, .Lfunc_end36-hisi_blk_cleanup_queue
	.cfi_endproc
                                        // -- End function
	.section	.text.hisi_blk_allocated_tags_init,"ax",@progbits
	.hidden	hisi_blk_allocated_tags_init // -- Begin function hisi_blk_allocated_tags_init
	.globl	hisi_blk_allocated_tags_init
	.p2align	2
	.type	hisi_blk_allocated_tags_init,@function
hisi_blk_allocated_tags_init:           // @hisi_blk_allocated_tags_init
.Lfunc_begin37:
	.loc	2 792 0                 // /mnt/disk/jenkins/workspace/chipset_10.1.0_release_5G/opensource/component_code/vendor/huawei/extra/build/build_script/kirin_kernel_release/kernel/block/hisi-blk-core.c:792:0
	.cfi_startproc
// %bb.0:
	stp	x20, x19, [sp, #-32]!   // 16-byte Folded Spill
	stp	x29, x30, [sp, #16]     // 16-byte Folded Spill
	add	x29, sp, #16            // =16
	.cfi_def_cfa w29, 16
	.cfi_offset w30, -8
	.cfi_offset w29, -16
	.cfi_offset w19, -24
	.cfi_offset w20, -32
	//DEBUG_VALUE: hisi_blk_allocated_tags_init:tags <- $x0
.Ltmp388:
	//DEBUG_VALUE: hisi_blk_dev_lld_init:blk_lld <- [DW_OP_plus_uconst 120, DW_OP_stack_value] $x0
	//DEBUG_VALUE: hisi_blk_dev_lld_init:data <- $x0
	.loc	2 793 2 prologue_end    // /mnt/disk/jenkins/workspace/chipset_10.1.0_release_5G/opensource/component_code/vendor/huawei/extra/build/build_script/kirin_kernel_release/kernel/block/hisi-blk-core.c:793:2
	adrp	x1, .L.str.3
	adrp	x2, hisi_blk_allocated_tags_init.__key
	mov	x19, x0
.Ltmp389:
	//DEBUG_VALUE: hisi_blk_allocated_tags_init:tags <- $x19
	add	x0, x0, #40             // =40
.Ltmp390:
	add	x1, x1, :lo12:.L.str.3
	add	x2, x2, :lo12:hisi_blk_allocated_tags_init.__key
	bl	__mutex_init
.Ltmp391:
	.loc	2 794 24                // /mnt/disk/jenkins/workspace/chipset_10.1.0_release_5G/opensource/component_code/vendor/huawei/extra/build/build_script/kirin_kernel_release/kernel/block/hisi-blk-core.c:794:24
	add	x8, x19, #104           // =104
.Ltmp392:
	//DEBUG_VALUE: __write_once_size:p <- $x8
	//DEBUG_VALUE: __write_once_size:size <- 8
	//DEBUG_VALUE: __write_once_size:res <- undef
	//DEBUG_VALUE: INIT_LIST_HEAD:list <- $x8
	.loc	2 0 24 is_stmt 0        // /mnt/disk/jenkins/workspace/chipset_10.1.0_release_5G/opensource/component_code/vendor/huawei/extra/build/build_script/kirin_kernel_release/kernel/block/hisi-blk-core.c:0:24
	add	x0, x19, #136           // =136
	.loc	2 795 2 is_stmt 1       // /mnt/disk/jenkins/workspace/chipset_10.1.0_release_5G/opensource/component_code/vendor/huawei/extra/build/build_script/kirin_kernel_release/kernel/block/hisi-blk-core.c:795:2
	mov	w2, #920
	mov	w1, wzr
.Ltmp393:
	.loc	137 213 31              // /mnt/disk/jenkins/workspace/chipset_10.1.0_release_5G/opensource/component_code/vendor/huawei/extra/build/build_script/kirin_kernel_release/kernel/include/linux/compiler.h:213:31
	str	x8, [x19, #104]
.Ltmp394:
	.loc	138 29 13               // /mnt/disk/jenkins/workspace/chipset_10.1.0_release_5G/opensource/component_code/vendor/huawei/extra/build/build_script/kirin_kernel_release/kernel/include/linux/list.h:29:13
	str	x8, [x19, #112]
.Ltmp395:
	.loc	2 795 2                 // /mnt/disk/jenkins/workspace/chipset_10.1.0_release_5G/opensource/component_code/vendor/huawei/extra/build/build_script/kirin_kernel_release/kernel/block/hisi-blk-core.c:795:2
	bl	memset
.Ltmp396:
	.loc	2 0 2 is_stmt 0         // /mnt/disk/jenkins/workspace/chipset_10.1.0_release_5G/opensource/component_code/vendor/huawei/extra/build/build_script/kirin_kernel_release/kernel/block/hisi-blk-core.c:0:2
	mov	x8, #122
.Ltmp397:
	.loc	2 694 42 is_stmt 1      // /mnt/disk/jenkins/workspace/chipset_10.1.0_release_5G/opensource/component_code/vendor/huawei/extra/build/build_script/kirin_kernel_release/kernel/block/hisi-blk-core.c:694:42
	add	x20, x19, #200          // =200
	movk	x8, #1, lsl #32
.Ltmp398:
	//DEBUG_VALUE: hisi_blk_dev_lld_init:type <- 1
	//DEBUG_VALUE: hisi_blk_dev_lld_init:data <- $x19
	//DEBUG_VALUE: hisi_blk_dev_lld_init:blk_lld <- [DW_OP_plus_uconst 120, DW_OP_stack_value] $x19
	.loc	2 694 2 is_stmt 0       // /mnt/disk/jenkins/workspace/chipset_10.1.0_release_5G/opensource/component_code/vendor/huawei/extra/build/build_script/kirin_kernel_release/kernel/block/hisi-blk-core.c:694:2
	mov	x0, x20
	.loc	2 691 22 is_stmt 1      // /mnt/disk/jenkins/workspace/chipset_10.1.0_release_5G/opensource/component_code/vendor/huawei/extra/build/build_script/kirin_kernel_release/kernel/block/hisi-blk-core.c:691:22
	stp	x8, x19, [x19, #120]
	.loc	2 694 2                 // /mnt/disk/jenkins/workspace/chipset_10.1.0_release_5G/opensource/component_code/vendor/huawei/extra/build/build_script/kirin_kernel_release/kernel/block/hisi-blk-core.c:694:2
	bl	hisi_blk_busy_idle_state_init
.Ltmp399:
	.loc	2 695 15                // /mnt/disk/jenkins/workspace/chipset_10.1.0_release_5G/opensource/component_code/vendor/huawei/extra/build/build_script/kirin_kernel_release/kernel/block/hisi-blk-core.c:695:15
	ldr	x8, [x19, #144]
.Ltmp400:
	.loc	2 695 6 is_stmt 0       // /mnt/disk/jenkins/workspace/chipset_10.1.0_release_5G/opensource/component_code/vendor/huawei/extra/build/build_script/kirin_kernel_release/kernel/block/hisi-blk-core.c:695:6
	tbz	w8, #6, .LBB37_2
.Ltmp401:
// %bb.1:
	//DEBUG_VALUE: hisi_blk_dev_lld_init:blk_lld <- [DW_OP_plus_uconst 120, DW_OP_stack_value] $x19
	//DEBUG_VALUE: hisi_blk_dev_lld_init:data <- $x19
	//DEBUG_VALUE: hisi_blk_allocated_tags_init:tags <- $x19
	.loc	2 0 6                   // /mnt/disk/jenkins/workspace/chipset_10.1.0_release_5G/opensource/component_code/vendor/huawei/extra/build/build_script/kirin_kernel_release/kernel/block/hisi-blk-core.c:0:6
	orr	w9, wzr, #0x1
.Ltmp402:
	.loc	2 696 39 is_stmt 1      // /mnt/disk/jenkins/workspace/chipset_10.1.0_release_5G/opensource/component_code/vendor/huawei/extra/build/build_script/kirin_kernel_release/kernel/block/hisi-blk-core.c:696:39
	strb	w9, [x20]
.Ltmp403:
.LBB37_2:
	//DEBUG_VALUE: hisi_blk_dev_lld_init:blk_lld <- [DW_OP_plus_uconst 120, DW_OP_stack_value] $x19
	//DEBUG_VALUE: hisi_blk_dev_lld_init:data <- $x19
	//DEBUG_VALUE: hisi_blk_allocated_tags_init:tags <- $x19
	.loc	2 698 24                // /mnt/disk/jenkins/workspace/chipset_10.1.0_release_5G/opensource/component_code/vendor/huawei/extra/build/build_script/kirin_kernel_release/kernel/block/hisi-blk-core.c:698:24
	orr	x8, x8, #0x80
	str	x8, [x19, #144]
	.loc	2 701 17                // /mnt/disk/jenkins/workspace/chipset_10.1.0_release_5G/opensource/component_code/vendor/huawei/extra/build/build_script/kirin_kernel_release/kernel/block/hisi-blk-core.c:701:17
	str	xzr, [x19, #1048]
.Ltmp404:
	.loc	2 798 1                 // /mnt/disk/jenkins/workspace/chipset_10.1.0_release_5G/opensource/component_code/vendor/huawei/extra/build/build_script/kirin_kernel_release/kernel/block/hisi-blk-core.c:798:1
	ldp	x29, x30, [sp, #16]     // 16-byte Folded Reload
	ldp	x20, x19, [sp], #32     // 16-byte Folded Reload
.Ltmp405:
	ret
.Ltmp406:
.Lfunc_end37:
	.size	hisi_blk_allocated_tags_init, .Lfunc_end37-hisi_blk_allocated_tags_init
	.cfi_endproc
                                        // -- End function
	.section	.text.blk_add_queue_tags,"ax",@progbits
	.hidden	blk_add_queue_tags      // -- Begin function blk_add_queue_tags
	.globl	blk_add_queue_tags
	.p2align	2
	.type	blk_add_queue_tags,@function
blk_add_queue_tags:                     // @blk_add_queue_tags
.Lfunc_begin38:
	.loc	2 804 0                 // /mnt/disk/jenkins/workspace/chipset_10.1.0_release_5G/opensource/component_code/vendor/huawei/extra/build/build_script/kirin_kernel_release/kernel/block/hisi-blk-core.c:804:0
	.cfi_startproc
// %bb.0:
	str	x21, [sp, #-48]!        // 8-byte Folded Spill
	stp	x20, x19, [sp, #16]     // 16-byte Folded Spill
	stp	x29, x30, [sp, #32]     // 16-byte Folded Spill
	add	x29, sp, #32            // =32
	.cfi_def_cfa w29, 16
	.cfi_offset w30, -8
	.cfi_offset w29, -16
	.cfi_offset w19, -24
	.cfi_offset w20, -32
	.cfi_offset w21, -48
	//DEBUG_VALUE: blk_add_queue_tags:tags <- $x0
	//DEBUG_VALUE: blk_add_queue_tags:q <- $x1
.Ltmp407:
	.loc	2 805 20 prologue_end   // /mnt/disk/jenkins/workspace/chipset_10.1.0_release_5G/opensource/component_code/vendor/huawei/extra/build/build_script/kirin_kernel_release/kernel/block/hisi-blk-core.c:805:20
	add	x21, x0, #40            // =40
	mov	x20, x0
.Ltmp408:
	//DEBUG_VALUE: blk_add_queue_tags:q <- $x19
	//DEBUG_VALUE: blk_add_queue_tags:tags <- $x20
	.loc	2 805 2 is_stmt 0       // /mnt/disk/jenkins/workspace/chipset_10.1.0_release_5G/opensource/component_code/vendor/huawei/extra/build/build_script/kirin_kernel_release/kernel/block/hisi-blk-core.c:805:2
	mov	x0, x21
	mov	x19, x1
.Ltmp409:
	bl	mutex_lock
.Ltmp410:
	.loc	138 93 24 is_stmt 1     // /mnt/disk/jenkins/workspace/chipset_10.1.0_release_5G/opensource/component_code/vendor/huawei/extra/build/build_script/kirin_kernel_release/kernel/include/linux/list.h:93:24
	ldr	x9, [x20, #112]
.Ltmp411:
	.loc	2 806 20                // /mnt/disk/jenkins/workspace/chipset_10.1.0_release_5G/opensource/component_code/vendor/huawei/extra/build/build_script/kirin_kernel_release/kernel/block/hisi-blk-core.c:806:20
	add	x8, x19, #3320          // =3320
.Ltmp412:
	//DEBUG_VALUE: list_add_tail:new <- $x8
	.loc	2 806 41 is_stmt 0      // /mnt/disk/jenkins/workspace/chipset_10.1.0_release_5G/opensource/component_code/vendor/huawei/extra/build/build_script/kirin_kernel_release/kernel/block/hisi-blk-core.c:806:41
	add	x10, x20, #104          // =104
.Ltmp413:
	//DEBUG_VALUE: list_add_tail:head <- $x10
	//DEBUG_VALUE: __list_add:next <- $x10
	//DEBUG_VALUE: __list_add:prev <- $x9
	//DEBUG_VALUE: __list_add:new <- $x8
	.loc	2 807 2 is_stmt 1       // /mnt/disk/jenkins/workspace/chipset_10.1.0_release_5G/opensource/component_code/vendor/huawei/extra/build/build_script/kirin_kernel_release/kernel/block/hisi-blk-core.c:807:2
	mov	x0, x21
.Ltmp414:
	.loc	138 63 13               // /mnt/disk/jenkins/workspace/chipset_10.1.0_release_5G/opensource/component_code/vendor/huawei/extra/build/build_script/kirin_kernel_release/kernel/include/linux/list.h:63:13
	str	x8, [x20, #112]
	//DEBUG_VALUE: list_add_tail:new <- $x8
	.loc	138 64 12               // /mnt/disk/jenkins/workspace/chipset_10.1.0_release_5G/opensource/component_code/vendor/huawei/extra/build/build_script/kirin_kernel_release/kernel/include/linux/list.h:64:12
	str	x10, [x19, #3320]
	.loc	138 65 12               // /mnt/disk/jenkins/workspace/chipset_10.1.0_release_5G/opensource/component_code/vendor/huawei/extra/build/build_script/kirin_kernel_release/kernel/include/linux/list.h:65:12
	str	x9, [x19, #3328]
.Ltmp415:
	//DEBUG_VALUE: __write_once_size:p <- $x9
	//DEBUG_VALUE: __write_once_size:size <- 8
	//DEBUG_VALUE: __write_once_size:res <- undef
	.loc	137 213 31              // /mnt/disk/jenkins/workspace/chipset_10.1.0_release_5G/opensource/component_code/vendor/huawei/extra/build/build_script/kirin_kernel_release/kernel/include/linux/compiler.h:213:31
	str	x8, [x9]
.Ltmp416:
	.loc	2 807 2                 // /mnt/disk/jenkins/workspace/chipset_10.1.0_release_5G/opensource/component_code/vendor/huawei/extra/build/build_script/kirin_kernel_release/kernel/block/hisi-blk-core.c:807:2
	bl	mutex_unlock
.Ltmp417:
	.loc	2 808 1                 // /mnt/disk/jenkins/workspace/chipset_10.1.0_release_5G/opensource/component_code/vendor/huawei/extra/build/build_script/kirin_kernel_release/kernel/block/hisi-blk-core.c:808:1
	ldp	x29, x30, [sp, #32]     // 16-byte Folded Reload
	ldp	x20, x19, [sp, #16]     // 16-byte Folded Reload
.Ltmp418:
	ldr	x21, [sp], #48          // 8-byte Folded Reload
	ret
.Ltmp419:
.Lfunc_end38:
	.size	blk_add_queue_tags, .Lfunc_end38-blk_add_queue_tags
	.cfi_endproc
                                        // -- End function
	.section	.text.hisi_blk_mq_allocated_tagset_init,"ax",@progbits
	.hidden	hisi_blk_mq_allocated_tagset_init // -- Begin function hisi_blk_mq_allocated_tagset_init
	.globl	hisi_blk_mq_allocated_tagset_init
	.p2align	2
	.type	hisi_blk_mq_allocated_tagset_init,@function
hisi_blk_mq_allocated_tagset_init:      // @hisi_blk_mq_allocated_tagset_init
.Lfunc_begin39:
	.loc	2 814 0                 // /mnt/disk/jenkins/workspace/chipset_10.1.0_release_5G/opensource/component_code/vendor/huawei/extra/build/build_script/kirin_kernel_release/kernel/block/hisi-blk-core.c:814:0
	.cfi_startproc
// %bb.0:
	stp	x20, x19, [sp, #-32]!   // 16-byte Folded Spill
	stp	x29, x30, [sp, #16]     // 16-byte Folded Spill
	add	x29, sp, #16            // =16
	.cfi_def_cfa w29, 16
	.cfi_offset w30, -8
	.cfi_offset w29, -16
	.cfi_offset w19, -24
	.cfi_offset w20, -32
	//DEBUG_VALUE: hisi_blk_mq_allocated_tagset_init:set <- $x0
.Ltmp420:
	//DEBUG_VALUE: hisi_blk_dev_lld_init:blk_lld <- [DW_OP_plus_uconst 16, DW_OP_stack_value] $x0
	//DEBUG_VALUE: hisi_blk_dev_lld_init:data <- $x0
	mov	x8, #122
	movk	x8, #2, lsl #32
.Ltmp421:
	//DEBUG_VALUE: hisi_blk_dev_lld_init:type <- 2
	//DEBUG_VALUE: hisi_blk_dev_lld_init:data <- $x19
	//DEBUG_VALUE: hisi_blk_dev_lld_init:blk_lld <- [DW_OP_plus_uconst 16, DW_OP_stack_value] $x19
	//DEBUG_VALUE: hisi_blk_mq_allocated_tagset_init:set <- $x19
	.loc	2 694 42 prologue_end   // /mnt/disk/jenkins/workspace/chipset_10.1.0_release_5G/opensource/component_code/vendor/huawei/extra/build/build_script/kirin_kernel_release/kernel/block/hisi-blk-core.c:694:42
	add	x20, x0, #96            // =96
	mov	x19, x0
.Ltmp422:
	.loc	2 691 22                // /mnt/disk/jenkins/workspace/chipset_10.1.0_release_5G/opensource/component_code/vendor/huawei/extra/build/build_script/kirin_kernel_release/kernel/block/hisi-blk-core.c:691:22
	stp	x8, x0, [x0, #16]
	.loc	2 694 2                 // /mnt/disk/jenkins/workspace/chipset_10.1.0_release_5G/opensource/component_code/vendor/huawei/extra/build/build_script/kirin_kernel_release/kernel/block/hisi-blk-core.c:694:2
	mov	x0, x20
	bl	hisi_blk_busy_idle_state_init
.Ltmp423:
	.loc	2 695 15                // /mnt/disk/jenkins/workspace/chipset_10.1.0_release_5G/opensource/component_code/vendor/huawei/extra/build/build_script/kirin_kernel_release/kernel/block/hisi-blk-core.c:695:15
	ldr	x8, [x19, #40]
.Ltmp424:
	.loc	2 695 6 is_stmt 0       // /mnt/disk/jenkins/workspace/chipset_10.1.0_release_5G/opensource/component_code/vendor/huawei/extra/build/build_script/kirin_kernel_release/kernel/block/hisi-blk-core.c:695:6
	tbz	w8, #6, .LBB39_2
// %bb.1:
	.loc	2 0 6                   // /mnt/disk/jenkins/workspace/chipset_10.1.0_release_5G/opensource/component_code/vendor/huawei/extra/build/build_script/kirin_kernel_release/kernel/block/hisi-blk-core.c:0:6
	orr	w9, wzr, #0x1
.Ltmp425:
	.loc	2 696 39 is_stmt 1      // /mnt/disk/jenkins/workspace/chipset_10.1.0_release_5G/opensource/component_code/vendor/huawei/extra/build/build_script/kirin_kernel_release/kernel/block/hisi-blk-core.c:696:39
	strb	w9, [x20]
.Ltmp426:
.LBB39_2:
	.loc	2 0 39 is_stmt 0        // /mnt/disk/jenkins/workspace/chipset_10.1.0_release_5G/opensource/component_code/vendor/huawei/extra/build/build_script/kirin_kernel_release/kernel/block/hisi-blk-core.c:0:39
	adrp	x10, hisi_ufs_blk_tagset_ops
	.loc	2 698 24 is_stmt 1      // /mnt/disk/jenkins/workspace/chipset_10.1.0_release_5G/opensource/component_code/vendor/huawei/extra/build/build_script/kirin_kernel_release/kernel/block/hisi-blk-core.c:698:24
	orr	x9, x8, #0x80
.Ltmp427:
	.loc	2 820 33                // /mnt/disk/jenkins/workspace/chipset_10.1.0_release_5G/opensource/component_code/vendor/huawei/extra/build/build_script/kirin_kernel_release/kernel/block/hisi-blk-core.c:820:33
	lsl	x8, x8, #58
	add	x10, x10, :lo12:hisi_ufs_blk_tagset_ops
	and	x8, x10, x8, asr #63
.Ltmp428:
	.loc	2 701 17                // /mnt/disk/jenkins/workspace/chipset_10.1.0_release_5G/opensource/component_code/vendor/huawei/extra/build/build_script/kirin_kernel_release/kernel/block/hisi-blk-core.c:701:17
	str	xzr, [x19, #944]
	.loc	2 698 24                // /mnt/disk/jenkins/workspace/chipset_10.1.0_release_5G/opensource/component_code/vendor/huawei/extra/build/build_script/kirin_kernel_release/kernel/block/hisi-blk-core.c:698:24
	str	x9, [x19, #40]
.Ltmp429:
	.loc	2 0 0 is_stmt 0         // /mnt/disk/jenkins/workspace/chipset_10.1.0_release_5G/opensource/component_code/vendor/huawei/extra/build/build_script/kirin_kernel_release/kernel/block/hisi-blk-core.c:0:0
	str	x8, [x19, #952]
.Ltmp430:
	.loc	2 825 1 is_stmt 1       // /mnt/disk/jenkins/workspace/chipset_10.1.0_release_5G/opensource/component_code/vendor/huawei/extra/build/build_script/kirin_kernel_release/kernel/block/hisi-blk-core.c:825:1
	ldp	x29, x30, [sp, #16]     // 16-byte Folded Reload
	ldp	x20, x19, [sp], #32     // 16-byte Folded Reload
	ret
.Ltmp431:
.Lfunc_end39:
	.size	hisi_blk_mq_allocated_tagset_init, .Lfunc_end39-hisi_blk_mq_allocated_tagset_init
	.cfi_endproc
                                        // -- End function
	.section	.text.hisi_blk_queue_register,"ax",@progbits
	.hidden	hisi_blk_queue_register // -- Begin function hisi_blk_queue_register
	.globl	hisi_blk_queue_register
	.p2align	2
	.type	hisi_blk_queue_register,@function
hisi_blk_queue_register:                // @hisi_blk_queue_register
.Lfunc_begin40:
	.loc	2 831 0                 // /mnt/disk/jenkins/workspace/chipset_10.1.0_release_5G/opensource/component_code/vendor/huawei/extra/build/build_script/kirin_kernel_release/kernel/block/hisi-blk-core.c:831:0
	.cfi_startproc
// %bb.0:
	//DEBUG_VALUE: hisi_blk_queue_register:q <- $x0
	//DEBUG_VALUE: hisi_blk_queue_register:q <- $x0
	//DEBUG_VALUE: hisi_blk_queue_register:disk <- $x1
	//DEBUG_VALUE: hisi_blk_queue_register:disk <- $x1
	.loc	2 832 27 prologue_end   // /mnt/disk/jenkins/workspace/chipset_10.1.0_release_5G/opensource/component_code/vendor/huawei/extra/build/build_script/kirin_kernel_release/kernel/block/hisi-blk-core.c:832:27
	str	x1, [x0, #1536]
	.loc	2 833 1                 // /mnt/disk/jenkins/workspace/chipset_10.1.0_release_5G/opensource/component_code/vendor/huawei/extra/build/build_script/kirin_kernel_release/kernel/block/hisi-blk-core.c:833:1
	ret
.Ltmp432:
.Lfunc_end40:
	.size	hisi_blk_queue_register, .Lfunc_end40-hisi_blk_queue_register
	.cfi_endproc
                                        // -- End function
	.section	.init.text,"ax",@progbits
	.hidden	hisi_blk_dev_init       // -- Begin function hisi_blk_dev_init
	.globl	hisi_blk_dev_init
	.p2align	2
	.type	hisi_blk_dev_init,@function
hisi_blk_dev_init:                      // @hisi_blk_dev_init
.Lfunc_begin41:
	.loc	2 839 0                 // /mnt/disk/jenkins/workspace/chipset_10.1.0_release_5G/opensource/component_code/vendor/huawei/extra/build/build_script/kirin_kernel_release/kernel/block/hisi-blk-core.c:839:0
	.cfi_startproc
// %bb.0:
	stp	x29, x30, [sp, #-16]!   // 16-byte Folded Spill
	mov	x29, sp
	.cfi_def_cfa w29, 16
	.cfi_offset w30, -8
	.cfi_offset w29, -16
.Ltmp433:
	.loc	2 840 2 prologue_end    // /mnt/disk/jenkins/workspace/chipset_10.1.0_release_5G/opensource/component_code/vendor/huawei/extra/build/build_script/kirin_kernel_release/kernel/block/hisi-blk-core.c:840:2
	bl	hisi_blk_dump_init
	.loc	2 841 2                 // /mnt/disk/jenkins/workspace/chipset_10.1.0_release_5G/opensource/component_code/vendor/huawei/extra/build/build_script/kirin_kernel_release/kernel/block/hisi-blk-core.c:841:2
	bl	hisi_blk_latency_init
	.loc	2 843 2                 // /mnt/disk/jenkins/workspace/chipset_10.1.0_release_5G/opensource/component_code/vendor/huawei/extra/build/build_script/kirin_kernel_release/kernel/block/hisi-blk-core.c:843:2
	bl	hisi_blk_dsm_init
	.loc	2 845 2                 // /mnt/disk/jenkins/workspace/chipset_10.1.0_release_5G/opensource/component_code/vendor/huawei/extra/build/build_script/kirin_kernel_release/kernel/block/hisi-blk-core.c:845:2
	mov	w0, wzr
	ldp	x29, x30, [sp], #16     // 16-byte Folded Reload
	ret
.Ltmp434:
.Lfunc_end41:
	.size	hisi_blk_dev_init, .Lfunc_end41-hisi_blk_dev_init
	.cfi_endproc
                                        // -- End function
	.section	.text.blk_generic_freeze,"ax",@progbits
	.hidden	blk_generic_freeze      // -- Begin function blk_generic_freeze
	.globl	blk_generic_freeze
	.p2align	2
	.type	blk_generic_freeze,@function
blk_generic_freeze:                     // @blk_generic_freeze
.Lfunc_begin42:
	.loc	2 854 0                 // /mnt/disk/jenkins/workspace/chipset_10.1.0_release_5G/opensource/component_code/vendor/huawei/extra/build/build_script/kirin_kernel_release/kernel/block/hisi-blk-core.c:854:0
	.cfi_startproc
// %bb.0:
	str	x21, [sp, #-48]!        // 8-byte Folded Spill
	stp	x20, x19, [sp, #16]     // 16-byte Folded Spill
	stp	x29, x30, [sp, #32]     // 16-byte Folded Spill
	add	x29, sp, #32            // =32
	.cfi_def_cfa w29, 16
	.cfi_offset w30, -8
	.cfi_offset w29, -16
	.cfi_offset w19, -24
	.cfi_offset w20, -32
	.cfi_offset w21, -48
	//DEBUG_VALUE: blk_generic_freeze:freeze_obj <- $x0
	//DEBUG_VALUE: blk_generic_freeze:type <- $w1
	//DEBUG_VALUE: blk_generic_freeze:freeze <- $w2
.Ltmp435:
	//DEBUG_VALUE: blk_generic_freeze:q <- $x0
	//DEBUG_VALUE: hisi_blk_freeze_lld:lld <- $x0
	//DEBUG_VALUE: blk_generic_freeze:lld <- $x0
	//DEBUG_VALUE: blk_generic_freeze:lld <- $x0
	//DEBUG_VALUE: hisi_blk_freeze_lld:lld <- $x0
	//DEBUG_VALUE: blk_generic_freeze:q <- $x0
	//DEBUG_VALUE: blk_generic_freeze:type <- $w1
	//DEBUG_VALUE: blk_generic_freeze:freeze_obj <- $x0
	.loc	2 858 6 prologue_end    // /mnt/disk/jenkins/workspace/chipset_10.1.0_release_5G/opensource/component_code/vendor/huawei/extra/build/build_script/kirin_kernel_release/kernel/block/hisi-blk-core.c:858:6
	cbz	x0, .LBB42_17
.Ltmp436:
// %bb.1:
	//DEBUG_VALUE: blk_generic_freeze:lld <- $x0
	//DEBUG_VALUE: hisi_blk_freeze_lld:lld <- $x0
	//DEBUG_VALUE: blk_generic_freeze:q <- $x0
	//DEBUG_VALUE: blk_generic_freeze:freeze <- $w2
	//DEBUG_VALUE: blk_generic_freeze:type <- $w1
	//DEBUG_VALUE: blk_generic_freeze:freeze_obj <- $x0
	.loc	2 0 6 is_stmt 0         // /mnt/disk/jenkins/workspace/chipset_10.1.0_release_5G/opensource/component_code/vendor/huawei/extra/build/build_script/kirin_kernel_release/kernel/block/hisi-blk-core.c:0:6
	mov	w19, w2
.Ltmp437:
	//DEBUG_VALUE: blk_generic_freeze:freeze <- $w19
	//DEBUG_VALUE: blk_generic_freeze:freeze <- $w19
	//DEBUG_VALUE: hisi_blk_freeze_lld:freeze <- $w19
	.loc	2 865 2 is_stmt 1       // /mnt/disk/jenkins/workspace/chipset_10.1.0_release_5G/opensource/component_code/vendor/huawei/extra/build/build_script/kirin_kernel_release/kernel/block/hisi-blk-core.c:865:2
	cmp	w1, #1                  // =1
	b.eq	.LBB42_8
.Ltmp438:
// %bb.2:
	//DEBUG_VALUE: blk_generic_freeze:freeze <- $w19
	//DEBUG_VALUE: blk_generic_freeze:lld <- $x0
	//DEBUG_VALUE: blk_generic_freeze:q <- $x0
	//DEBUG_VALUE: blk_generic_freeze:type <- $w1
	//DEBUG_VALUE: blk_generic_freeze:freeze_obj <- $x0
	cbnz	w1, .LBB42_17
.Ltmp439:
// %bb.3:
	//DEBUG_VALUE: blk_generic_freeze:freeze <- $w19
	//DEBUG_VALUE: blk_generic_freeze:lld <- $x0
	//DEBUG_VALUE: blk_generic_freeze:q <- $x0
	//DEBUG_VALUE: blk_generic_freeze:type <- $w1
	//DEBUG_VALUE: blk_generic_freeze:freeze_obj <- $x0
	.loc	2 58 15                 // /mnt/disk/jenkins/workspace/chipset_10.1.0_release_5G/opensource/component_code/vendor/huawei/extra/build/build_script/kirin_kernel_release/kernel/block/hisi-blk-core.c:58:15
	ldr	w8, [x0, #4]
	.loc	2 58 2 is_stmt 0        // /mnt/disk/jenkins/workspace/chipset_10.1.0_release_5G/opensource/component_code/vendor/huawei/extra/build/build_script/kirin_kernel_release/kernel/block/hisi-blk-core.c:58:2
	cmp	w8, #2                  // =2
	b.eq	.LBB42_11
.Ltmp440:
// %bb.4:
	//DEBUG_VALUE: blk_generic_freeze:freeze <- $w19
	//DEBUG_VALUE: blk_generic_freeze:lld <- $x0
	//DEBUG_VALUE: blk_generic_freeze:q <- $x0
	//DEBUG_VALUE: blk_generic_freeze:type <- $w1
	//DEBUG_VALUE: blk_generic_freeze:freeze_obj <- $x0
	cbnz	w8, .LBB42_17
.Ltmp441:
// %bb.5:
	//DEBUG_VALUE: blk_generic_freeze:freeze <- $w19
	//DEBUG_VALUE: blk_generic_freeze:lld <- $x0
	//DEBUG_VALUE: blk_generic_freeze:q <- $x0
	//DEBUG_VALUE: blk_generic_freeze:type <- $w1
	//DEBUG_VALUE: blk_generic_freeze:freeze_obj <- $x0
	.loc	2 60 37 is_stmt 1       // /mnt/disk/jenkins/workspace/chipset_10.1.0_release_5G/opensource/component_code/vendor/huawei/extra/build/build_script/kirin_kernel_release/kernel/block/hisi-blk-core.c:60:37
	ldr	x0, [x0, #8]
.Ltmp442:
	//DEBUG_VALUE: hisi_blk_freeze_lld:q <- $x0
	.loc	2 61 10                 // /mnt/disk/jenkins/workspace/chipset_10.1.0_release_5G/opensource/component_code/vendor/huawei/extra/build/build_script/kirin_kernel_release/kernel/block/hisi-blk-core.c:61:10
	ldr	x8, [x0, #312]
.Ltmp443:
	.loc	2 61 7 is_stmt 0        // /mnt/disk/jenkins/workspace/chipset_10.1.0_release_5G/opensource/component_code/vendor/huawei/extra/build/build_script/kirin_kernel_release/kernel/block/hisi-blk-core.c:61:7
	cbz	x8, .LBB42_17
.Ltmp444:
// %bb.6:
	//DEBUG_VALUE: hisi_blk_freeze_lld:q <- $x0
	//DEBUG_VALUE: blk_generic_freeze:freeze <- $w19
	//DEBUG_VALUE: blk_generic_freeze:type <- $w1
	.loc	2 62 8 is_stmt 1        // /mnt/disk/jenkins/workspace/chipset_10.1.0_release_5G/opensource/component_code/vendor/huawei/extra/build/build_script/kirin_kernel_release/kernel/block/hisi-blk-core.c:62:8
	tbnz	w19, #0, .LBB42_10
.Ltmp445:
.LBB42_7:
	//DEBUG_VALUE: blk_generic_freeze:freeze <- $w19
	//DEBUG_VALUE: blk_generic_freeze:type <- $w1
	.loc	2 0 0 is_stmt 0         // /mnt/disk/jenkins/workspace/chipset_10.1.0_release_5G/opensource/component_code/vendor/huawei/extra/build/build_script/kirin_kernel_release/kernel/block/hisi-blk-core.c:0:0
	bl	blk_mq_unfreeze_queue
.Ltmp446:
	b	.LBB42_17
.Ltmp447:
.LBB42_8:
	//DEBUG_VALUE: blk_generic_freeze:freeze <- $w19
	//DEBUG_VALUE: blk_generic_freeze:lld <- $x0
	//DEBUG_VALUE: blk_generic_freeze:q <- $x0
	//DEBUG_VALUE: blk_generic_freeze:type <- $w1
	//DEBUG_VALUE: blk_generic_freeze:freeze_obj <- $x0
	.loc	2 872 10 is_stmt 1      // /mnt/disk/jenkins/workspace/chipset_10.1.0_release_5G/opensource/component_code/vendor/huawei/extra/build/build_script/kirin_kernel_release/kernel/block/hisi-blk-core.c:872:10
	ldr	x8, [x0, #312]
.Ltmp448:
	.loc	2 872 7 is_stmt 0       // /mnt/disk/jenkins/workspace/chipset_10.1.0_release_5G/opensource/component_code/vendor/huawei/extra/build/build_script/kirin_kernel_release/kernel/block/hisi-blk-core.c:872:7
	cbz	x8, .LBB42_17
.Ltmp449:
// %bb.9:
	//DEBUG_VALUE: blk_generic_freeze:freeze <- $w19
	//DEBUG_VALUE: blk_generic_freeze:lld <- $x0
	//DEBUG_VALUE: blk_generic_freeze:q <- $x0
	//DEBUG_VALUE: blk_generic_freeze:type <- $w1
	//DEBUG_VALUE: blk_generic_freeze:freeze_obj <- $x0
	.loc	2 873 8 is_stmt 1       // /mnt/disk/jenkins/workspace/chipset_10.1.0_release_5G/opensource/component_code/vendor/huawei/extra/build/build_script/kirin_kernel_release/kernel/block/hisi-blk-core.c:873:8
	tbz	w19, #0, .LBB42_7
.Ltmp450:
.LBB42_10:
	//DEBUG_VALUE: blk_generic_freeze:freeze <- $w19
	//DEBUG_VALUE: blk_generic_freeze:type <- $w1
	.loc	2 0 0 is_stmt 0         // /mnt/disk/jenkins/workspace/chipset_10.1.0_release_5G/opensource/component_code/vendor/huawei/extra/build/build_script/kirin_kernel_release/kernel/block/hisi-blk-core.c:0:0
	bl	blk_mq_freeze_queue
.Ltmp451:
	b	.LBB42_17
.Ltmp452:
.LBB42_11:
	//DEBUG_VALUE: blk_generic_freeze:freeze <- $w19
	//DEBUG_VALUE: blk_generic_freeze:lld <- $x0
	//DEBUG_VALUE: blk_generic_freeze:q <- $x0
	//DEBUG_VALUE: blk_generic_freeze:type <- $w1
	//DEBUG_VALUE: blk_generic_freeze:freeze_obj <- $x0
	.loc	2 71 44 is_stmt 1       // /mnt/disk/jenkins/workspace/chipset_10.1.0_release_5G/opensource/component_code/vendor/huawei/extra/build/build_script/kirin_kernel_release/kernel/block/hisi-blk-core.c:71:44
	ldr	x8, [x0, #8]
.Ltmp453:
	//DEBUG_VALUE: hisi_blk_freeze_lld:tag_set <- $x8
	.loc	2 0 0 is_stmt 0         // /mnt/disk/jenkins/workspace/chipset_10.1.0_release_5G/opensource/component_code/vendor/huawei/extra/build/build_script/kirin_kernel_release/kernel/block/hisi-blk-core.c:0:0
	ldr	x20, [x8, #1072]
.Ltmp454:
	//DEBUG_VALUE: hisi_blk_freeze_lld:q <- [DW_OP_constu 3320, DW_OP_minus, DW_OP_stack_value] $x20
	.loc	2 72 3 is_stmt 1        // /mnt/disk/jenkins/workspace/chipset_10.1.0_release_5G/opensource/component_code/vendor/huawei/extra/build/build_script/kirin_kernel_release/kernel/block/hisi-blk-core.c:72:3
	add	x21, x8, #1072          // =1072
.Ltmp455:
	//DEBUG_VALUE: hisi_blk_freeze_lld:q <- [DW_OP_deref, DW_OP_constu 3320, DW_OP_minus, DW_OP_stack_value] $x21
	//DEBUG_VALUE: __mptr <- [DW_OP_deref] $x21
	.loc	2 72 3 is_stmt 0        // /mnt/disk/jenkins/workspace/chipset_10.1.0_release_5G/opensource/component_code/vendor/huawei/extra/build/build_script/kirin_kernel_release/kernel/block/hisi-blk-core.c:72:3
	cmp	x21, x20
	b.eq	.LBB42_17
.Ltmp456:
.LBB42_12:                              // =>This Inner Loop Header: Depth=1
	//DEBUG_VALUE: hisi_blk_freeze_lld:q <- [DW_OP_deref, DW_OP_constu 3320, DW_OP_minus, DW_OP_stack_value] $x21
	//DEBUG_VALUE: hisi_blk_freeze_lld:tag_set <- $x8
	//DEBUG_VALUE: blk_generic_freeze:freeze <- $w19
	//DEBUG_VALUE: blk_generic_freeze:lld <- $x0
	//DEBUG_VALUE: blk_generic_freeze:q <- $x0
	//DEBUG_VALUE: blk_generic_freeze:type <- $w1
	//DEBUG_VALUE: blk_generic_freeze:freeze_obj <- $x0
	.loc	2 74 11 is_stmt 1       // /mnt/disk/jenkins/workspace/chipset_10.1.0_release_5G/opensource/component_code/vendor/huawei/extra/build/build_script/kirin_kernel_release/kernel/block/hisi-blk-core.c:74:11
	sub	x8, x20, #3008          // =3008
.Ltmp457:
	ldr	x8, [x8]
.Ltmp458:
	.loc	2 74 8 is_stmt 0        // /mnt/disk/jenkins/workspace/chipset_10.1.0_release_5G/opensource/component_code/vendor/huawei/extra/build/build_script/kirin_kernel_release/kernel/block/hisi-blk-core.c:74:8
	cbz	x8, .LBB42_16
.Ltmp459:
// %bb.13:                              //   in Loop: Header=BB42_12 Depth=1
	//DEBUG_VALUE: hisi_blk_freeze_lld:q <- [DW_OP_deref, DW_OP_constu 3320, DW_OP_minus, DW_OP_stack_value] $x21
	//DEBUG_VALUE: blk_generic_freeze:freeze <- $w19
	//DEBUG_VALUE: blk_generic_freeze:lld <- $x0
	//DEBUG_VALUE: blk_generic_freeze:q <- $x0
	//DEBUG_VALUE: blk_generic_freeze:type <- $w1
	//DEBUG_VALUE: blk_generic_freeze:freeze_obj <- $x0
	.loc	2 0 0                   // /mnt/disk/jenkins/workspace/chipset_10.1.0_release_5G/opensource/component_code/vendor/huawei/extra/build/build_script/kirin_kernel_release/kernel/block/hisi-blk-core.c:0:0
	sub	x0, x20, #3320          // =3320
.Ltmp460:
	.loc	2 75 9 is_stmt 1        // /mnt/disk/jenkins/workspace/chipset_10.1.0_release_5G/opensource/component_code/vendor/huawei/extra/build/build_script/kirin_kernel_release/kernel/block/hisi-blk-core.c:75:9
	tbz	w19, #0, .LBB42_15
.Ltmp461:
// %bb.14:                              //   in Loop: Header=BB42_12 Depth=1
	//DEBUG_VALUE: hisi_blk_freeze_lld:q <- [DW_OP_deref, DW_OP_constu 3320, DW_OP_minus, DW_OP_stack_value] $x21
	//DEBUG_VALUE: blk_generic_freeze:freeze <- $w19
	//DEBUG_VALUE: blk_generic_freeze:type <- $w1
	.loc	2 76 6                  // /mnt/disk/jenkins/workspace/chipset_10.1.0_release_5G/opensource/component_code/vendor/huawei/extra/build/build_script/kirin_kernel_release/kernel/block/hisi-blk-core.c:76:6
	bl	blk_mq_freeze_queue
.Ltmp462:
	//DEBUG_VALUE: hisi_blk_freeze_lld:q <- [DW_OP_deref, DW_OP_constu 3320, DW_OP_minus, DW_OP_stack_value] $x20
	//DEBUG_VALUE: __mptr <- [DW_OP_deref] $x20
	.loc	2 0 0 is_stmt 0         // /mnt/disk/jenkins/workspace/chipset_10.1.0_release_5G/opensource/component_code/vendor/huawei/extra/build/build_script/kirin_kernel_release/kernel/block/hisi-blk-core.c:0:0
	ldr	x20, [x20]
.Ltmp463:
	//DEBUG_VALUE: hisi_blk_freeze_lld:q <- [DW_OP_deref, DW_OP_constu 3320, DW_OP_minus, DW_OP_stack_value] $x21
	//DEBUG_VALUE: __mptr <- [DW_OP_deref] $x21
	.loc	2 72 3 is_stmt 1        // /mnt/disk/jenkins/workspace/chipset_10.1.0_release_5G/opensource/component_code/vendor/huawei/extra/build/build_script/kirin_kernel_release/kernel/block/hisi-blk-core.c:72:3
	cmp	x21, x20
	b.ne	.LBB42_12
	b	.LBB42_17
.Ltmp464:
.LBB42_15:                              //   in Loop: Header=BB42_12 Depth=1
	//DEBUG_VALUE: hisi_blk_freeze_lld:q <- [DW_OP_deref, DW_OP_constu 3320, DW_OP_minus, DW_OP_stack_value] $x21
	//DEBUG_VALUE: blk_generic_freeze:freeze <- $w19
	//DEBUG_VALUE: blk_generic_freeze:type <- $w1
	.loc	2 78 6                  // /mnt/disk/jenkins/workspace/chipset_10.1.0_release_5G/opensource/component_code/vendor/huawei/extra/build/build_script/kirin_kernel_release/kernel/block/hisi-blk-core.c:78:6
	bl	blk_mq_unfreeze_queue
.Ltmp465:
.LBB42_16:                              //   in Loop: Header=BB42_12 Depth=1
	//DEBUG_VALUE: hisi_blk_freeze_lld:q <- [DW_OP_deref, DW_OP_constu 3320, DW_OP_minus, DW_OP_stack_value] $x21
	//DEBUG_VALUE: blk_generic_freeze:freeze <- $w19
	//DEBUG_VALUE: hisi_blk_freeze_lld:q <- [DW_OP_deref, DW_OP_constu 3320, DW_OP_minus, DW_OP_stack_value] $x20
	//DEBUG_VALUE: __mptr <- [DW_OP_deref] $x20
	.loc	2 0 0 is_stmt 0         // /mnt/disk/jenkins/workspace/chipset_10.1.0_release_5G/opensource/component_code/vendor/huawei/extra/build/build_script/kirin_kernel_release/kernel/block/hisi-blk-core.c:0:0
	ldr	x20, [x20]
.Ltmp466:
	//DEBUG_VALUE: hisi_blk_freeze_lld:q <- [DW_OP_deref, DW_OP_constu 3320, DW_OP_minus, DW_OP_stack_value] $x21
	//DEBUG_VALUE: __mptr <- [DW_OP_deref] $x21
	.loc	2 72 3 is_stmt 1        // /mnt/disk/jenkins/workspace/chipset_10.1.0_release_5G/opensource/component_code/vendor/huawei/extra/build/build_script/kirin_kernel_release/kernel/block/hisi-blk-core.c:72:3
	cmp	x21, x20
	b.ne	.LBB42_12
.Ltmp467:
.LBB42_17:
	.loc	2 885 1                 // /mnt/disk/jenkins/workspace/chipset_10.1.0_release_5G/opensource/component_code/vendor/huawei/extra/build/build_script/kirin_kernel_release/kernel/block/hisi-blk-core.c:885:1
	ldp	x29, x30, [sp, #32]     // 16-byte Folded Reload
	ldp	x20, x19, [sp, #16]     // 16-byte Folded Reload
	ldr	x21, [sp], #48          // 8-byte Folded Reload
	ret
.Ltmp468:
.Lfunc_end42:
	.size	blk_generic_freeze, .Lfunc_end42-blk_generic_freeze
	.cfi_endproc
                                        // -- End function
	.section	.text.hisi_queue_status_show,"ax",@progbits
	.hidden	hisi_queue_status_show  // -- Begin function hisi_queue_status_show
	.globl	hisi_queue_status_show
	.p2align	2
	.type	hisi_queue_status_show,@function
hisi_queue_status_show:                 // @hisi_queue_status_show
.Lfunc_begin43:
	.loc	2 889 0                 // /mnt/disk/jenkins/workspace/chipset_10.1.0_release_5G/opensource/component_code/vendor/huawei/extra/build/build_script/kirin_kernel_release/kernel/block/hisi-blk-core.c:889:0
	.cfi_startproc
// %bb.0:
	stp	x22, x21, [sp, #-48]!   // 16-byte Folded Spill
	stp	x20, x19, [sp, #16]     // 16-byte Folded Spill
	stp	x29, x30, [sp, #32]     // 16-byte Folded Spill
	add	x29, sp, #32            // =32
	.cfi_def_cfa w29, 16
	.cfi_offset w30, -8
	.cfi_offset w29, -16
	.cfi_offset w19, -24
	.cfi_offset w20, -32
	.cfi_offset w21, -40
	.cfi_offset w22, -48
	//DEBUG_VALUE: hisi_queue_status_show:q <- $x0
	//DEBUG_VALUE: hisi_queue_status_show:page <- $x1
.Ltmp469:
	//DEBUG_VALUE: hisi_blk_get_lld:q <- $x0
	.loc	2 27 6 prologue_end     // /mnt/disk/jenkins/workspace/chipset_10.1.0_release_5G/opensource/component_code/vendor/huawei/extra/build/build_script/kirin_kernel_release/kernel/block/hisi-blk-core.c:27:6
	ldr	x8, [x0, #312]
	mov	x19, x0
.Ltmp470:
	//DEBUG_VALUE: hisi_blk_get_lld:q <- $x19
	//DEBUG_VALUE: hisi_queue_status_show:q <- $x19
	.loc	2 0 6 is_stmt 0         // /mnt/disk/jenkins/workspace/chipset_10.1.0_release_5G/opensource/component_code/vendor/huawei/extra/build/build_script/kirin_kernel_release/kernel/block/hisi-blk-core.c:0:6
	mov	x20, x1
.Ltmp471:
	//DEBUG_VALUE: hisi_queue_status_show:page <- $x20
	.loc	2 27 6                  // /mnt/disk/jenkins/workspace/chipset_10.1.0_release_5G/opensource/component_code/vendor/huawei/extra/build/build_script/kirin_kernel_release/kernel/block/hisi-blk-core.c:27:6
	cbz	x8, .LBB43_3
.Ltmp472:
// %bb.1:
	//DEBUG_VALUE: hisi_queue_status_show:page <- $x20
	//DEBUG_VALUE: hisi_queue_status_show:q <- $x19
	//DEBUG_VALUE: hisi_blk_get_lld:q <- $x19
	.loc	2 28 14 is_stmt 1       // /mnt/disk/jenkins/workspace/chipset_10.1.0_release_5G/opensource/component_code/vendor/huawei/extra/build/build_script/kirin_kernel_release/kernel/block/hisi-blk-core.c:28:14
	ldr	x8, [x19, #3312]
	.loc	2 28 11 is_stmt 0       // /mnt/disk/jenkins/workspace/chipset_10.1.0_release_5G/opensource/component_code/vendor/huawei/extra/build/build_script/kirin_kernel_release/kernel/block/hisi-blk-core.c:28:11
	add	x9, x19, #1808          // =1808
	add	x10, x8, #16            // =16
.Ltmp473:
.LBB43_2:
	//DEBUG_VALUE: hisi_queue_status_show:page <- $x20
	//DEBUG_VALUE: hisi_queue_status_show:q <- $x19
	//DEBUG_VALUE: hisi_blk_get_lld:q <- $x19
	.loc	2 0 0                   // /mnt/disk/jenkins/workspace/chipset_10.1.0_release_5G/opensource/component_code/vendor/huawei/extra/build/build_script/kirin_kernel_release/kernel/block/hisi-blk-core.c:0:0
	cmp	x8, #0                  // =0
	csel	x0, x9, x10, eq
.Ltmp474:
	//DEBUG_VALUE: hisi_queue_status_show:lld <- $x0
	.loc	2 892 3 is_stmt 1       // /mnt/disk/jenkins/workspace/chipset_10.1.0_release_5G/opensource/component_code/vendor/huawei/extra/build/build_script/kirin_kernel_release/kernel/block/hisi-blk-core.c:892:3
	orr	w2, wzr, #0x1000
	mov	x1, x20
	mov	w3, wzr
	orr	w22, wzr, #0x1000
	bl	hisi_blk_dump_lld_status
.Ltmp475:
	mov	x21, x0
.Ltmp476:
	//DEBUG_VALUE: hisi_queue_status_show:offset <- $x21
	.loc	2 894 11                // /mnt/disk/jenkins/workspace/chipset_10.1.0_release_5G/opensource/component_code/vendor/huawei/extra/build/build_script/kirin_kernel_release/kernel/block/hisi-blk-core.c:894:11
	add	x1, x20, x0
	.loc	2 894 31 is_stmt 0      // /mnt/disk/jenkins/workspace/chipset_10.1.0_release_5G/opensource/component_code/vendor/huawei/extra/build/build_script/kirin_kernel_release/kernel/block/hisi-blk-core.c:894:31
	sub	x2, x22, x0
	.loc	2 893 12 is_stmt 1      // /mnt/disk/jenkins/workspace/chipset_10.1.0_release_5G/opensource/component_code/vendor/huawei/extra/build/build_script/kirin_kernel_release/kernel/block/hisi-blk-core.c:893:12
	mov	x0, x19
	mov	w3, wzr
	bl	hisi_blk_dump_queue_status2
	.loc	2 895 2                 // /mnt/disk/jenkins/workspace/chipset_10.1.0_release_5G/opensource/component_code/vendor/huawei/extra/build/build_script/kirin_kernel_release/kernel/block/hisi-blk-core.c:895:2
	ldp	x29, x30, [sp, #32]     // 16-byte Folded Reload
	ldp	x20, x19, [sp, #16]     // 16-byte Folded Reload
.Ltmp477:
	.loc	2 893 9                 // /mnt/disk/jenkins/workspace/chipset_10.1.0_release_5G/opensource/component_code/vendor/huawei/extra/build/build_script/kirin_kernel_release/kernel/block/hisi-blk-core.c:893:9
	add	x0, x0, x21
.Ltmp478:
	//DEBUG_VALUE: hisi_queue_status_show:offset <- $x0
	.loc	2 895 2                 // /mnt/disk/jenkins/workspace/chipset_10.1.0_release_5G/opensource/component_code/vendor/huawei/extra/build/build_script/kirin_kernel_release/kernel/block/hisi-blk-core.c:895:2
	ldp	x22, x21, [sp], #48     // 16-byte Folded Reload
	ret
.Ltmp479:
.LBB43_3:
	//DEBUG_VALUE: hisi_queue_status_show:page <- $x20
	//DEBUG_VALUE: hisi_queue_status_show:q <- $x19
	//DEBUG_VALUE: hisi_blk_get_lld:q <- $x19
	.loc	2 30 14                 // /mnt/disk/jenkins/workspace/chipset_10.1.0_release_5G/opensource/component_code/vendor/huawei/extra/build/build_script/kirin_kernel_release/kernel/block/hisi-blk-core.c:30:14
	ldr	x8, [x19, #720]
	.loc	2 30 11 is_stmt 0       // /mnt/disk/jenkins/workspace/chipset_10.1.0_release_5G/opensource/component_code/vendor/huawei/extra/build/build_script/kirin_kernel_release/kernel/block/hisi-blk-core.c:30:11
	add	x9, x19, #1808          // =1808
	add	x10, x8, #120           // =120
	b	.LBB43_2
.Ltmp480:
.Lfunc_end43:
	.size	hisi_queue_status_show, .Lfunc_end43-hisi_queue_status_show
	.cfi_endproc
                                        // -- End function
	.type	__kstrtab_blk_queue_set_inline_crypto_flag,@object // @__kstrtab_blk_queue_set_inline_crypto_flag
	.section	__ksymtab_strings,"a",@progbits
__kstrtab_blk_queue_set_inline_crypto_flag:
	.asciz	"blk_queue_set_inline_crypto_flag"
	.size	__kstrtab_blk_queue_set_inline_crypto_flag, 33

	.type	__ksymtab_blk_queue_set_inline_crypto_flag,@object // @__ksymtab_blk_queue_set_inline_crypto_flag
	.section	"___ksymtab+blk_queue_set_inline_crypto_flag","a",@progbits
	.p2align	3
__ksymtab_blk_queue_set_inline_crypto_flag:
	.xword	blk_queue_set_inline_crypto_flag
	.xword	__kstrtab_blk_queue_set_inline_crypto_flag
	.size	__ksymtab_blk_queue_set_inline_crypto_flag, 16

	.type	__kstrtab_is_blk_queue_support_crypto,@object // @__kstrtab_is_blk_queue_support_crypto
	.section	__ksymtab_strings,"a",@progbits
__kstrtab_is_blk_queue_support_crypto:
	.asciz	"is_blk_queue_support_crypto"
	.size	__kstrtab_is_blk_queue_support_crypto, 28

	.type	__ksymtab_is_blk_queue_support_crypto,@object // @__ksymtab_is_blk_queue_support_crypto
	.section	"___ksymtab+is_blk_queue_support_crypto","a",@progbits
	.p2align	3
__ksymtab_is_blk_queue_support_crypto:
	.xword	is_blk_queue_support_crypto
	.xword	__kstrtab_is_blk_queue_support_crypto
	.size	__ksymtab_is_blk_queue_support_crypto, 16

	.type	.L.str,@object          // @.str
	.section	.rodata.str1.1,"aMS",@progbits,1
.L.str:
	.asciz	"\0013[BLK-IO]%s: mq_req_init_fn failed. err = %d \r\n"
	.size	.L.str, 49

	.type	.L__func__.hisi_blk_mq_rq_ctx_init,@object // @__func__.hisi_blk_mq_rq_ctx_init
.L__func__.hisi_blk_mq_rq_ctx_init:
	.asciz	"hisi_blk_mq_rq_ctx_init"
	.size	.L__func__.hisi_blk_mq_rq_ctx_init, 24

	.type	.L.str.1,@object        // @.str.1
.L.str.1:
	.asciz	"\0013[BLK-IO]%s: mq_iosched_init_fn failed. err = %d \r\n"
	.size	.L.str.1, 53

	.type	.L__func__.hisi_blk_mq_init_allocated_queue,@object // @__func__.hisi_blk_mq_init_allocated_queue
.L__func__.hisi_blk_mq_init_allocated_queue:
	.asciz	"hisi_blk_mq_init_allocated_queue"
	.size	.L__func__.hisi_blk_mq_init_allocated_queue, 33

	.type	.L.str.2,@object        // @.str.2
.L.str.2:
	.asciz	"\0013[BLK-IO]%s: mq_iosched_exit_fn failed. err = %d \r\n"
	.size	.L.str.2, 53

	.type	.L__func__.hisi_blk_mq_free_queue,@object // @__func__.hisi_blk_mq_free_queue
.L__func__.hisi_blk_mq_free_queue:
	.asciz	"hisi_blk_mq_free_queue"
	.size	.L__func__.hisi_blk_mq_free_queue, 23

	.type	hisi_blk_allocated_tags_init.__key,@object // @hisi_blk_allocated_tags_init.__key
	.section	.bss.hisi_blk_allocated_tags_init.__key,"aw",@nobits
hisi_blk_allocated_tags_init.__key:
	.size	hisi_blk_allocated_tags_init.__key, 0

	.type	.L.str.3,@object        // @.str.3
	.section	.rodata.str1.1,"aMS",@progbits,1
.L.str.3:
	.asciz	"&tags->tag_list_lock"
	.size	.L.str.3, 21

	.type	__kstrtab_blk_generic_freeze,@object // @__kstrtab_blk_generic_freeze
	.section	__ksymtab_strings,"a",@progbits
__kstrtab_blk_generic_freeze:
	.asciz	"blk_generic_freeze"
	.size	__kstrtab_blk_generic_freeze, 19

	.type	__ksymtab_blk_generic_freeze,@object // @__ksymtab_blk_generic_freeze
	.section	"___ksymtab+blk_generic_freeze","a",@progbits
	.p2align	3
__ksymtab_blk_generic_freeze:
	.xword	blk_generic_freeze
	.xword	__kstrtab_blk_generic_freeze
	.size	__ksymtab_blk_generic_freeze, 16

	.type	.L.str.4,@object        // @.str.4
	.section	.rodata.str1.1,"aMS",@progbits,1
.L.str.4:
	.asciz	"\0013[BLK-IO][%s]init key len not 64\n"
	.size	.L.str.4, 35

	.type	.L__func__.hisi_blk_lld_inline_crypto_bio_split_pre,@object // @__func__.hisi_blk_lld_inline_crypto_bio_split_pre
.L__func__.hisi_blk_lld_inline_crypto_bio_split_pre:
	.asciz	"hisi_blk_lld_inline_crypto_bio_split_pre"
	.size	.L__func__.hisi_blk_lld_inline_crypto_bio_split_pre, 41

	.type	.L__func__.hisi_blk_lld_inline_crypto_bio_split_post,@object // @__func__.hisi_blk_lld_inline_crypto_bio_split_post
.L__func__.hisi_blk_lld_inline_crypto_bio_split_post:
	.asciz	"hisi_blk_lld_inline_crypto_bio_split_post"
	.size	.L__func__.hisi_blk_lld_inline_crypto_bio_split_post, 42

	.type	.L.str.5,@object        // @.str.5
.L.str.5:
	.asciz	"\0013[BLK-IO][%s]key len not 64\n"
	.size	.L.str.5, 30

	.type	.L__func__.hisi_blk_lld_inline_crypto_bio_merge_allow,@object // @__func__.hisi_blk_lld_inline_crypto_bio_merge_allow
.L__func__.hisi_blk_lld_inline_crypto_bio_merge_allow:
	.asciz	"hisi_blk_lld_inline_crypto_bio_merge_allow"
	.size	.L__func__.hisi_blk_lld_inline_crypto_bio_merge_allow, 43

	.type	.L.str.6,@object        // @.str.6
.L.str.6:
	.asciz	"\0013[BLK-IO][%s]init rq key len not 64\n"
	.size	.L.str.6, 38

	.type	.L__func__.hisi_blk_lld_inline_crypto_init_request_from_bio,@object // @__func__.hisi_blk_lld_inline_crypto_init_request_from_bio
.L__func__.hisi_blk_lld_inline_crypto_init_request_from_bio:
	.asciz	"hisi_blk_lld_inline_crypto_init_request_from_bio"
	.size	.L__func__.hisi_blk_lld_inline_crypto_init_request_from_bio, 49
