	.text
	.file	"hisi-blk-iosched-ufs-mq.c"
                                        // Start of file scope inline assembly
	.section "___kcrctab+blk_mq_tagset_ufs_mq_iosched_enable", "a"	
	.weak	__crc_blk_mq_tagset_ufs_mq_iosched_enable	
	.long	__crc_blk_mq_tagset_ufs_mq_iosched_enable	
	.previous					

                                        // End of file scope inline assembly
	.file	1 "/mnt/disk/jenkins/workspace/chipset_10.1.0_release_5G/opensource/component_code/vendor/huawei/extra/build/build_script/kirin_kernel_release/kernel/include/linux/export.h"
	.file	2 "/mnt/disk/jenkins/workspace/chipset_10.1.0_release_5G/opensource/component_code/vendor/huawei/extra/build/build_script/kirin_kernel_release/kernel/block/hisi-blk-iosched-ufs-mq.c"
	.file	3 "/mnt/disk/jenkins/workspace/chipset_10.1.0_release_5G/opensource/component_code/vendor/huawei/extra/build/build_script/kirin_kernel_release/kernel/include/linux/blkdev.h"
	.file	4 "/mnt/disk/jenkins/workspace/chipset_10.1.0_release_5G/opensource/component_code/vendor/huawei/extra/build/build_script/kirin_kernel_release/kernel/include/linux/types.h"
	.file	5 "/mnt/disk/jenkins/workspace/chipset_10.1.0_release_5G/opensource/component_code/vendor/huawei/extra/build/build_script/kirin_kernel_release/kernel/include/linux/llist.h"
	.file	6 "/mnt/disk/jenkins/workspace/chipset_10.1.0_release_5G/opensource/component_code/vendor/huawei/extra/build/build_script/kirin_kernel_release/kernel/include/linux/smp.h"
	.file	7 "/mnt/disk/jenkins/workspace/chipset_10.1.0_release_5G/opensource/component_code/vendor/huawei/extra/build/build_script/kirin_kernel_release/kernel/include/asm-generic/int-ll64.h"
	.file	8 "/mnt/disk/jenkins/workspace/chipset_10.1.0_release_5G/opensource/component_code/vendor/huawei/extra/build/build_script/kirin_kernel_release/kernel/arch/arm64/include/asm/spinlock_types.h"
	.file	9 "/mnt/disk/jenkins/workspace/chipset_10.1.0_release_5G/opensource/component_code/vendor/huawei/extra/build/build_script/kirin_kernel_release/kernel/include/linux/spinlock_types.h"
	.file	10 "/mnt/disk/jenkins/workspace/chipset_10.1.0_release_5G/opensource/component_code/vendor/huawei/extra/build/build_script/kirin_kernel_release/kernel/block/blk-mq.h"
	.file	11 "/mnt/disk/jenkins/workspace/chipset_10.1.0_release_5G/opensource/component_code/vendor/huawei/extra/build/build_script/kirin_kernel_release/kernel/include/linux/kobject.h"
	.file	12 "/mnt/disk/jenkins/workspace/chipset_10.1.0_release_5G/opensource/component_code/vendor/huawei/extra/build/build_script/kirin_kernel_release/kernel/include/uapi/asm-generic/posix_types.h"
	.file	13 "/mnt/disk/jenkins/workspace/chipset_10.1.0_release_5G/opensource/component_code/vendor/huawei/extra/build/build_script/kirin_kernel_release/kernel/include/linux/sysfs.h"
	.file	14 "/mnt/disk/jenkins/workspace/chipset_10.1.0_release_5G/opensource/component_code/vendor/huawei/extra/build/build_script/kirin_kernel_release/kernel/include/linux/kobject_ns.h"
	.file	15 "/mnt/disk/jenkins/workspace/chipset_10.1.0_release_5G/opensource/component_code/vendor/huawei/extra/build/build_script/kirin_kernel_release/kernel/include/linux/kernfs.h"
	.file	16 "/mnt/disk/jenkins/workspace/chipset_10.1.0_release_5G/opensource/component_code/vendor/huawei/extra/build/build_script/kirin_kernel_release/kernel/include/linux/rbtree.h"
	.file	17 "/mnt/disk/jenkins/workspace/chipset_10.1.0_release_5G/opensource/component_code/vendor/huawei/extra/build/build_script/kirin_kernel_release/kernel/include/linux/radix-tree.h"
	.file	18 "/mnt/disk/jenkins/workspace/chipset_10.1.0_release_5G/opensource/component_code/vendor/huawei/extra/build/build_script/kirin_kernel_release/kernel/include/linux/idr.h"
	.file	19 "/mnt/disk/jenkins/workspace/chipset_10.1.0_release_5G/opensource/component_code/vendor/huawei/extra/build/build_script/kirin_kernel_release/kernel/include/linux/seq_file.h"
	.file	20 "/mnt/disk/jenkins/workspace/chipset_10.1.0_release_5G/opensource/component_code/vendor/huawei/extra/build/build_script/kirin_kernel_release/kernel/include/asm-generic/atomic-long.h"
	.file	21 "/mnt/disk/jenkins/workspace/chipset_10.1.0_release_5G/opensource/component_code/vendor/huawei/extra/build/build_script/kirin_kernel_release/kernel/include/linux/mutex.h"
	.file	22 "/mnt/disk/jenkins/workspace/chipset_10.1.0_release_5G/opensource/component_code/vendor/huawei/extra/build/build_script/kirin_kernel_release/kernel/include/linux/osq_lock.h"
	.file	23 "/mnt/disk/jenkins/workspace/chipset_10.1.0_release_5G/opensource/component_code/vendor/huawei/extra/build/build_script/kirin_kernel_release/kernel/arch/arm64/include/asm/thread_info.h"
	.file	24 "/mnt/disk/jenkins/workspace/chipset_10.1.0_release_5G/opensource/component_code/vendor/huawei/extra/build/build_script/kirin_kernel_release/kernel/include/linux/sched.h"
	.file	25 "/mnt/disk/jenkins/workspace/chipset_10.1.0_release_5G/opensource/component_code/vendor/huawei/extra/build/build_script/kirin_kernel_release/kernel/include/linux/cpumask.h"
	.file	26 "/mnt/disk/jenkins/workspace/chipset_10.1.0_release_5G/opensource/component_code/vendor/huawei/extra/build/build_script/kirin_kernel_release/kernel/include/linux/timerqueue.h"
	.file	27 "/mnt/disk/jenkins/workspace/chipset_10.1.0_release_5G/opensource/component_code/vendor/huawei/extra/build/build_script/kirin_kernel_release/kernel/include/linux/ktime.h"
	.file	28 "/mnt/disk/jenkins/workspace/chipset_10.1.0_release_5G/opensource/component_code/vendor/huawei/extra/build/build_script/kirin_kernel_release/kernel/include/linux/hrtimer.h"
	.file	29 "/mnt/disk/jenkins/workspace/chipset_10.1.0_release_5G/opensource/component_code/vendor/huawei/extra/build/build_script/kirin_kernel_release/kernel/include/linux/seqlock.h"
	.file	30 "/mnt/disk/jenkins/workspace/chipset_10.1.0_release_5G/opensource/component_code/vendor/huawei/extra/build/build_script/kirin_kernel_release/kernel/include/linux/plist.h"
	.file	31 "/mnt/disk/jenkins/workspace/chipset_10.1.0_release_5G/opensource/component_code/vendor/huawei/extra/build/build_script/kirin_kernel_release/kernel/include/linux/mm_types.h"
	.file	32 "/mnt/disk/jenkins/workspace/chipset_10.1.0_release_5G/opensource/component_code/vendor/huawei/extra/build/build_script/kirin_kernel_release/kernel/arch/arm64/include/asm/pgtable-types.h"
	.file	33 "/mnt/disk/jenkins/workspace/chipset_10.1.0_release_5G/opensource/component_code/vendor/huawei/extra/build/build_script/kirin_kernel_release/kernel/include/linux/rmap.h"
	.file	34 "/mnt/disk/jenkins/workspace/chipset_10.1.0_release_5G/opensource/component_code/vendor/huawei/extra/build/build_script/kirin_kernel_release/kernel/include/linux/rwsem.h"
	.file	35 "/mnt/disk/jenkins/workspace/chipset_10.1.0_release_5G/opensource/component_code/vendor/huawei/extra/build/build_script/kirin_kernel_release/kernel/include/linux/mm.h"
	.file	36 "/mnt/disk/jenkins/workspace/chipset_10.1.0_release_5G/opensource/component_code/vendor/huawei/extra/build/build_script/kirin_kernel_release/kernel/include/asm-generic/pgtable-nop4d-hack.h"
	.file	37 "/mnt/disk/jenkins/workspace/chipset_10.1.0_release_5G/opensource/component_code/vendor/huawei/extra/build/build_script/kirin_kernel_release/kernel/include/linux/fs.h"
	.file	38 "/mnt/disk/jenkins/workspace/chipset_10.1.0_release_5G/opensource/component_code/vendor/huawei/extra/build/build_script/kirin_kernel_release/kernel/include/linux/uidgid.h"
	.file	39 "/mnt/disk/jenkins/workspace/chipset_10.1.0_release_5G/opensource/component_code/vendor/huawei/extra/build/build_script/kirin_kernel_release/kernel/include/linux/dcache.h"
	.file	40 "/mnt/disk/jenkins/workspace/chipset_10.1.0_release_5G/opensource/component_code/vendor/huawei/extra/build/build_script/kirin_kernel_release/kernel/include/linux/list_bl.h"
	.file	41 "/mnt/disk/jenkins/workspace/chipset_10.1.0_release_5G/opensource/component_code/vendor/huawei/extra/build/build_script/kirin_kernel_release/kernel/include/linux/lockref.h"
	.file	42 "/mnt/disk/jenkins/workspace/chipset_10.1.0_release_5G/opensource/component_code/vendor/huawei/extra/build/build_script/kirin_kernel_release/kernel/include/linux/path.h"
	.file	43 "/mnt/disk/jenkins/workspace/chipset_10.1.0_release_5G/opensource/component_code/vendor/huawei/extra/build/build_script/kirin_kernel_release/kernel/include/uapi/asm-generic/int-ll64.h"
	.file	44 "/mnt/disk/jenkins/workspace/chipset_10.1.0_release_5G/opensource/component_code/vendor/huawei/extra/build/build_script/kirin_kernel_release/kernel/include/linux/module.h"
	.file	45 "/mnt/disk/jenkins/workspace/chipset_10.1.0_release_5G/opensource/component_code/vendor/huawei/extra/build/build_script/kirin_kernel_release/kernel/include/linux/completion.h"
	.file	46 "/mnt/disk/jenkins/workspace/chipset_10.1.0_release_5G/opensource/component_code/vendor/huawei/extra/build/build_script/kirin_kernel_release/kernel/include/linux/wait.h"
	.file	47 "/mnt/disk/jenkins/workspace/chipset_10.1.0_release_5G/opensource/component_code/vendor/huawei/extra/build/build_script/kirin_kernel_release/kernel/include/linux/cfi.h"
	.file	48 "/mnt/disk/jenkins/workspace/chipset_10.1.0_release_5G/opensource/component_code/vendor/huawei/extra/build/build_script/kirin_kernel_release/kernel/include/linux/moduleparam.h"
	.file	49 "/mnt/disk/jenkins/workspace/chipset_10.1.0_release_5G/opensource/component_code/vendor/huawei/extra/build/build_script/kirin_kernel_release/kernel/arch/arm64/include/asm/extable.h"
	.file	50 "/mnt/disk/jenkins/workspace/chipset_10.1.0_release_5G/opensource/component_code/vendor/huawei/extra/build/build_script/kirin_kernel_release/kernel/include/linux/rbtree_latch.h"
	.file	51 "/mnt/disk/jenkins/workspace/chipset_10.1.0_release_5G/opensource/component_code/vendor/huawei/extra/build/build_script/kirin_kernel_release/kernel/include/uapi/linux/elf.h"
	.file	52 "/mnt/disk/jenkins/workspace/chipset_10.1.0_release_5G/opensource/component_code/vendor/huawei/extra/build/build_script/kirin_kernel_release/kernel/arch/arm64/include/asm/module.h"
	.file	53 "/mnt/disk/jenkins/workspace/chipset_10.1.0_release_5G/opensource/component_code/vendor/huawei/extra/build/build_script/kirin_kernel_release/kernel/include/uapi/linux/types.h"
	.file	54 "/mnt/disk/jenkins/workspace/chipset_10.1.0_release_5G/opensource/component_code/vendor/huawei/extra/build/build_script/kirin_kernel_release/kernel/include/asm-generic/bug.h"
	.file	55 "/mnt/disk/jenkins/workspace/chipset_10.1.0_release_5G/opensource/component_code/vendor/huawei/extra/build/build_script/kirin_kernel_release/kernel/include/linux/tracepoint-defs.h"
	.file	56 "/mnt/disk/jenkins/workspace/chipset_10.1.0_release_5G/opensource/component_code/vendor/huawei/extra/build/build_script/kirin_kernel_release/kernel/include/linux/jump_label.h"
	.file	57 "/mnt/disk/jenkins/workspace/chipset_10.1.0_release_5G/opensource/component_code/vendor/huawei/extra/build/build_script/kirin_kernel_release/kernel/include/linux/tracepoint.h"
	.file	58 "/mnt/disk/jenkins/workspace/chipset_10.1.0_release_5G/opensource/component_code/vendor/huawei/extra/build/build_script/kirin_kernel_release/kernel/include/linux/lockdep.h"
	.file	59 "/mnt/disk/jenkins/workspace/chipset_10.1.0_release_5G/opensource/component_code/vendor/huawei/extra/build/build_script/kirin_kernel_release/kernel/include/linux/writeback.h"
	.file	60 "/mnt/disk/jenkins/workspace/chipset_10.1.0_release_5G/opensource/component_code/vendor/huawei/extra/build/build_script/kirin_kernel_release/kernel/include/linux/backing-dev-defs.h"
	.file	61 "/mnt/disk/jenkins/workspace/chipset_10.1.0_release_5G/opensource/component_code/vendor/huawei/extra/build/build_script/kirin_kernel_release/kernel/include/linux/refcount.h"
	.file	62 "/mnt/disk/jenkins/workspace/chipset_10.1.0_release_5G/opensource/component_code/vendor/huawei/extra/build/build_script/kirin_kernel_release/kernel/include/linux/kref.h"
	.file	63 "/mnt/disk/jenkins/workspace/chipset_10.1.0_release_5G/opensource/component_code/vendor/huawei/extra/build/build_script/kirin_kernel_release/kernel/include/linux/device.h"
	.file	64 "/mnt/disk/jenkins/workspace/chipset_10.1.0_release_5G/opensource/component_code/vendor/huawei/extra/build/build_script/kirin_kernel_release/kernel/include/linux/uio.h"
	.file	65 "/mnt/disk/jenkins/workspace/chipset_10.1.0_release_5G/opensource/component_code/vendor/huawei/extra/build/build_script/kirin_kernel_release/kernel/include/uapi/linux/uio.h"
	.file	66 "/mnt/disk/jenkins/workspace/chipset_10.1.0_release_5G/opensource/component_code/vendor/huawei/extra/build/build_script/kirin_kernel_release/kernel/include/linux/bvec.h"
	.file	67 "/mnt/disk/jenkins/workspace/chipset_10.1.0_release_5G/opensource/component_code/vendor/huawei/extra/build/build_script/kirin_kernel_release/kernel/include/linux/poll.h"
	.file	68 "/mnt/disk/jenkins/workspace/chipset_10.1.0_release_5G/opensource/component_code/vendor/huawei/extra/build/build_script/kirin_kernel_release/kernel/include/linux/nfs_fs_i.h"
	.file	69 "/mnt/disk/jenkins/workspace/chipset_10.1.0_release_5G/opensource/component_code/vendor/huawei/extra/build/build_script/kirin_kernel_release/kernel/include/linux/rwlock_types.h"
	.file	70 "/mnt/disk/jenkins/workspace/chipset_10.1.0_release_5G/opensource/component_code/vendor/huawei/extra/build/build_script/kirin_kernel_release/kernel/include/linux/pid.h"
	.file	71 "/mnt/disk/jenkins/workspace/chipset_10.1.0_release_5G/opensource/component_code/vendor/huawei/extra/build/build_script/kirin_kernel_release/kernel/include/linux/cred.h"
	.file	72 "/mnt/disk/jenkins/workspace/chipset_10.1.0_release_5G/opensource/component_code/vendor/huawei/extra/build/build_script/kirin_kernel_release/kernel/include/linux/capability.h"
	.file	73 "/mnt/disk/jenkins/workspace/chipset_10.1.0_release_5G/opensource/component_code/vendor/huawei/extra/build/build_script/kirin_kernel_release/kernel/include/linux/key.h"
	.file	74 "/mnt/disk/jenkins/workspace/chipset_10.1.0_release_5G/opensource/component_code/vendor/huawei/extra/build/build_script/kirin_kernel_release/kernel/include/linux/assoc_array.h"
	.file	75 "/mnt/disk/jenkins/workspace/chipset_10.1.0_release_5G/opensource/component_code/vendor/huawei/extra/build/build_script/kirin_kernel_release/kernel/include/linux/sched/user.h"
	.file	76 "/mnt/disk/jenkins/workspace/chipset_10.1.0_release_5G/opensource/component_code/vendor/huawei/extra/build/build_script/kirin_kernel_release/kernel/include/linux/user_namespace.h"
	.file	77 "/mnt/disk/jenkins/workspace/chipset_10.1.0_release_5G/opensource/component_code/vendor/huawei/extra/build/build_script/kirin_kernel_release/kernel/include/linux/ns_common.h"
	.file	78 "/mnt/disk/jenkins/workspace/chipset_10.1.0_release_5G/opensource/component_code/vendor/huawei/extra/build/build_script/kirin_kernel_release/kernel/include/linux/workqueue.h"
	.file	79 "/mnt/disk/jenkins/workspace/chipset_10.1.0_release_5G/opensource/component_code/vendor/huawei/extra/build/build_script/kirin_kernel_release/kernel/include/linux/sysctl.h"
	.file	80 "/mnt/disk/jenkins/workspace/chipset_10.1.0_release_5G/opensource/component_code/vendor/huawei/extra/build/build_script/kirin_kernel_release/kernel/include/linux/errseq.h"
	.file	81 "/mnt/disk/jenkins/workspace/chipset_10.1.0_release_5G/opensource/component_code/vendor/huawei/extra/build/build_script/kirin_kernel_release/kernel/include/linux/pm.h"
	.file	82 "/mnt/disk/jenkins/workspace/chipset_10.1.0_release_5G/opensource/component_code/vendor/huawei/extra/build/build_script/kirin_kernel_release/kernel/include/linux/pm_wakeup.h"
	.file	83 "/mnt/disk/jenkins/workspace/chipset_10.1.0_release_5G/opensource/component_code/vendor/huawei/extra/build/build_script/kirin_kernel_release/kernel/include/linux/timer.h"
	.file	84 "/mnt/disk/jenkins/workspace/chipset_10.1.0_release_5G/opensource/component_code/vendor/huawei/extra/build/build_script/kirin_kernel_release/kernel/include/linux/pinctrl/devinfo.h"
	.file	85 "/mnt/disk/jenkins/workspace/chipset_10.1.0_release_5G/opensource/component_code/vendor/huawei/extra/build/build_script/kirin_kernel_release/kernel/arch/arm64/include/asm/device.h"
	.file	86 "/mnt/disk/jenkins/workspace/chipset_10.1.0_release_5G/opensource/component_code/vendor/huawei/extra/build/build_script/kirin_kernel_release/kernel/include/linux/klist.h"
	.file	87 "/mnt/disk/jenkins/workspace/chipset_10.1.0_release_5G/opensource/component_code/vendor/huawei/extra/build/build_script/kirin_kernel_release/kernel/include/linux/percpu_counter.h"
	.file	88 "/mnt/disk/jenkins/workspace/chipset_10.1.0_release_5G/opensource/component_code/vendor/huawei/extra/build/build_script/kirin_kernel_release/kernel/include/linux/flex_proportions.h"
	.file	89 "/mnt/disk/jenkins/workspace/chipset_10.1.0_release_5G/opensource/component_code/vendor/huawei/extra/build/build_script/kirin_kernel_release/kernel/include/linux/percpu-refcount.h"
	.file	90 "/mnt/disk/jenkins/workspace/chipset_10.1.0_release_5G/opensource/component_code/vendor/huawei/extra/build/build_script/kirin_kernel_release/kernel/include/linux/cgroup-defs.h"
	.file	91 "/mnt/disk/jenkins/workspace/chipset_10.1.0_release_5G/opensource/component_code/vendor/huawei/extra/build/build_script/kirin_kernel_release/kernel/include/linux/psi_types.h"
	.file	92 "/mnt/disk/jenkins/workspace/chipset_10.1.0_release_5G/opensource/component_code/vendor/huawei/extra/build/build_script/kirin_kernel_release/kernel/include/linux/bpf-cgroup.h"
	.file	93 "/mnt/disk/jenkins/workspace/chipset_10.1.0_release_5G/opensource/component_code/vendor/huawei/extra/build/build_script/kirin_kernel_release/kernel/include/linux/quota.h"
	.file	94 "/mnt/disk/jenkins/workspace/chipset_10.1.0_release_5G/opensource/component_code/vendor/huawei/extra/build/build_script/kirin_kernel_release/kernel/include/linux/projid.h"
	.file	95 "/mnt/disk/jenkins/workspace/chipset_10.1.0_release_5G/opensource/component_code/vendor/huawei/extra/build/build_script/kirin_kernel_release/kernel/include/linux/time64.h"
	.file	96 "/mnt/disk/jenkins/workspace/chipset_10.1.0_release_5G/opensource/component_code/vendor/huawei/extra/build/build_script/kirin_kernel_release/kernel/include/linux/shrinker.h"
	.file	97 "/mnt/disk/jenkins/workspace/chipset_10.1.0_release_5G/opensource/component_code/vendor/huawei/extra/build/build_script/kirin_kernel_release/kernel/include/linux/memcontrol.h"
	.file	98 "/mnt/disk/jenkins/workspace/chipset_10.1.0_release_5G/opensource/component_code/vendor/huawei/extra/build/build_script/kirin_kernel_release/kernel/include/linux/page_counter.h"
	.file	99 "/mnt/disk/jenkins/workspace/chipset_10.1.0_release_5G/opensource/component_code/vendor/huawei/extra/build/build_script/kirin_kernel_release/kernel/include/linux/vmpressure.h"
	.file	100 "/mnt/disk/jenkins/workspace/chipset_10.1.0_release_5G/opensource/component_code/vendor/huawei/extra/build/build_script/kirin_kernel_release/kernel/include/linux/mmzone.h"
	.file	101 "/mnt/disk/jenkins/workspace/chipset_10.1.0_release_5G/opensource/component_code/vendor/huawei/extra/build/build_script/kirin_kernel_release/kernel/include/linux/genhd.h"
	.file	102 "/mnt/disk/jenkins/workspace/chipset_10.1.0_release_5G/opensource/component_code/vendor/huawei/extra/build/build_script/kirin_kernel_release/kernel/include/linux/rcu_sync.h"
	.file	103 "/mnt/disk/jenkins/workspace/chipset_10.1.0_release_5G/opensource/component_code/vendor/huawei/extra/build/build_script/kirin_kernel_release/kernel/include/linux/percpu-rwsem.h"
	.file	104 "/mnt/disk/jenkins/workspace/chipset_10.1.0_release_5G/opensource/component_code/vendor/huawei/extra/build/build_script/kirin_kernel_release/kernel/include/linux/rcuwait.h"
	.file	105 "/mnt/disk/jenkins/workspace/chipset_10.1.0_release_5G/opensource/component_code/vendor/huawei/extra/build/build_script/kirin_kernel_release/kernel/include/linux/uuid.h"
	.file	106 "/mnt/disk/jenkins/workspace/chipset_10.1.0_release_5G/opensource/component_code/vendor/huawei/extra/build/build_script/kirin_kernel_release/kernel/include/linux/list_lru.h"
	.file	107 "/mnt/disk/jenkins/workspace/chipset_10.1.0_release_5G/opensource/component_code/vendor/huawei/extra/build/build_script/kirin_kernel_release/kernel/include/linux/delayed_call.h"
	.file	108 "/mnt/disk/jenkins/workspace/chipset_10.1.0_release_5G/opensource/component_code/vendor/huawei/extra/build/build_script/kirin_kernel_release/kernel/include/uapi/linux/time.h"
	.file	109 "/mnt/disk/jenkins/workspace/chipset_10.1.0_release_5G/opensource/component_code/vendor/huawei/extra/build/build_script/kirin_kernel_release/kernel/include/linux/stat.h"
	.file	110 "/mnt/disk/jenkins/workspace/chipset_10.1.0_release_5G/opensource/component_code/vendor/huawei/extra/build/build_script/kirin_kernel_release/kernel/include/uapi/linux/fiemap.h"
	.file	111 "/mnt/disk/jenkins/workspace/chipset_10.1.0_release_5G/opensource/component_code/vendor/huawei/extra/build/build_script/kirin_kernel_release/kernel/include/linux/migrate_mode.h"
	.file	112 "/mnt/disk/jenkins/workspace/chipset_10.1.0_release_5G/opensource/component_code/vendor/huawei/extra/build/build_script/kirin_kernel_release/kernel/include/linux/swap.h"
	.file	113 "/mnt/disk/jenkins/workspace/chipset_10.1.0_release_5G/opensource/component_code/vendor/huawei/extra/build/build_script/kirin_kernel_release/kernel/include/linux/memremap.h"
	.file	114 "/mnt/disk/jenkins/workspace/chipset_10.1.0_release_5G/opensource/component_code/vendor/huawei/extra/build/build_script/kirin_kernel_release/kernel/include/linux/ioport.h"
	.file	115 "/mnt/disk/jenkins/workspace/chipset_10.1.0_release_5G/opensource/component_code/vendor/huawei/extra/build/build_script/kirin_kernel_release/kernel/arch/arm64/include/asm/page.h"
	.file	116 "/mnt/disk/jenkins/workspace/chipset_10.1.0_release_5G/opensource/component_code/vendor/huawei/extra/build/build_script/kirin_kernel_release/kernel/include/linux/mm_types_task.h"
	.file	117 "/mnt/disk/jenkins/workspace/chipset_10.1.0_release_5G/opensource/component_code/vendor/huawei/extra/build/build_script/kirin_kernel_release/kernel/arch/arm64/include/asm/mmu.h"
	.file	118 "/mnt/disk/jenkins/workspace/chipset_10.1.0_release_5G/opensource/component_code/vendor/huawei/extra/build/build_script/kirin_kernel_release/kernel/include/linux/uprobes.h"
	.file	119 "/mnt/disk/jenkins/workspace/chipset_10.1.0_release_5G/opensource/component_code/vendor/huawei/extra/build/build_script/kirin_kernel_release/kernel/include/linux/restart_block.h"
	.file	120 "/mnt/disk/jenkins/workspace/chipset_10.1.0_release_5G/opensource/component_code/vendor/huawei/extra/build/build_script/kirin_kernel_release/kernel/arch/arm64/include/asm/compat.h"
	.file	121 "/mnt/disk/jenkins/workspace/chipset_10.1.0_release_5G/opensource/component_code/vendor/huawei/extra/build/build_script/kirin_kernel_release/kernel/include/uapi/asm-generic/poll.h"
	.file	122 "/mnt/disk/jenkins/workspace/chipset_10.1.0_release_5G/opensource/component_code/vendor/huawei/extra/build/build_script/kirin_kernel_release/kernel/include/linux/nsproxy.h"
	.file	123 "/mnt/disk/jenkins/workspace/chipset_10.1.0_release_5G/opensource/component_code/vendor/huawei/extra/build/build_script/kirin_kernel_release/kernel/include/linux/cgroup.h"
	.file	124 "/mnt/disk/jenkins/workspace/chipset_10.1.0_release_5G/opensource/component_code/vendor/huawei/extra/build/build_script/kirin_kernel_release/kernel/include/uapi/asm-generic/signal.h"
	.file	125 "/mnt/disk/jenkins/workspace/chipset_10.1.0_release_5G/opensource/component_code/vendor/huawei/extra/build/build_script/kirin_kernel_release/kernel/include/linux/signal_types.h"
	.file	126 "/mnt/disk/jenkins/workspace/chipset_10.1.0_release_5G/opensource/component_code/vendor/huawei/extra/build/build_script/kirin_kernel_release/kernel/include/linux/seccomp.h"
	.file	127 "/mnt/disk/jenkins/workspace/chipset_10.1.0_release_5G/opensource/component_code/vendor/huawei/extra/build/build_script/kirin_kernel_release/kernel/include/linux/blk_types.h"
	.file	128 "/mnt/disk/jenkins/workspace/chipset_10.1.0_release_5G/opensource/component_code/vendor/huawei/extra/build/build_script/kirin_kernel_release/kernel/include/linux/iocontext.h"
	.file	129 "/mnt/disk/jenkins/workspace/chipset_10.1.0_release_5G/opensource/component_code/vendor/huawei/extra/build/build_script/kirin_kernel_release/kernel/include/linux/bio.h"
	.file	130 "/mnt/disk/jenkins/workspace/chipset_10.1.0_release_5G/opensource/component_code/vendor/huawei/extra/build/build_script/kirin_kernel_release/kernel/include/linux/mempool.h"
	.file	131 "/mnt/disk/jenkins/workspace/chipset_10.1.0_release_5G/opensource/component_code/vendor/huawei/extra/build/build_script/kirin_kernel_release/kernel/include/uapi/asm-generic/siginfo.h"
	.file	132 "/mnt/disk/jenkins/workspace/chipset_10.1.0_release_5G/opensource/component_code/vendor/huawei/extra/build/build_script/kirin_kernel_release/kernel/include/linux/task_io_accounting.h"
	.file	133 "/mnt/disk/jenkins/workspace/chipset_10.1.0_release_5G/opensource/component_code/vendor/huawei/extra/build/build_script/kirin_kernel_release/kernel/include/linux/nodemask.h"
	.file	134 "/mnt/disk/jenkins/workspace/chipset_10.1.0_release_5G/opensource/component_code/vendor/huawei/extra/build/build_script/kirin_kernel_release/kernel/include/linux/compat.h"
	.file	135 "/mnt/disk/jenkins/workspace/chipset_10.1.0_release_5G/opensource/component_code/vendor/huawei/extra/build/build_script/kirin_kernel_release/kernel/arch/arm64/include/asm/processor.h"
	.file	136 "/mnt/disk/jenkins/workspace/chipset_10.1.0_release_5G/opensource/component_code/vendor/huawei/extra/build/build_script/kirin_kernel_release/kernel/arch/arm64/include/uapi/asm/ptrace.h"
	.file	137 "/mnt/disk/jenkins/workspace/chipset_10.1.0_release_5G/opensource/component_code/vendor/huawei/extra/build/build_script/kirin_kernel_release/kernel/arch/arm64/include/asm/fpsimd.h"
	.file	138 "/mnt/disk/jenkins/workspace/chipset_10.1.0_release_5G/opensource/component_code/vendor/huawei/extra/build/build_script/kirin_kernel_release/kernel/include/linux/elevator.h"
	.file	139 "/mnt/disk/jenkins/workspace/chipset_10.1.0_release_5G/opensource/component_code/vendor/huawei/extra/build/build_script/kirin_kernel_release/kernel/include/linux/blk-mq.h"
	.file	140 "/mnt/disk/jenkins/workspace/chipset_10.1.0_release_5G/opensource/component_code/vendor/huawei/extra/build/build_script/kirin_kernel_release/kernel/block/blk.h"
	.file	141 "/mnt/disk/jenkins/workspace/chipset_10.1.0_release_5G/opensource/component_code/vendor/huawei/extra/build/build_script/kirin_kernel_release/kernel/include/linux/sbitmap.h"
	.file	142 "/mnt/disk/jenkins/workspace/chipset_10.1.0_release_5G/opensource/component_code/vendor/huawei/extra/build/build_script/kirin_kernel_release/kernel/block/blk-mq-tag.h"
	.file	143 "/mnt/disk/jenkins/workspace/chipset_10.1.0_release_5G/opensource/component_code/vendor/huawei/extra/build/build_script/kirin_kernel_release/kernel/block/hisi-blk.h"
	.file	144 "/mnt/disk/jenkins/workspace/chipset_10.1.0_release_5G/opensource/component_code/vendor/huawei/extra/build/build_script/kirin_kernel_release/kernel/include/linux/srcutree.h"
	.file	145 "/mnt/disk/jenkins/workspace/chipset_10.1.0_release_5G/opensource/component_code/vendor/huawei/extra/build/build_script/kirin_kernel_release/kernel/include/linux/rcu_segcblist.h"
	.file	146 "/mnt/disk/jenkins/workspace/chipset_10.1.0_release_5G/opensource/component_code/vendor/huawei/extra/build/build_script/kirin_kernel_release/kernel/block/blk-wbt.h"
	.file	147 "/mnt/disk/jenkins/workspace/chipset_10.1.0_release_5G/opensource/component_code/vendor/huawei/extra/build/build_script/kirin_kernel_release/kernel/block/blk-stat.h"
	.file	148 "/mnt/disk/jenkins/workspace/chipset_10.1.0_release_5G/opensource/component_code/vendor/huawei/extra/build/build_script/kirin_kernel_release/kernel/include/linux/bsg.h"
	.file	149 "/mnt/disk/jenkins/workspace/chipset_10.1.0_release_5G/opensource/component_code/vendor/huawei/extra/build/build_script/kirin_kernel_release/kernel/include/linux/notifier.h"
	.file	150 "/mnt/disk/jenkins/workspace/chipset_10.1.0_release_5G/opensource/component_code/vendor/huawei/extra/build/build_script/kirin_kernel_release/kernel/include/linux/stddef.h"
	.file	151 "/mnt/disk/jenkins/workspace/chipset_10.1.0_release_5G/opensource/component_code/vendor/huawei/extra/build/build_script/kirin_kernel_release/kernel/include/linux/interrupt.h"
	.section	.text.ufs_tagset_all_tag_busy_iter,"ax",@progbits
	.hidden	ufs_tagset_all_tag_busy_iter // -- Begin function ufs_tagset_all_tag_busy_iter
	.globl	ufs_tagset_all_tag_busy_iter
	.p2align	2
	.type	ufs_tagset_all_tag_busy_iter,@function
ufs_tagset_all_tag_busy_iter:           // @ufs_tagset_all_tag_busy_iter
.Lfunc_begin0:
	.loc	2 296 0                 // /mnt/disk/jenkins/workspace/chipset_10.1.0_release_5G/opensource/component_code/vendor/huawei/extra/build/build_script/kirin_kernel_release/kernel/block/hisi-blk-iosched-ufs-mq.c:296:0
	.cfi_sections .debug_frame
	.cfi_startproc
// %bb.0:
	stp	x26, x25, [sp, #-80]!   // 16-byte Folded Spill
	stp	x24, x23, [sp, #16]     // 16-byte Folded Spill
	stp	x22, x21, [sp, #32]     // 16-byte Folded Spill
	stp	x20, x19, [sp, #48]     // 16-byte Folded Spill
	stp	x29, x30, [sp, #64]     // 16-byte Folded Spill
	add	x29, sp, #64            // =64
	.cfi_def_cfa w29, 16
	.cfi_offset w30, -8
	.cfi_offset w29, -16
	.cfi_offset w19, -24
	.cfi_offset w20, -32
	.cfi_offset w21, -40
	.cfi_offset w22, -48
	.cfi_offset w23, -56
	.cfi_offset w24, -64
	.cfi_offset w25, -72
	.cfi_offset w26, -80
	//DEBUG_VALUE: ufs_tagset_all_tag_busy_iter:tags <- $x0
	//DEBUG_VALUE: ufs_tagset_all_tag_busy_iter:fn <- $x1
	//DEBUG_VALUE: ufs_tagset_all_tag_busy_iter:priv <- $x2
.Ltmp0:
	//DEBUG_VALUE: ufs_tagset_bt_tags_for_each:tags <- $x0
	//DEBUG_VALUE: ufs_tagset_bt_tags_for_each:bt <- [DW_OP_plus_uconst 56, DW_OP_stack_value] $x0
	//DEBUG_VALUE: sbitmap_for_each_set:sb <- [DW_OP_plus_uconst 56, DW_OP_stack_value] $x0
	//DEBUG_VALUE: ufs_tagset_bt_tags_iter:bitmap <- [DW_OP_plus_uconst 56, DW_OP_stack_value] $x0
	//DEBUG_VALUE: ufs_tagset_bt_tags_iter:tags <- $x0
	//DEBUG_VALUE: ufs_tagset_bt_tags_for_each:fn <- $x1
	//DEBUG_VALUE: ufs_tagset_bt_tags_for_each:data <- $x2
	.loc	2 297 12 prologue_end   // /mnt/disk/jenkins/workspace/chipset_10.1.0_release_5G/opensource/component_code/vendor/huawei/extra/build/build_script/kirin_kernel_release/kernel/block/hisi-blk-iosched-ufs-mq.c:297:12
	ldr	w8, [x0, #8]
	mov	x19, x2
.Ltmp1:
	//DEBUG_VALUE: ufs_tagset_bt_tags_for_each:data <- $x19
	.loc	2 0 12 is_stmt 0        // /mnt/disk/jenkins/workspace/chipset_10.1.0_release_5G/opensource/component_code/vendor/huawei/extra/build/build_script/kirin_kernel_release/kernel/block/hisi-blk-iosched-ufs-mq.c:0:12
	mov	x20, x0
.Ltmp2:
	//DEBUG_VALUE: ufs_tagset_bt_tags_iter:tags <- $x20
	//DEBUG_VALUE: ufs_tagset_bt_tags_iter:bitmap <- [DW_OP_plus_uconst 56, DW_OP_stack_value] $x20
	//DEBUG_VALUE: sbitmap_for_each_set:sb <- [DW_OP_plus_uconst 56, DW_OP_stack_value] $x20
	//DEBUG_VALUE: ufs_tagset_bt_tags_for_each:bt <- [DW_OP_plus_uconst 56, DW_OP_stack_value] $x20
	//DEBUG_VALUE: ufs_tagset_bt_tags_for_each:tags <- $x20
	//DEBUG_VALUE: ufs_tagset_all_tag_busy_iter:priv <- $x19
	//DEBUG_VALUE: ufs_tagset_all_tag_busy_iter:tags <- $x20
	mov	x21, x1
.Ltmp3:
	//DEBUG_VALUE: ufs_tagset_bt_tags_for_each:fn <- $x21
	//DEBUG_VALUE: ufs_tagset_all_tag_busy_iter:fn <- $x21
	.loc	2 297 6                 // /mnt/disk/jenkins/workspace/chipset_10.1.0_release_5G/opensource/component_code/vendor/huawei/extra/build/build_script/kirin_kernel_release/kernel/block/hisi-blk-iosched-ufs-mq.c:297:6
	cbz	w8, .LBB0_2
.Ltmp4:
// %bb.1:
	//DEBUG_VALUE: ufs_tagset_all_tag_busy_iter:fn <- $x21
	//DEBUG_VALUE: ufs_tagset_all_tag_busy_iter:tags <- $x20
	//DEBUG_VALUE: ufs_tagset_all_tag_busy_iter:priv <- $x19
	.loc	2 299 17 is_stmt 1      // /mnt/disk/jenkins/workspace/chipset_10.1.0_release_5G/opensource/component_code/vendor/huawei/extra/build/build_script/kirin_kernel_release/kernel/block/hisi-blk-iosched-ufs-mq.c:299:17
	add	x1, x20, #168           // =168
	.loc	2 298 3                 // /mnt/disk/jenkins/workspace/chipset_10.1.0_release_5G/opensource/component_code/vendor/huawei/extra/build/build_script/kirin_kernel_release/kernel/block/hisi-blk-iosched-ufs-mq.c:298:3
	orr	w5, wzr, #0x1
	mov	x0, x20
	mov	x2, x21
	mov	x3, x19
	mov	w4, wzr
	bl	ufs_tagset_bt_tags_for_each
.Ltmp5:
.LBB0_2:
	//DEBUG_VALUE: ufs_tagset_all_tag_busy_iter:fn <- $x21
	//DEBUG_VALUE: ufs_tagset_all_tag_busy_iter:tags <- $x20
	//DEBUG_VALUE: ufs_tagset_all_tag_busy_iter:priv <- $x19
	.loc	2 300 12                // /mnt/disk/jenkins/workspace/chipset_10.1.0_release_5G/opensource/component_code/vendor/huawei/extra/build/build_script/kirin_kernel_release/kernel/block/hisi-blk-iosched-ufs-mq.c:300:12
	ldr	w8, [x20, #4]
.Ltmp6:
	.loc	2 300 6 is_stmt 0       // /mnt/disk/jenkins/workspace/chipset_10.1.0_release_5G/opensource/component_code/vendor/huawei/extra/build/build_script/kirin_kernel_release/kernel/block/hisi-blk-iosched-ufs-mq.c:300:6
	cbz	w8, .LBB0_4
.Ltmp7:
// %bb.3:
	//DEBUG_VALUE: ufs_tagset_all_tag_busy_iter:fn <- $x21
	//DEBUG_VALUE: ufs_tagset_all_tag_busy_iter:tags <- $x20
	//DEBUG_VALUE: ufs_tagset_all_tag_busy_iter:priv <- $x19
	.loc	2 302 17 is_stmt 1      // /mnt/disk/jenkins/workspace/chipset_10.1.0_release_5G/opensource/component_code/vendor/huawei/extra/build/build_script/kirin_kernel_release/kernel/block/hisi-blk-iosched-ufs-mq.c:302:17
	add	x1, x20, #112           // =112
	.loc	2 301 3                 // /mnt/disk/jenkins/workspace/chipset_10.1.0_release_5G/opensource/component_code/vendor/huawei/extra/build/build_script/kirin_kernel_release/kernel/block/hisi-blk-iosched-ufs-mq.c:301:3
	orr	w4, wzr, #0x1
	mov	x0, x20
	mov	x2, x21
	mov	x3, x19
	mov	w5, wzr
	bl	ufs_tagset_bt_tags_for_each
.Ltmp8:
.LBB0_4:
	//DEBUG_VALUE: ufs_tagset_all_tag_busy_iter:fn <- $x21
	//DEBUG_VALUE: ufs_tagset_all_tag_busy_iter:tags <- $x20
	//DEBUG_VALUE: ufs_tagset_all_tag_busy_iter:priv <- $x19
	//DEBUG_VALUE: ufs_tagset_bt_tags_for_each:reserved <- 0
	//DEBUG_VALUE: ufs_tagset_bt_tags_for_each:prior <- 0
	.loc	2 289 12                // /mnt/disk/jenkins/workspace/chipset_10.1.0_release_5G/opensource/component_code/vendor/huawei/extra/build/build_script/kirin_kernel_release/kernel/block/hisi-blk-iosched-ufs-mq.c:289:12
	ldr	x8, [x20, #224]
.Ltmp9:
	.loc	2 289 6 is_stmt 0       // /mnt/disk/jenkins/workspace/chipset_10.1.0_release_5G/opensource/component_code/vendor/huawei/extra/build/build_script/kirin_kernel_release/kernel/block/hisi-blk-iosched-ufs-mq.c:289:6
	cbz	x8, .LBB0_12
.Ltmp10:
// %bb.5:
	//DEBUG_VALUE: ufs_tagset_all_tag_busy_iter:fn <- $x21
	//DEBUG_VALUE: ufs_tagset_all_tag_busy_iter:tags <- $x20
	//DEBUG_VALUE: ufs_tagset_all_tag_busy_iter:priv <- $x19
	//DEBUG_VALUE: sbitmap_for_each_set:data <- undef
	//DEBUG_VALUE: sbitmap_for_each_set:i <- 0
	.loc	141 230 22 is_stmt 1    // /mnt/disk/jenkins/workspace/chipset_10.1.0_release_5G/opensource/component_code/vendor/huawei/extra/build/build_script/kirin_kernel_release/kernel/include/linux/sbitmap.h:230:22
	ldr	w8, [x20, #64]
.Ltmp11:
	.loc	141 230 2 is_stmt 0     // /mnt/disk/jenkins/workspace/chipset_10.1.0_release_5G/opensource/component_code/vendor/huawei/extra/build/build_script/kirin_kernel_release/kernel/include/linux/sbitmap.h:230:2
	cbz	w8, .LBB0_12
.Ltmp12:
// %bb.6:
	//DEBUG_VALUE: ufs_tagset_all_tag_busy_iter:fn <- $x21
	//DEBUG_VALUE: ufs_tagset_all_tag_busy_iter:tags <- $x20
	//DEBUG_VALUE: ufs_tagset_all_tag_busy_iter:priv <- $x19
	.loc	141 0 2                 // /mnt/disk/jenkins/workspace/chipset_10.1.0_release_5G/opensource/component_code/vendor/huawei/extra/build/build_script/kirin_kernel_release/kernel/include/linux/sbitmap.h:0:2
	mov	x24, xzr
.Ltmp13:
.LBB0_7:                                // =>This Loop Header: Depth=1
                                        //     Child Loop BB0_10 Depth 2
	//DEBUG_VALUE: ufs_tagset_all_tag_busy_iter:fn <- $x21
	//DEBUG_VALUE: ufs_tagset_all_tag_busy_iter:tags <- $x20
	//DEBUG_VALUE: ufs_tagset_all_tag_busy_iter:priv <- $x19
	//DEBUG_VALUE: sbitmap_for_each_set:i <- $x24
	.loc	141 231 36 is_stmt 1    // /mnt/disk/jenkins/workspace/chipset_10.1.0_release_5G/opensource/component_code/vendor/huawei/extra/build/build_script/kirin_kernel_release/kernel/include/linux/sbitmap.h:231:36
	ldr	x8, [x20, #72]
.Ltmp14:
	.loc	141 234 14              // /mnt/disk/jenkins/workspace/chipset_10.1.0_release_5G/opensource/component_code/vendor/huawei/extra/build/build_script/kirin_kernel_release/kernel/include/linux/sbitmap.h:234:14
	add	x22, x8, x24, lsl #6
	ldr	x8, [x22]
.Ltmp15:
	.loc	141 234 7 is_stmt 0     // /mnt/disk/jenkins/workspace/chipset_10.1.0_release_5G/opensource/component_code/vendor/huawei/extra/build/build_script/kirin_kernel_release/kernel/include/linux/sbitmap.h:234:7
	cbz	x8, .LBB0_11
.Ltmp16:
// %bb.8:                               //   in Loop: Header=BB0_7 Depth=1
	//DEBUG_VALUE: sbitmap_for_each_set:i <- $x24
	//DEBUG_VALUE: ufs_tagset_all_tag_busy_iter:fn <- $x21
	//DEBUG_VALUE: ufs_tagset_all_tag_busy_iter:tags <- $x20
	//DEBUG_VALUE: ufs_tagset_all_tag_busy_iter:priv <- $x19
	//DEBUG_VALUE: nr <- 0
	.loc	141 240 42 is_stmt 1    // /mnt/disk/jenkins/workspace/chipset_10.1.0_release_5G/opensource/component_code/vendor/huawei/extra/build/build_script/kirin_kernel_release/kernel/include/linux/sbitmap.h:240:42
	mov	x25, x22
.Ltmp17:
	.loc	141 238 18              // /mnt/disk/jenkins/workspace/chipset_10.1.0_release_5G/opensource/component_code/vendor/huawei/extra/build/build_script/kirin_kernel_release/kernel/include/linux/sbitmap.h:238:18
	ldr	w26, [x20, #60]
.Ltmp18:
	.loc	141 240 42              // /mnt/disk/jenkins/workspace/chipset_10.1.0_release_5G/opensource/component_code/vendor/huawei/extra/build/build_script/kirin_kernel_release/kernel/include/linux/sbitmap.h:240:42
	ldr	x1, [x25, #8]!
	.loc	141 240 9 is_stmt 0     // /mnt/disk/jenkins/workspace/chipset_10.1.0_release_5G/opensource/component_code/vendor/huawei/extra/build/build_script/kirin_kernel_release/kernel/include/linux/sbitmap.h:240:9
	mov	x0, x22
	mov	x2, xzr
	bl	find_next_bit
.Ltmp19:
	.loc	141 241 20 is_stmt 1    // /mnt/disk/jenkins/workspace/chipset_10.1.0_release_5G/opensource/component_code/vendor/huawei/extra/build/build_script/kirin_kernel_release/kernel/include/linux/sbitmap.h:241:20
	ldr	x8, [x25]
.Ltmp20:
	.loc	141 240 9               // /mnt/disk/jenkins/workspace/chipset_10.1.0_release_5G/opensource/component_code/vendor/huawei/extra/build/build_script/kirin_kernel_release/kernel/include/linux/sbitmap.h:240:9
	mov	x23, x0
	.loc	141 241 8               // /mnt/disk/jenkins/workspace/chipset_10.1.0_release_5G/opensource/component_code/vendor/huawei/extra/build/build_script/kirin_kernel_release/kernel/include/linux/sbitmap.h:241:8
	cmp	x8, w23, uxtw
	b.ls	.LBB0_11
.Ltmp21:
// %bb.9:                               //   in Loop: Header=BB0_7 Depth=1
	//DEBUG_VALUE: sbitmap_for_each_set:i <- $x24
	//DEBUG_VALUE: ufs_tagset_all_tag_busy_iter:fn <- $x21
	//DEBUG_VALUE: ufs_tagset_all_tag_busy_iter:tags <- $x20
	//DEBUG_VALUE: ufs_tagset_all_tag_busy_iter:priv <- $x19
	.loc	141 0 8 is_stmt 0       // /mnt/disk/jenkins/workspace/chipset_10.1.0_release_5G/opensource/component_code/vendor/huawei/extra/build/build_script/kirin_kernel_release/kernel/include/linux/sbitmap.h:0:8
	lsl	w26, w24, w26
.Ltmp22:
	//DEBUG_VALUE: off <- $w26
.LBB0_10:                               //   Parent Loop BB0_7 Depth=1
                                        // =>  This Inner Loop Header: Depth=2
	//DEBUG_VALUE: off <- $w26
	//DEBUG_VALUE: sbitmap_for_each_set:i <- $x24
	//DEBUG_VALUE: ufs_tagset_all_tag_busy_iter:fn <- $x21
	//DEBUG_VALUE: ufs_tagset_all_tag_busy_iter:tags <- $x20
	//DEBUG_VALUE: ufs_tagset_all_tag_busy_iter:priv <- $x19
	//DEBUG_VALUE: nr <- $w23
	//DEBUG_VALUE: nr <- [DW_OP_plus_uconst 1, DW_OP_stack_value] $w23
	.loc	2 256 13 is_stmt 1      // /mnt/disk/jenkins/workspace/chipset_10.1.0_release_5G/opensource/component_code/vendor/huawei/extra/build/build_script/kirin_kernel_release/kernel/block/hisi-blk-iosched-ufs-mq.c:256:13
	ldr	x8, [x20, #224]
.Ltmp23:
	.loc	141 244 20              // /mnt/disk/jenkins/workspace/chipset_10.1.0_release_5G/opensource/component_code/vendor/huawei/extra/build/build_script/kirin_kernel_release/kernel/include/linux/sbitmap.h:244:20
	add	w9, w26, w23
.Ltmp24:
	//DEBUG_VALUE: ufs_tagset_bt_tags_iter:iter_data <- undef
	//DEBUG_VALUE: ufs_tagset_bt_tags_iter:data <- undef
	//DEBUG_VALUE: ufs_tagset_bt_tags_iter:bitnr <- $w9
	.loc	2 258 2                 // /mnt/disk/jenkins/workspace/chipset_10.1.0_release_5G/opensource/component_code/vendor/huawei/extra/build/build_script/kirin_kernel_release/kernel/block/hisi-blk-iosched-ufs-mq.c:258:2
	mov	x1, x19
	mov	w2, wzr
	.loc	2 256 7                 // /mnt/disk/jenkins/workspace/chipset_10.1.0_release_5G/opensource/component_code/vendor/huawei/extra/build/build_script/kirin_kernel_release/kernel/block/hisi-blk-iosched-ufs-mq.c:256:7
	ldr	x0, [x8, w9, uxtw #3]
.Ltmp25:
	//DEBUG_VALUE: ufs_tagset_bt_tags_iter:rq <- $x0
	.loc	2 258 2                 // /mnt/disk/jenkins/workspace/chipset_10.1.0_release_5G/opensource/component_code/vendor/huawei/extra/build/build_script/kirin_kernel_release/kernel/block/hisi-blk-iosched-ufs-mq.c:258:2
	blr	x21
.Ltmp26:
	.loc	141 240 42              // /mnt/disk/jenkins/workspace/chipset_10.1.0_release_5G/opensource/component_code/vendor/huawei/extra/build/build_script/kirin_kernel_release/kernel/include/linux/sbitmap.h:240:42
	ldr	x1, [x25]
	.loc	141 247 6               // /mnt/disk/jenkins/workspace/chipset_10.1.0_release_5G/opensource/component_code/vendor/huawei/extra/build/build_script/kirin_kernel_release/kernel/include/linux/sbitmap.h:247:6
	add	w2, w23, #1             // =1
	.loc	141 240 9               // /mnt/disk/jenkins/workspace/chipset_10.1.0_release_5G/opensource/component_code/vendor/huawei/extra/build/build_script/kirin_kernel_release/kernel/include/linux/sbitmap.h:240:9
	mov	x0, x22
	bl	find_next_bit
.Ltmp27:
	.loc	141 241 20              // /mnt/disk/jenkins/workspace/chipset_10.1.0_release_5G/opensource/component_code/vendor/huawei/extra/build/build_script/kirin_kernel_release/kernel/include/linux/sbitmap.h:241:20
	ldr	x8, [x25]
.Ltmp28:
	.loc	141 240 9               // /mnt/disk/jenkins/workspace/chipset_10.1.0_release_5G/opensource/component_code/vendor/huawei/extra/build/build_script/kirin_kernel_release/kernel/include/linux/sbitmap.h:240:9
	mov	x23, x0
.Ltmp29:
	.loc	141 241 8               // /mnt/disk/jenkins/workspace/chipset_10.1.0_release_5G/opensource/component_code/vendor/huawei/extra/build/build_script/kirin_kernel_release/kernel/include/linux/sbitmap.h:241:8
	cmp	x8, w23, uxtw
	b.hi	.LBB0_10
.Ltmp30:
.LBB0_11:                               //   in Loop: Header=BB0_7 Depth=1
	//DEBUG_VALUE: sbitmap_for_each_set:i <- $x24
	//DEBUG_VALUE: ufs_tagset_all_tag_busy_iter:fn <- $x21
	//DEBUG_VALUE: ufs_tagset_all_tag_busy_iter:tags <- $x20
	//DEBUG_VALUE: ufs_tagset_all_tag_busy_iter:priv <- $x19
	//DEBUG_VALUE: sbitmap_for_each_set:i <- [DW_OP_plus_uconst 1, DW_OP_stack_value] undef
	.loc	141 230 22              // /mnt/disk/jenkins/workspace/chipset_10.1.0_release_5G/opensource/component_code/vendor/huawei/extra/build/build_script/kirin_kernel_release/kernel/include/linux/sbitmap.h:230:22
	ldr	w8, [x20, #64]
	.loc	141 230 31 is_stmt 0    // /mnt/disk/jenkins/workspace/chipset_10.1.0_release_5G/opensource/component_code/vendor/huawei/extra/build/build_script/kirin_kernel_release/kernel/include/linux/sbitmap.h:230:31
	add	x24, x24, #1            // =1
.Ltmp31:
	.loc	141 230 2               // /mnt/disk/jenkins/workspace/chipset_10.1.0_release_5G/opensource/component_code/vendor/huawei/extra/build/build_script/kirin_kernel_release/kernel/include/linux/sbitmap.h:230:2
	cmp	x24, x8
	b.lo	.LBB0_7
.Ltmp32:
.LBB0_12:
	//DEBUG_VALUE: ufs_tagset_all_tag_busy_iter:fn <- $x21
	//DEBUG_VALUE: ufs_tagset_all_tag_busy_iter:tags <- $x20
	//DEBUG_VALUE: ufs_tagset_all_tag_busy_iter:priv <- $x19
	.loc	2 305 1 is_stmt 1       // /mnt/disk/jenkins/workspace/chipset_10.1.0_release_5G/opensource/component_code/vendor/huawei/extra/build/build_script/kirin_kernel_release/kernel/block/hisi-blk-iosched-ufs-mq.c:305:1
	ldp	x29, x30, [sp, #64]     // 16-byte Folded Reload
	ldp	x20, x19, [sp, #48]     // 16-byte Folded Reload
.Ltmp33:
	ldp	x22, x21, [sp, #32]     // 16-byte Folded Reload
.Ltmp34:
	ldp	x24, x23, [sp, #16]     // 16-byte Folded Reload
	ldp	x26, x25, [sp], #80     // 16-byte Folded Reload
	ret
.Ltmp35:
.Lfunc_end0:
	.size	ufs_tagset_all_tag_busy_iter, .Lfunc_end0-ufs_tagset_all_tag_busy_iter
	.cfi_endproc
                                        // -- End function
	.section	.text.ufs_tagset_bt_tags_for_each,"ax",@progbits
	.p2align	2               // -- Begin function ufs_tagset_bt_tags_for_each
	.type	ufs_tagset_bt_tags_for_each,@function
ufs_tagset_bt_tags_for_each:            // @ufs_tagset_bt_tags_for_each
.Lfunc_begin1:
	.loc	2 280 0                 // /mnt/disk/jenkins/workspace/chipset_10.1.0_release_5G/opensource/component_code/vendor/huawei/extra/build/build_script/kirin_kernel_release/kernel/block/hisi-blk-iosched-ufs-mq.c:280:0
	.cfi_startproc
// %bb.0:
	sub	sp, sp, #112            // =112
	stp	x28, x27, [sp, #16]     // 16-byte Folded Spill
	stp	x26, x25, [sp, #32]     // 16-byte Folded Spill
	stp	x24, x23, [sp, #48]     // 16-byte Folded Spill
	stp	x22, x21, [sp, #64]     // 16-byte Folded Spill
	stp	x20, x19, [sp, #80]     // 16-byte Folded Spill
	stp	x29, x30, [sp, #96]     // 16-byte Folded Spill
	add	x29, sp, #96            // =96
	.cfi_def_cfa w29, 16
	.cfi_offset w30, -8
	.cfi_offset w29, -16
	.cfi_offset w19, -24
	.cfi_offset w20, -32
	.cfi_offset w21, -40
	.cfi_offset w22, -48
	.cfi_offset w23, -56
	.cfi_offset w24, -64
	.cfi_offset w25, -72
	.cfi_offset w26, -80
	.cfi_offset w27, -88
	.cfi_offset w28, -96
	//DEBUG_VALUE: ufs_tagset_bt_tags_for_each:tags <- $x0
	//DEBUG_VALUE: ufs_tagset_bt_tags_for_each:bt <- $x1
	//DEBUG_VALUE: ufs_tagset_bt_tags_for_each:fn <- $x2
	//DEBUG_VALUE: ufs_tagset_bt_tags_for_each:data <- $x3
	//DEBUG_VALUE: ufs_tagset_bt_tags_for_each:reserved <- $w4
	//DEBUG_VALUE: ufs_tagset_bt_tags_for_each:prior <- $w5
.Ltmp36:
	//DEBUG_VALUE: sbitmap_for_each_set:sb <- $x1
	//DEBUG_VALUE: ufs_tagset_bt_tags_iter:tags <- $x0
	//DEBUG_VALUE: ufs_tagset_bt_tags_iter:bitmap <- $x1
	.loc	2 289 12 prologue_end   // /mnt/disk/jenkins/workspace/chipset_10.1.0_release_5G/opensource/component_code/vendor/huawei/extra/build/build_script/kirin_kernel_release/kernel/block/hisi-blk-iosched-ufs-mq.c:289:12
	ldr	x8, [x0, #224]
.Ltmp37:
	//DEBUG_VALUE: ufs_tagset_bt_tags_iter:bitmap <- $x1
	//DEBUG_VALUE: sbitmap_for_each_set:sb <- $x1
	//DEBUG_VALUE: ufs_tagset_bt_tags_for_each:bt <- $x1
	.loc	2 289 6 is_stmt 0       // /mnt/disk/jenkins/workspace/chipset_10.1.0_release_5G/opensource/component_code/vendor/huawei/extra/build/build_script/kirin_kernel_release/kernel/block/hisi-blk-iosched-ufs-mq.c:289:6
	cbz	x8, .LBB1_12
.Ltmp38:
// %bb.1:
	//DEBUG_VALUE: sbitmap_for_each_set:sb <- $x1
	//DEBUG_VALUE: ufs_tagset_bt_tags_for_each:prior <- $w5
	//DEBUG_VALUE: ufs_tagset_bt_tags_for_each:reserved <- $w4
	//DEBUG_VALUE: ufs_tagset_bt_tags_for_each:data <- $x3
	//DEBUG_VALUE: ufs_tagset_bt_tags_for_each:fn <- $x2
	//DEBUG_VALUE: ufs_tagset_bt_tags_for_each:bt <- $x1
	//DEBUG_VALUE: ufs_tagset_bt_tags_for_each:tags <- $x0
	//DEBUG_VALUE: sbitmap_for_each_set:data <- undef
	//DEBUG_VALUE: sbitmap_for_each_set:i <- 0
	.loc	141 230 22 is_stmt 1    // /mnt/disk/jenkins/workspace/chipset_10.1.0_release_5G/opensource/component_code/vendor/huawei/extra/build/build_script/kirin_kernel_release/kernel/include/linux/sbitmap.h:230:22
	ldr	w8, [x1, #8]
.Ltmp39:
	.loc	141 230 2 is_stmt 0     // /mnt/disk/jenkins/workspace/chipset_10.1.0_release_5G/opensource/component_code/vendor/huawei/extra/build/build_script/kirin_kernel_release/kernel/include/linux/sbitmap.h:230:2
	cbz	w8, .LBB1_12
.Ltmp40:
// %bb.2:
	//DEBUG_VALUE: sbitmap_for_each_set:sb <- $x1
	//DEBUG_VALUE: ufs_tagset_bt_tags_for_each:prior <- $w5
	//DEBUG_VALUE: ufs_tagset_bt_tags_for_each:reserved <- $w4
	//DEBUG_VALUE: ufs_tagset_bt_tags_for_each:data <- $x3
	//DEBUG_VALUE: ufs_tagset_bt_tags_for_each:fn <- $x2
	//DEBUG_VALUE: ufs_tagset_bt_tags_for_each:bt <- $x1
	//DEBUG_VALUE: ufs_tagset_bt_tags_for_each:tags <- $x0
	.loc	141 0 2                 // /mnt/disk/jenkins/workspace/chipset_10.1.0_release_5G/opensource/component_code/vendor/huawei/extra/build/build_script/kirin_kernel_release/kernel/include/linux/sbitmap.h:0:2
	mov	w19, w5
.Ltmp41:
	//DEBUG_VALUE: ufs_tagset_bt_tags_for_each:prior <- $w19
	mov	w20, w4
.Ltmp42:
	//DEBUG_VALUE: ufs_tagset_bt_tags_for_each:reserved <- $w20
	mov	x21, x3
.Ltmp43:
	//DEBUG_VALUE: ufs_tagset_bt_tags_for_each:data <- $x21
	mov	x22, x2
.Ltmp44:
	//DEBUG_VALUE: ufs_tagset_bt_tags_for_each:fn <- $x22
	mov	x23, x0
.Ltmp45:
	//DEBUG_VALUE: ufs_tagset_bt_tags_iter:tags <- $x23
	//DEBUG_VALUE: ufs_tagset_bt_tags_for_each:tags <- $x23
	//DEBUG_VALUE: ufs_tagset_bt_tags_for_each:prior <- $w19
	mov	x27, xzr
	str	x1, [sp, #8]            // 8-byte Folded Spill
.Ltmp46:
.LBB1_3:                                // =>This Loop Header: Depth=1
                                        //     Child Loop BB1_6 Depth 2
	//DEBUG_VALUE: ufs_tagset_bt_tags_for_each:tags <- $x23
	//DEBUG_VALUE: ufs_tagset_bt_tags_for_each:fn <- $x22
	//DEBUG_VALUE: ufs_tagset_bt_tags_for_each:data <- $x21
	//DEBUG_VALUE: ufs_tagset_bt_tags_for_each:reserved <- $w20
	//DEBUG_VALUE: ufs_tagset_bt_tags_for_each:prior <- $w19
	//DEBUG_VALUE: sbitmap_for_each_set:sb <- $x1
	//DEBUG_VALUE: ufs_tagset_bt_tags_for_each:bt <- $x1
	//DEBUG_VALUE: sbitmap_for_each_set:i <- $x27
	.loc	141 231 36 is_stmt 1    // /mnt/disk/jenkins/workspace/chipset_10.1.0_release_5G/opensource/component_code/vendor/huawei/extra/build/build_script/kirin_kernel_release/kernel/include/linux/sbitmap.h:231:36
	ldr	x8, [x1, #16]
.Ltmp47:
	.loc	141 234 14              // /mnt/disk/jenkins/workspace/chipset_10.1.0_release_5G/opensource/component_code/vendor/huawei/extra/build/build_script/kirin_kernel_release/kernel/include/linux/sbitmap.h:234:14
	add	x25, x8, x27, lsl #6
	ldr	x8, [x25]
.Ltmp48:
	.loc	141 234 7 is_stmt 0     // /mnt/disk/jenkins/workspace/chipset_10.1.0_release_5G/opensource/component_code/vendor/huawei/extra/build/build_script/kirin_kernel_release/kernel/include/linux/sbitmap.h:234:7
	cbz	x8, .LBB1_11
.Ltmp49:
// %bb.4:                               //   in Loop: Header=BB1_3 Depth=1
	//DEBUG_VALUE: sbitmap_for_each_set:i <- $x27
	//DEBUG_VALUE: ufs_tagset_bt_tags_for_each:tags <- $x23
	//DEBUG_VALUE: ufs_tagset_bt_tags_for_each:fn <- $x22
	//DEBUG_VALUE: ufs_tagset_bt_tags_for_each:data <- $x21
	//DEBUG_VALUE: ufs_tagset_bt_tags_for_each:reserved <- $w20
	//DEBUG_VALUE: ufs_tagset_bt_tags_for_each:prior <- $w19
	//DEBUG_VALUE: sbitmap_for_each_set:sb <- $x1
	//DEBUG_VALUE: ufs_tagset_bt_tags_for_each:bt <- $x1
	//DEBUG_VALUE: nr <- 0
	.loc	141 0 7                 // /mnt/disk/jenkins/workspace/chipset_10.1.0_release_5G/opensource/component_code/vendor/huawei/extra/build/build_script/kirin_kernel_release/kernel/include/linux/sbitmap.h:0:7
	ldr	x8, [sp, #8]            // 8-byte Folded Reload
.Ltmp50:
	.loc	141 240 42 is_stmt 1    // /mnt/disk/jenkins/workspace/chipset_10.1.0_release_5G/opensource/component_code/vendor/huawei/extra/build/build_script/kirin_kernel_release/kernel/include/linux/sbitmap.h:240:42
	mov	x28, x25
	.loc	141 240 9 is_stmt 0     // /mnt/disk/jenkins/workspace/chipset_10.1.0_release_5G/opensource/component_code/vendor/huawei/extra/build/build_script/kirin_kernel_release/kernel/include/linux/sbitmap.h:240:9
	mov	x0, x25
	mov	x2, xzr
.Ltmp51:
	.loc	141 238 18 is_stmt 1    // /mnt/disk/jenkins/workspace/chipset_10.1.0_release_5G/opensource/component_code/vendor/huawei/extra/build/build_script/kirin_kernel_release/kernel/include/linux/sbitmap.h:238:18
	ldr	w24, [x8, #4]
.Ltmp52:
	.loc	141 240 42              // /mnt/disk/jenkins/workspace/chipset_10.1.0_release_5G/opensource/component_code/vendor/huawei/extra/build/build_script/kirin_kernel_release/kernel/include/linux/sbitmap.h:240:42
	ldr	x1, [x28, #8]!
.Ltmp53:
	.loc	141 240 9 is_stmt 0     // /mnt/disk/jenkins/workspace/chipset_10.1.0_release_5G/opensource/component_code/vendor/huawei/extra/build/build_script/kirin_kernel_release/kernel/include/linux/sbitmap.h:240:9
	bl	find_next_bit
.Ltmp54:
	.loc	141 241 20 is_stmt 1    // /mnt/disk/jenkins/workspace/chipset_10.1.0_release_5G/opensource/component_code/vendor/huawei/extra/build/build_script/kirin_kernel_release/kernel/include/linux/sbitmap.h:241:20
	ldr	x8, [x28]
.Ltmp55:
	.loc	141 240 9               // /mnt/disk/jenkins/workspace/chipset_10.1.0_release_5G/opensource/component_code/vendor/huawei/extra/build/build_script/kirin_kernel_release/kernel/include/linux/sbitmap.h:240:9
	mov	x26, x0
	.loc	141 241 8               // /mnt/disk/jenkins/workspace/chipset_10.1.0_release_5G/opensource/component_code/vendor/huawei/extra/build/build_script/kirin_kernel_release/kernel/include/linux/sbitmap.h:241:8
	cmp	x8, w26, uxtw
	b.ls	.LBB1_11
.Ltmp56:
// %bb.5:                               //   in Loop: Header=BB1_3 Depth=1
	//DEBUG_VALUE: sbitmap_for_each_set:i <- $x27
	//DEBUG_VALUE: ufs_tagset_bt_tags_for_each:tags <- $x23
	//DEBUG_VALUE: ufs_tagset_bt_tags_for_each:fn <- $x22
	//DEBUG_VALUE: ufs_tagset_bt_tags_for_each:data <- $x21
	//DEBUG_VALUE: ufs_tagset_bt_tags_for_each:reserved <- $w20
	//DEBUG_VALUE: ufs_tagset_bt_tags_for_each:prior <- $w19
	.loc	141 0 8 is_stmt 0       // /mnt/disk/jenkins/workspace/chipset_10.1.0_release_5G/opensource/component_code/vendor/huawei/extra/build/build_script/kirin_kernel_release/kernel/include/linux/sbitmap.h:0:8
	lsl	w24, w27, w24
.Ltmp57:
	//DEBUG_VALUE: off <- $w24
.LBB1_6:                                //   Parent Loop BB1_3 Depth=1
                                        // =>  This Inner Loop Header: Depth=2
	//DEBUG_VALUE: off <- $w24
	//DEBUG_VALUE: sbitmap_for_each_set:i <- $x27
	//DEBUG_VALUE: ufs_tagset_bt_tags_for_each:tags <- $x23
	//DEBUG_VALUE: ufs_tagset_bt_tags_for_each:fn <- $x22
	//DEBUG_VALUE: ufs_tagset_bt_tags_for_each:data <- $x21
	//DEBUG_VALUE: ufs_tagset_bt_tags_for_each:reserved <- $w20
	//DEBUG_VALUE: ufs_tagset_bt_tags_for_each:prior <- $w19
	//DEBUG_VALUE: nr <- $w26
	//DEBUG_VALUE: nr <- [DW_OP_plus_uconst 1, DW_OP_stack_value] $w26
	.loc	141 244 20 is_stmt 1    // /mnt/disk/jenkins/workspace/chipset_10.1.0_release_5G/opensource/component_code/vendor/huawei/extra/build/build_script/kirin_kernel_release/kernel/include/linux/sbitmap.h:244:20
	add	w8, w24, w26
.Ltmp58:
	//DEBUG_VALUE: ufs_tagset_bt_tags_iter:iter_data <- undef
	//DEBUG_VALUE: ufs_tagset_bt_tags_iter:data <- undef
	//DEBUG_VALUE: ufs_tagset_bt_tags_iter:bitnr <- $w8
	.loc	2 251 6                 // /mnt/disk/jenkins/workspace/chipset_10.1.0_release_5G/opensource/component_code/vendor/huawei/extra/build/build_script/kirin_kernel_release/kernel/block/hisi-blk-iosched-ufs-mq.c:251:6
	tbz	w20, #0, .LBB1_8
.Ltmp59:
// %bb.7:                               //   in Loop: Header=BB1_6 Depth=2
	//DEBUG_VALUE: ufs_tagset_bt_tags_iter:bitnr <- $w8
	//DEBUG_VALUE: nr <- $w26
	//DEBUG_VALUE: off <- $w24
	//DEBUG_VALUE: sbitmap_for_each_set:i <- $x27
	//DEBUG_VALUE: ufs_tagset_bt_tags_for_each:tags <- $x23
	//DEBUG_VALUE: ufs_tagset_bt_tags_for_each:fn <- $x22
	//DEBUG_VALUE: ufs_tagset_bt_tags_for_each:data <- $x21
	//DEBUG_VALUE: ufs_tagset_bt_tags_for_each:reserved <- $w20
	//DEBUG_VALUE: ufs_tagset_bt_tags_for_each:prior <- $w19
	.loc	2 252 18                // /mnt/disk/jenkins/workspace/chipset_10.1.0_release_5G/opensource/component_code/vendor/huawei/extra/build/build_script/kirin_kernel_release/kernel/block/hisi-blk-iosched-ufs-mq.c:252:18
	ldr	w9, [x23, #16]
	.loc	2 252 9 is_stmt 0       // /mnt/disk/jenkins/workspace/chipset_10.1.0_release_5G/opensource/component_code/vendor/huawei/extra/build/build_script/kirin_kernel_release/kernel/block/hisi-blk-iosched-ufs-mq.c:252:9
	add	w8, w9, w8
.Ltmp60:
	//DEBUG_VALUE: ufs_tagset_bt_tags_iter:bitnr <- $w8
.LBB1_8:                                //   in Loop: Header=BB1_6 Depth=2
	//DEBUG_VALUE: ufs_tagset_bt_tags_iter:bitnr <- $w8
	//DEBUG_VALUE: nr <- $w26
	//DEBUG_VALUE: off <- $w24
	//DEBUG_VALUE: sbitmap_for_each_set:i <- $x27
	//DEBUG_VALUE: ufs_tagset_bt_tags_for_each:tags <- $x23
	//DEBUG_VALUE: ufs_tagset_bt_tags_for_each:fn <- $x22
	//DEBUG_VALUE: ufs_tagset_bt_tags_for_each:data <- $x21
	//DEBUG_VALUE: ufs_tagset_bt_tags_for_each:reserved <- $w20
	//DEBUG_VALUE: ufs_tagset_bt_tags_for_each:prior <- $w19
	//DEBUG_VALUE: ufs_tagset_bt_tags_iter:bitnr <- $w8
	.loc	2 253 6 is_stmt 1       // /mnt/disk/jenkins/workspace/chipset_10.1.0_release_5G/opensource/component_code/vendor/huawei/extra/build/build_script/kirin_kernel_release/kernel/block/hisi-blk-iosched-ufs-mq.c:253:6
	tbz	w19, #0, .LBB1_10
.Ltmp61:
// %bb.9:                               //   in Loop: Header=BB1_6 Depth=2
	//DEBUG_VALUE: ufs_tagset_bt_tags_iter:bitnr <- $w8
	//DEBUG_VALUE: nr <- $w26
	//DEBUG_VALUE: off <- $w24
	//DEBUG_VALUE: sbitmap_for_each_set:i <- $x27
	//DEBUG_VALUE: ufs_tagset_bt_tags_for_each:tags <- $x23
	//DEBUG_VALUE: ufs_tagset_bt_tags_for_each:fn <- $x22
	//DEBUG_VALUE: ufs_tagset_bt_tags_for_each:data <- $x21
	//DEBUG_VALUE: ufs_tagset_bt_tags_for_each:reserved <- $w20
	//DEBUG_VALUE: ufs_tagset_bt_tags_for_each:prior <- $w19
	.loc	2 254 18                // /mnt/disk/jenkins/workspace/chipset_10.1.0_release_5G/opensource/component_code/vendor/huawei/extra/build/build_script/kirin_kernel_release/kernel/block/hisi-blk-iosched-ufs-mq.c:254:18
	ldr	w9, [x23, #20]
	.loc	2 254 9 is_stmt 0       // /mnt/disk/jenkins/workspace/chipset_10.1.0_release_5G/opensource/component_code/vendor/huawei/extra/build/build_script/kirin_kernel_release/kernel/block/hisi-blk-iosched-ufs-mq.c:254:9
	add	w8, w9, w8
.Ltmp62:
	//DEBUG_VALUE: ufs_tagset_bt_tags_iter:bitnr <- $w8
.LBB1_10:                               //   in Loop: Header=BB1_6 Depth=2
	//DEBUG_VALUE: ufs_tagset_bt_tags_iter:bitnr <- $w8
	//DEBUG_VALUE: nr <- $w26
	//DEBUG_VALUE: off <- $w24
	//DEBUG_VALUE: sbitmap_for_each_set:i <- $x27
	//DEBUG_VALUE: ufs_tagset_bt_tags_for_each:tags <- $x23
	//DEBUG_VALUE: ufs_tagset_bt_tags_for_each:fn <- $x22
	//DEBUG_VALUE: ufs_tagset_bt_tags_for_each:data <- $x21
	//DEBUG_VALUE: ufs_tagset_bt_tags_for_each:reserved <- $w20
	//DEBUG_VALUE: ufs_tagset_bt_tags_for_each:prior <- $w19
	//DEBUG_VALUE: ufs_tagset_bt_tags_iter:bitnr <- $w8
	.loc	2 256 13 is_stmt 1      // /mnt/disk/jenkins/workspace/chipset_10.1.0_release_5G/opensource/component_code/vendor/huawei/extra/build/build_script/kirin_kernel_release/kernel/block/hisi-blk-iosched-ufs-mq.c:256:13
	ldr	x9, [x23, #224]
	.loc	2 258 2                 // /mnt/disk/jenkins/workspace/chipset_10.1.0_release_5G/opensource/component_code/vendor/huawei/extra/build/build_script/kirin_kernel_release/kernel/block/hisi-blk-iosched-ufs-mq.c:258:2
	and	w2, w20, #0x1
	mov	x1, x21
	.loc	2 256 7                 // /mnt/disk/jenkins/workspace/chipset_10.1.0_release_5G/opensource/component_code/vendor/huawei/extra/build/build_script/kirin_kernel_release/kernel/block/hisi-blk-iosched-ufs-mq.c:256:7
	ldr	x0, [x9, w8, uxtw #3]
.Ltmp63:
	//DEBUG_VALUE: ufs_tagset_bt_tags_iter:rq <- $x0
	.loc	2 258 2                 // /mnt/disk/jenkins/workspace/chipset_10.1.0_release_5G/opensource/component_code/vendor/huawei/extra/build/build_script/kirin_kernel_release/kernel/block/hisi-blk-iosched-ufs-mq.c:258:2
	blr	x22
.Ltmp64:
	.loc	141 240 42              // /mnt/disk/jenkins/workspace/chipset_10.1.0_release_5G/opensource/component_code/vendor/huawei/extra/build/build_script/kirin_kernel_release/kernel/include/linux/sbitmap.h:240:42
	ldr	x1, [x28]
	.loc	141 247 6               // /mnt/disk/jenkins/workspace/chipset_10.1.0_release_5G/opensource/component_code/vendor/huawei/extra/build/build_script/kirin_kernel_release/kernel/include/linux/sbitmap.h:247:6
	add	w2, w26, #1             // =1
	.loc	141 240 9               // /mnt/disk/jenkins/workspace/chipset_10.1.0_release_5G/opensource/component_code/vendor/huawei/extra/build/build_script/kirin_kernel_release/kernel/include/linux/sbitmap.h:240:9
	mov	x0, x25
	bl	find_next_bit
.Ltmp65:
	.loc	141 241 20              // /mnt/disk/jenkins/workspace/chipset_10.1.0_release_5G/opensource/component_code/vendor/huawei/extra/build/build_script/kirin_kernel_release/kernel/include/linux/sbitmap.h:241:20
	ldr	x8, [x28]
.Ltmp66:
	.loc	141 240 9               // /mnt/disk/jenkins/workspace/chipset_10.1.0_release_5G/opensource/component_code/vendor/huawei/extra/build/build_script/kirin_kernel_release/kernel/include/linux/sbitmap.h:240:9
	mov	x26, x0
.Ltmp67:
	.loc	141 241 8               // /mnt/disk/jenkins/workspace/chipset_10.1.0_release_5G/opensource/component_code/vendor/huawei/extra/build/build_script/kirin_kernel_release/kernel/include/linux/sbitmap.h:241:8
	cmp	x8, w26, uxtw
	b.hi	.LBB1_6
.Ltmp68:
.LBB1_11:                               //   in Loop: Header=BB1_3 Depth=1
	//DEBUG_VALUE: sbitmap_for_each_set:i <- $x27
	//DEBUG_VALUE: ufs_tagset_bt_tags_for_each:tags <- $x23
	//DEBUG_VALUE: ufs_tagset_bt_tags_for_each:fn <- $x22
	//DEBUG_VALUE: ufs_tagset_bt_tags_for_each:data <- $x21
	//DEBUG_VALUE: ufs_tagset_bt_tags_for_each:reserved <- $w20
	//DEBUG_VALUE: ufs_tagset_bt_tags_for_each:prior <- $w19
	//DEBUG_VALUE: sbitmap_for_each_set:i <- [DW_OP_plus_uconst 1, DW_OP_stack_value] undef
	.loc	141 0 8 is_stmt 0       // /mnt/disk/jenkins/workspace/chipset_10.1.0_release_5G/opensource/component_code/vendor/huawei/extra/build/build_script/kirin_kernel_release/kernel/include/linux/sbitmap.h:0:8
	ldr	x1, [sp, #8]            // 8-byte Folded Reload
	.loc	141 230 31 is_stmt 1    // /mnt/disk/jenkins/workspace/chipset_10.1.0_release_5G/opensource/component_code/vendor/huawei/extra/build/build_script/kirin_kernel_release/kernel/include/linux/sbitmap.h:230:31
	add	x27, x27, #1            // =1
	.loc	141 230 22 is_stmt 0    // /mnt/disk/jenkins/workspace/chipset_10.1.0_release_5G/opensource/component_code/vendor/huawei/extra/build/build_script/kirin_kernel_release/kernel/include/linux/sbitmap.h:230:22
	ldr	w8, [x1, #8]
.Ltmp69:
	.loc	141 230 2               // /mnt/disk/jenkins/workspace/chipset_10.1.0_release_5G/opensource/component_code/vendor/huawei/extra/build/build_script/kirin_kernel_release/kernel/include/linux/sbitmap.h:230:2
	cmp	x27, x8
	b.lo	.LBB1_3
.Ltmp70:
.LBB1_12:
	.loc	2 292 1 is_stmt 1       // /mnt/disk/jenkins/workspace/chipset_10.1.0_release_5G/opensource/component_code/vendor/huawei/extra/build/build_script/kirin_kernel_release/kernel/block/hisi-blk-iosched-ufs-mq.c:292:1
	ldp	x29, x30, [sp, #96]     // 16-byte Folded Reload
	ldp	x20, x19, [sp, #80]     // 16-byte Folded Reload
	ldp	x22, x21, [sp, #64]     // 16-byte Folded Reload
	ldp	x24, x23, [sp, #48]     // 16-byte Folded Reload
	ldp	x26, x25, [sp, #32]     // 16-byte Folded Reload
	ldp	x28, x27, [sp, #16]     // 16-byte Folded Reload
	add	sp, sp, #112            // =112
	ret
.Ltmp71:
.Lfunc_end1:
	.size	ufs_tagset_bt_tags_for_each, .Lfunc_end1-ufs_tagset_bt_tags_for_each
	.cfi_endproc
                                        // -- End function
	.section	.text.ufs_mq_tag_get,"ax",@progbits
	.hidden	ufs_mq_tag_get          // -- Begin function ufs_mq_tag_get
	.globl	ufs_mq_tag_get
	.p2align	2
	.type	ufs_mq_tag_get,@function
ufs_mq_tag_get:                         // @ufs_mq_tag_get
.Lfunc_begin2:
	.loc	2 448 0                 // /mnt/disk/jenkins/workspace/chipset_10.1.0_release_5G/opensource/component_code/vendor/huawei/extra/build/build_script/kirin_kernel_release/kernel/block/hisi-blk-iosched-ufs-mq.c:448:0
	.cfi_startproc
// %bb.0:
	str	x19, [sp, #-32]!        // 8-byte Folded Spill
	stp	x29, x30, [sp, #16]     // 16-byte Folded Spill
	add	x29, sp, #16            // =16
	.cfi_def_cfa w29, 16
	.cfi_offset w30, -8
	.cfi_offset w29, -16
	.cfi_offset w19, -32
	//DEBUG_VALUE: ufs_mq_tag_get:data <- $x0
.Ltmp72:
	//DEBUG_VALUE: ufs_tagset_get_high_prio_tag:data <- $x0
	//DEBUG_VALUE: ufs_tagset_get_reserved_tag:data <- $x0
	//DEBUG_VALUE: ufs_tagset_get_tag:data <- $x0
	.loc	2 449 29 prologue_end   // /mnt/disk/jenkins/workspace/chipset_10.1.0_release_5G/opensource/component_code/vendor/huawei/extra/build/build_script/kirin_kernel_release/kernel/block/hisi-blk-iosched-ufs-mq.c:449:29
	ldr	x9, [x0, #8]
	mov	w10, #4096
	movk	w10, #64, lsl #16
	.loc	2 449 37 is_stmt 0      // /mnt/disk/jenkins/workspace/chipset_10.1.0_release_5G/opensource/component_code/vendor/huawei/extra/build/build_script/kirin_kernel_release/kernel/block/hisi-blk-iosched-ufs-mq.c:449:37
	add	x8, x10, #2048          // =2048
	and	x8, x9, x8
.Ltmp73:
	//DEBUG_VALUE: ufs_mq_tag_get:flag <- $x8
	.loc	2 0 37                  // /mnt/disk/jenkins/workspace/chipset_10.1.0_release_5G/opensource/component_code/vendor/huawei/extra/build/build_script/kirin_kernel_release/kernel/block/hisi-blk-iosched-ufs-mq.c:0:37
	mov	x19, x0
.Ltmp74:
	//DEBUG_VALUE: ufs_tagset_get_tag:data <- $x19
	//DEBUG_VALUE: ufs_tagset_get_reserved_tag:data <- $x19
	//DEBUG_VALUE: ufs_tagset_get_high_prio_tag:data <- $x19
	//DEBUG_VALUE: ufs_mq_tag_get:data <- $x19
	.loc	2 452 6 is_stmt 1       // /mnt/disk/jenkins/workspace/chipset_10.1.0_release_5G/opensource/component_code/vendor/huawei/extra/build/build_script/kirin_kernel_release/kernel/block/hisi-blk-iosched-ufs-mq.c:452:6
	cmp	x8, #2048               // =2048
	b.ne	.LBB2_6
.Ltmp75:
// %bb.1:
	//DEBUG_VALUE: ufs_mq_tag_get:data <- $x19
	//DEBUG_VALUE: ufs_tagset_get_tag:data <- $x19
	//DEBUG_VALUE: ufs_mq_tag_get:flag <- $x8
	.loc	2 389 16                // /mnt/disk/jenkins/workspace/chipset_10.1.0_release_5G/opensource/component_code/vendor/huawei/extra/build/build_script/kirin_kernel_release/kernel/block/hisi-blk-iosched-ufs-mq.c:389:16
	ldr	x2, [x19, #32]
	.loc	2 388 8                 // /mnt/disk/jenkins/workspace/chipset_10.1.0_release_5G/opensource/component_code/vendor/huawei/extra/build/build_script/kirin_kernel_release/kernel/block/hisi-blk-iosched-ufs-mq.c:388:8
	mov	x0, x19
	.loc	2 389 22                // /mnt/disk/jenkins/workspace/chipset_10.1.0_release_5G/opensource/component_code/vendor/huawei/extra/build/build_script/kirin_kernel_release/kernel/block/hisi-blk-iosched-ufs-mq.c:389:22
	ldr	x8, [x2, #304]
.Ltmp76:
	.loc	2 389 28 is_stmt 0      // /mnt/disk/jenkins/workspace/chipset_10.1.0_release_5G/opensource/component_code/vendor/huawei/extra/build/build_script/kirin_kernel_release/kernel/block/hisi-blk-iosched-ufs-mq.c:389:28
	add	x1, x8, #56             // =56
	.loc	2 388 8 is_stmt 1       // /mnt/disk/jenkins/workspace/chipset_10.1.0_release_5G/opensource/component_code/vendor/huawei/extra/build/build_script/kirin_kernel_release/kernel/block/hisi-blk-iosched-ufs-mq.c:388:8
	bl	ufs_tagset_bt_get
.Ltmp77:
	//DEBUG_VALUE: ufs_tagset_get_tag:tag <- $w0
	.loc	2 390 6                 // /mnt/disk/jenkins/workspace/chipset_10.1.0_release_5G/opensource/component_code/vendor/huawei/extra/build/build_script/kirin_kernel_release/kernel/block/hisi-blk-iosched-ufs-mq.c:390:6
	tbnz	w0, #31, .LBB2_18
.Ltmp78:
// %bb.2:
	//DEBUG_VALUE: ufs_tagset_get_tag:tag <- $w0
	//DEBUG_VALUE: ufs_mq_tag_get:data <- $x19
	//DEBUG_VALUE: ufs_tagset_get_tag:data <- $x19
	.loc	2 391 3                 // /mnt/disk/jenkins/workspace/chipset_10.1.0_release_5G/opensource/component_code/vendor/huawei/extra/build/build_script/kirin_kernel_release/kernel/block/hisi-blk-iosched-ufs-mq.c:391:3
	ldr	x8, [x19, #32]
	ldr	x8, [x8, #304]
.Ltmp79:
	//DEBUG_VALUE: atomic_add:i <- 1
	//DEBUG_VALUE: atomic_add:v <- [DW_OP_plus_uconst 24, DW_OP_stack_value] $x8
	.file	152 "/mnt/disk/jenkins/workspace/chipset_10.1.0_release_5G/opensource/component_code/vendor/huawei/extra/build/build_script/kirin_kernel_release/kernel/arch/arm64/include/asm/atomic_ll_sc.h"
	.loc	152 113 1               // /mnt/disk/jenkins/workspace/chipset_10.1.0_release_5G/opensource/component_code/vendor/huawei/extra/build/build_script/kirin_kernel_release/kernel/arch/arm64/include/asm/atomic_ll_sc.h:113:1
	add	x8, x8, #24             // =24
.Ltmp80:
	//APP
	// atomic_add
	prfm	pstl1strm, [x8]
1:	ldxr	w9, [x8]
	add	w9, w9, #1
	stxr	w10, w9, [x8]
	cbnz	w10, 1b
	//NO_APP
.Ltmp81:
	.loc	2 392 3                 // /mnt/disk/jenkins/workspace/chipset_10.1.0_release_5G/opensource/component_code/vendor/huawei/extra/build/build_script/kirin_kernel_release/kernel/block/hisi-blk-iosched-ufs-mq.c:392:3
	ldr	x8, [x19]
.Ltmp82:
	//DEBUG_VALUE: get_sched_ds_lld:q <- $x8
	.loc	2 376 41                // /mnt/disk/jenkins/workspace/chipset_10.1.0_release_5G/opensource/component_code/vendor/huawei/extra/build/build_script/kirin_kernel_release/kernel/block/hisi-blk-iosched-ufs-mq.c:376:41
	ldr	x8, [x8, #1792]
.Ltmp83:
	//DEBUG_VALUE: get_sched_ds_lld:custom_queuedata <- $x8
	.loc	2 378 9                 // /mnt/disk/jenkins/workspace/chipset_10.1.0_release_5G/opensource/component_code/vendor/huawei/extra/build/build_script/kirin_kernel_release/kernel/block/hisi-blk-iosched-ufs-mq.c:378:9
	cbz	x8, .LBB2_4
.Ltmp84:
// %bb.3:
	//DEBUG_VALUE: get_sched_ds_lld:custom_queuedata <- $x8
	//DEBUG_VALUE: ufs_tagset_get_tag:tag <- $w0
	//DEBUG_VALUE: ufs_mq_tag_get:data <- $x19
	//DEBUG_VALUE: ufs_tagset_get_tag:data <- $x19
	.loc	2 380 8                 // /mnt/disk/jenkins/workspace/chipset_10.1.0_release_5G/opensource/component_code/vendor/huawei/extra/build/build_script/kirin_kernel_release/kernel/block/hisi-blk-iosched-ufs-mq.c:380:8
	ldr	x8, [x8, #280]
.Ltmp85:
.LBB2_4:
	//DEBUG_VALUE: ufs_tagset_get_tag:tag <- $w0
	//DEBUG_VALUE: ufs_mq_tag_get:data <- $x19
	//DEBUG_VALUE: ufs_tagset_get_tag:data <- $x19
	//DEBUG_VALUE: atomic_add:i <- 1
	//DEBUG_VALUE: atomic_add:v <- [DW_OP_plus_uconst 16, DW_OP_stack_value] $x8
	.loc	152 113 1               // /mnt/disk/jenkins/workspace/chipset_10.1.0_release_5G/opensource/component_code/vendor/huawei/extra/build/build_script/kirin_kernel_release/kernel/arch/arm64/include/asm/atomic_ll_sc.h:113:1
	add	x8, x8, #16             // =16
.Ltmp86:
	//APP
	// atomic_add
	prfm	pstl1strm, [x8]
1:	ldxr	w9, [x8]
	add	w9, w9, #1
	stxr	w10, w9, [x8]
	cbnz	w10, 1b
	//NO_APP
.Ltmp87:
.LBB2_5:
	//DEBUG_VALUE: ufs_mq_tag_get:data <- $x19
	//DEBUG_VALUE: ufs_mq_tag_get:tag <- undef
	.loc	2 459 2                 // /mnt/disk/jenkins/workspace/chipset_10.1.0_release_5G/opensource/component_code/vendor/huawei/extra/build/build_script/kirin_kernel_release/kernel/block/hisi-blk-iosched-ufs-mq.c:459:2
	ldp	x29, x30, [sp, #16]     // 16-byte Folded Reload
	ldr	x19, [sp], #32          // 8-byte Folded Reload
.Ltmp88:
	ret
.LBB2_6:
.Ltmp89:
	//DEBUG_VALUE: ufs_mq_tag_get:data <- $x19
	//DEBUG_VALUE: ufs_mq_tag_get:flag <- $x8
	.loc	2 0 0 is_stmt 0         // /mnt/disk/jenkins/workspace/chipset_10.1.0_release_5G/opensource/component_code/vendor/huawei/extra/build/build_script/kirin_kernel_release/kernel/block/hisi-blk-iosched-ufs-mq.c:0:0
	ldr	x2, [x19, #32]
	.loc	2 454 16 is_stmt 1      // /mnt/disk/jenkins/workspace/chipset_10.1.0_release_5G/opensource/component_code/vendor/huawei/extra/build/build_script/kirin_kernel_release/kernel/block/hisi-blk-iosched-ufs-mq.c:454:16
	tst	x9, x10
	.loc	2 0 0 is_stmt 0         // /mnt/disk/jenkins/workspace/chipset_10.1.0_release_5G/opensource/component_code/vendor/huawei/extra/build/build_script/kirin_kernel_release/kernel/block/hisi-blk-iosched-ufs-mq.c:0:0
	ldr	x8, [x2, #304]
.Ltmp90:
	.loc	2 454 11                // /mnt/disk/jenkins/workspace/chipset_10.1.0_release_5G/opensource/component_code/vendor/huawei/extra/build/build_script/kirin_kernel_release/kernel/block/hisi-blk-iosched-ufs-mq.c:454:11
	b.eq	.LBB2_12
.Ltmp91:
// %bb.7:
	//DEBUG_VALUE: ufs_mq_tag_get:data <- $x19
	.loc	2 427 6 is_stmt 1       // /mnt/disk/jenkins/workspace/chipset_10.1.0_release_5G/opensource/component_code/vendor/huawei/extra/build/build_script/kirin_kernel_release/kernel/block/hisi-blk-iosched-ufs-mq.c:427:6
	ldr	w9, [x8, #8]
.Ltmp92:
	.loc	2 427 6 is_stmt 0       // /mnt/disk/jenkins/workspace/chipset_10.1.0_release_5G/opensource/component_code/vendor/huawei/extra/build/build_script/kirin_kernel_release/kernel/block/hisi-blk-iosched-ufs-mq.c:427:6
	cbz	w9, .LBB2_18
.Ltmp93:
// %bb.8:
	//DEBUG_VALUE: ufs_mq_tag_get:data <- $x19
	.loc	2 437 28 is_stmt 1      // /mnt/disk/jenkins/workspace/chipset_10.1.0_release_5G/opensource/component_code/vendor/huawei/extra/build/build_script/kirin_kernel_release/kernel/block/hisi-blk-iosched-ufs-mq.c:437:28
	add	x1, x8, #168            // =168
	.loc	2 436 8                 // /mnt/disk/jenkins/workspace/chipset_10.1.0_release_5G/opensource/component_code/vendor/huawei/extra/build/build_script/kirin_kernel_release/kernel/block/hisi-blk-iosched-ufs-mq.c:436:8
	mov	x0, x19
	bl	ufs_tagset_bt_get
.Ltmp94:
	//DEBUG_VALUE: ufs_tagset_get_high_prio_tag:tag <- $w0
	.loc	2 438 6                 // /mnt/disk/jenkins/workspace/chipset_10.1.0_release_5G/opensource/component_code/vendor/huawei/extra/build/build_script/kirin_kernel_release/kernel/block/hisi-blk-iosched-ufs-mq.c:438:6
	tbnz	w0, #31, .LBB2_18
.Ltmp95:
// %bb.9:
	//DEBUG_VALUE: ufs_tagset_get_high_prio_tag:tag <- $w0
	//DEBUG_VALUE: ufs_mq_tag_get:data <- $x19
	.loc	2 439 3                 // /mnt/disk/jenkins/workspace/chipset_10.1.0_release_5G/opensource/component_code/vendor/huawei/extra/build/build_script/kirin_kernel_release/kernel/block/hisi-blk-iosched-ufs-mq.c:439:3
	ldr	x8, [x19, #32]
	ldr	x8, [x8, #304]
.Ltmp96:
	//DEBUG_VALUE: atomic_add:i <- 1
	//DEBUG_VALUE: atomic_add:v <- [DW_OP_plus_uconst 32, DW_OP_stack_value] $x8
	.loc	152 113 1               // /mnt/disk/jenkins/workspace/chipset_10.1.0_release_5G/opensource/component_code/vendor/huawei/extra/build/build_script/kirin_kernel_release/kernel/arch/arm64/include/asm/atomic_ll_sc.h:113:1
	add	x8, x8, #32             // =32
.Ltmp97:
	//APP
	// atomic_add
	prfm	pstl1strm, [x8]
1:	ldxr	w9, [x8]
	add	w9, w9, #1
	stxr	w10, w9, [x8]
	cbnz	w10, 1b
	//NO_APP
.Ltmp98:
	.loc	2 440 3                 // /mnt/disk/jenkins/workspace/chipset_10.1.0_release_5G/opensource/component_code/vendor/huawei/extra/build/build_script/kirin_kernel_release/kernel/block/hisi-blk-iosched-ufs-mq.c:440:3
	ldr	x8, [x19]
.Ltmp99:
	//DEBUG_VALUE: get_sched_ds_lld:q <- $x8
	.loc	2 376 41                // /mnt/disk/jenkins/workspace/chipset_10.1.0_release_5G/opensource/component_code/vendor/huawei/extra/build/build_script/kirin_kernel_release/kernel/block/hisi-blk-iosched-ufs-mq.c:376:41
	ldr	x8, [x8, #1792]
.Ltmp100:
	//DEBUG_VALUE: get_sched_ds_lld:custom_queuedata <- $x8
	.loc	2 378 9                 // /mnt/disk/jenkins/workspace/chipset_10.1.0_release_5G/opensource/component_code/vendor/huawei/extra/build/build_script/kirin_kernel_release/kernel/block/hisi-blk-iosched-ufs-mq.c:378:9
	cbz	x8, .LBB2_11
.Ltmp101:
// %bb.10:
	//DEBUG_VALUE: get_sched_ds_lld:custom_queuedata <- $x8
	//DEBUG_VALUE: ufs_tagset_get_high_prio_tag:tag <- $w0
	//DEBUG_VALUE: ufs_mq_tag_get:data <- $x19
	.loc	2 380 8                 // /mnt/disk/jenkins/workspace/chipset_10.1.0_release_5G/opensource/component_code/vendor/huawei/extra/build/build_script/kirin_kernel_release/kernel/block/hisi-blk-iosched-ufs-mq.c:380:8
	ldr	x8, [x8, #280]
.Ltmp102:
.LBB2_11:
	//DEBUG_VALUE: ufs_tagset_get_high_prio_tag:tag <- $w0
	//DEBUG_VALUE: ufs_mq_tag_get:data <- $x19
	//DEBUG_VALUE: atomic_add:i <- 1
	//DEBUG_VALUE: atomic_add:v <- [DW_OP_plus_uconst 24, DW_OP_stack_value] $x8
	.loc	152 113 1               // /mnt/disk/jenkins/workspace/chipset_10.1.0_release_5G/opensource/component_code/vendor/huawei/extra/build/build_script/kirin_kernel_release/kernel/arch/arm64/include/asm/atomic_ll_sc.h:113:1
	add	x8, x8, #24             // =24
.Ltmp103:
	//APP
	// atomic_add
	prfm	pstl1strm, [x8]
1:	ldxr	w9, [x8]
	add	w9, w9, #1
	stxr	w10, w9, [x8]
	cbnz	w10, 1b
	//NO_APP
.Ltmp104:
	.loc	2 442 22                // /mnt/disk/jenkins/workspace/chipset_10.1.0_release_5G/opensource/component_code/vendor/huawei/extra/build/build_script/kirin_kernel_release/kernel/block/hisi-blk-iosched-ufs-mq.c:442:22
	ldr	x8, [x19, #32]
	.loc	2 442 28 is_stmt 0      // /mnt/disk/jenkins/workspace/chipset_10.1.0_release_5G/opensource/component_code/vendor/huawei/extra/build/build_script/kirin_kernel_release/kernel/block/hisi-blk-iosched-ufs-mq.c:442:28
	ldr	x8, [x8, #304]
	.loc	2 442 34                // /mnt/disk/jenkins/workspace/chipset_10.1.0_release_5G/opensource/component_code/vendor/huawei/extra/build/build_script/kirin_kernel_release/kernel/block/hisi-blk-iosched-ufs-mq.c:442:34
	ldr	w8, [x8, #20]
	b	.LBB2_17
.Ltmp105:
.LBB2_12:
	//DEBUG_VALUE: ufs_mq_tag_get:data <- $x19
	.loc	2 402 6 is_stmt 1       // /mnt/disk/jenkins/workspace/chipset_10.1.0_release_5G/opensource/component_code/vendor/huawei/extra/build/build_script/kirin_kernel_release/kernel/block/hisi-blk-iosched-ufs-mq.c:402:6
	ldr	w9, [x8, #4]
.Ltmp106:
	.loc	2 402 6 is_stmt 0       // /mnt/disk/jenkins/workspace/chipset_10.1.0_release_5G/opensource/component_code/vendor/huawei/extra/build/build_script/kirin_kernel_release/kernel/block/hisi-blk-iosched-ufs-mq.c:402:6
	cbz	w9, .LBB2_18
.Ltmp107:
// %bb.13:
	//DEBUG_VALUE: ufs_mq_tag_get:data <- $x19
	.loc	2 412 28 is_stmt 1      // /mnt/disk/jenkins/workspace/chipset_10.1.0_release_5G/opensource/component_code/vendor/huawei/extra/build/build_script/kirin_kernel_release/kernel/block/hisi-blk-iosched-ufs-mq.c:412:28
	add	x1, x8, #112            // =112
	.loc	2 411 8                 // /mnt/disk/jenkins/workspace/chipset_10.1.0_release_5G/opensource/component_code/vendor/huawei/extra/build/build_script/kirin_kernel_release/kernel/block/hisi-blk-iosched-ufs-mq.c:411:8
	mov	x0, x19
	bl	ufs_tagset_bt_get
.Ltmp108:
	//DEBUG_VALUE: ufs_tagset_get_reserved_tag:tag <- $w0
	.loc	2 414 6                 // /mnt/disk/jenkins/workspace/chipset_10.1.0_release_5G/opensource/component_code/vendor/huawei/extra/build/build_script/kirin_kernel_release/kernel/block/hisi-blk-iosched-ufs-mq.c:414:6
	tbnz	w0, #31, .LBB2_18
.Ltmp109:
// %bb.14:
	//DEBUG_VALUE: ufs_tagset_get_reserved_tag:tag <- $w0
	//DEBUG_VALUE: ufs_mq_tag_get:data <- $x19
	.loc	2 415 3                 // /mnt/disk/jenkins/workspace/chipset_10.1.0_release_5G/opensource/component_code/vendor/huawei/extra/build/build_script/kirin_kernel_release/kernel/block/hisi-blk-iosched-ufs-mq.c:415:3
	ldr	x8, [x19, #32]
	ldr	x8, [x8, #304]
.Ltmp110:
	//DEBUG_VALUE: atomic_add:i <- 1
	//DEBUG_VALUE: atomic_add:v <- [DW_OP_plus_uconst 28, DW_OP_stack_value] $x8
	.loc	152 113 1               // /mnt/disk/jenkins/workspace/chipset_10.1.0_release_5G/opensource/component_code/vendor/huawei/extra/build/build_script/kirin_kernel_release/kernel/arch/arm64/include/asm/atomic_ll_sc.h:113:1
	add	x8, x8, #28             // =28
.Ltmp111:
	//APP
	// atomic_add
	prfm	pstl1strm, [x8]
1:	ldxr	w9, [x8]
	add	w9, w9, #1
	stxr	w10, w9, [x8]
	cbnz	w10, 1b
	//NO_APP
.Ltmp112:
	.loc	2 416 3                 // /mnt/disk/jenkins/workspace/chipset_10.1.0_release_5G/opensource/component_code/vendor/huawei/extra/build/build_script/kirin_kernel_release/kernel/block/hisi-blk-iosched-ufs-mq.c:416:3
	ldr	x8, [x19]
.Ltmp113:
	//DEBUG_VALUE: get_sched_ds_lld:q <- $x8
	.loc	2 376 41                // /mnt/disk/jenkins/workspace/chipset_10.1.0_release_5G/opensource/component_code/vendor/huawei/extra/build/build_script/kirin_kernel_release/kernel/block/hisi-blk-iosched-ufs-mq.c:376:41
	ldr	x8, [x8, #1792]
.Ltmp114:
	//DEBUG_VALUE: get_sched_ds_lld:custom_queuedata <- $x8
	.loc	2 378 9                 // /mnt/disk/jenkins/workspace/chipset_10.1.0_release_5G/opensource/component_code/vendor/huawei/extra/build/build_script/kirin_kernel_release/kernel/block/hisi-blk-iosched-ufs-mq.c:378:9
	cbz	x8, .LBB2_16
.Ltmp115:
// %bb.15:
	//DEBUG_VALUE: get_sched_ds_lld:custom_queuedata <- $x8
	//DEBUG_VALUE: ufs_tagset_get_reserved_tag:tag <- $w0
	//DEBUG_VALUE: ufs_mq_tag_get:data <- $x19
	.loc	2 380 8                 // /mnt/disk/jenkins/workspace/chipset_10.1.0_release_5G/opensource/component_code/vendor/huawei/extra/build/build_script/kirin_kernel_release/kernel/block/hisi-blk-iosched-ufs-mq.c:380:8
	ldr	x8, [x8, #280]
.Ltmp116:
.LBB2_16:
	//DEBUG_VALUE: ufs_tagset_get_reserved_tag:tag <- $w0
	//DEBUG_VALUE: ufs_mq_tag_get:data <- $x19
	//DEBUG_VALUE: atomic_add:i <- 1
	//DEBUG_VALUE: atomic_add:v <- [DW_OP_plus_uconst 20, DW_OP_stack_value] $x8
	.loc	152 113 1               // /mnt/disk/jenkins/workspace/chipset_10.1.0_release_5G/opensource/component_code/vendor/huawei/extra/build/build_script/kirin_kernel_release/kernel/arch/arm64/include/asm/atomic_ll_sc.h:113:1
	add	x8, x8, #20             // =20
.Ltmp117:
	//APP
	// atomic_add
	prfm	pstl1strm, [x8]
1:	ldxr	w9, [x8]
	add	w9, w9, #1
	stxr	w10, w9, [x8]
	cbnz	w10, 1b
	//NO_APP
.Ltmp118:
	.loc	2 418 22                // /mnt/disk/jenkins/workspace/chipset_10.1.0_release_5G/opensource/component_code/vendor/huawei/extra/build/build_script/kirin_kernel_release/kernel/block/hisi-blk-iosched-ufs-mq.c:418:22
	ldr	x8, [x19, #32]
	.loc	2 418 28 is_stmt 0      // /mnt/disk/jenkins/workspace/chipset_10.1.0_release_5G/opensource/component_code/vendor/huawei/extra/build/build_script/kirin_kernel_release/kernel/block/hisi-blk-iosched-ufs-mq.c:418:28
	ldr	x8, [x8, #304]
	.loc	2 418 34                // /mnt/disk/jenkins/workspace/chipset_10.1.0_release_5G/opensource/component_code/vendor/huawei/extra/build/build_script/kirin_kernel_release/kernel/block/hisi-blk-iosched-ufs-mq.c:418:34
	ldr	w8, [x8, #16]
.Ltmp119:
.LBB2_17:
	//DEBUG_VALUE: ufs_mq_tag_get:data <- $x19
	.loc	2 0 0                   // /mnt/disk/jenkins/workspace/chipset_10.1.0_release_5G/opensource/component_code/vendor/huawei/extra/build/build_script/kirin_kernel_release/kernel/block/hisi-blk-iosched-ufs-mq.c:0:0
	add	w0, w8, w0
	b	.LBB2_5
.Ltmp120:
.LBB2_18:
	//DEBUG_VALUE: ufs_mq_tag_get:data <- $x19
	mov	w0, #-1
	b	.LBB2_5
.Lfunc_end2:
	.size	ufs_mq_tag_get, .Lfunc_end2-ufs_mq_tag_get
	.cfi_endproc
                                        // -- End function
	.section	.text.ufs_mq_tag_put,"ax",@progbits
	.hidden	ufs_mq_tag_put          // -- Begin function ufs_mq_tag_put
	.globl	ufs_mq_tag_put
	.p2align	2
	.type	ufs_mq_tag_put,@function
ufs_mq_tag_put:                         // @ufs_mq_tag_put
.Lfunc_begin3:
	.loc	2 464 0 is_stmt 1       // /mnt/disk/jenkins/workspace/chipset_10.1.0_release_5G/opensource/component_code/vendor/huawei/extra/build/build_script/kirin_kernel_release/kernel/block/hisi-blk-iosched-ufs-mq.c:464:0
	.cfi_startproc
// %bb.0:
	stp	x20, x19, [sp, #-32]!   // 16-byte Folded Spill
	stp	x29, x30, [sp, #16]     // 16-byte Folded Spill
	add	x29, sp, #16            // =16
	.cfi_def_cfa w29, 16
	.cfi_offset w30, -8
	.cfi_offset w29, -16
	.cfi_offset w19, -24
	.cfi_offset w20, -32
	//DEBUG_VALUE: ufs_mq_tag_put:hctx <- $x0
	//DEBUG_VALUE: ufs_mq_tag_put:ctx <- $x1
	//DEBUG_VALUE: ufs_mq_tag_put:tag <- $w2
	//DEBUG_VALUE: ufs_mq_tag_put:rq <- $x3
.Ltmp121:
	.loc	2 465 35 prologue_end   // /mnt/disk/jenkins/workspace/chipset_10.1.0_release_5G/opensource/component_code/vendor/huawei/extra/build/build_script/kirin_kernel_release/kernel/block/hisi-blk-iosched-ufs-mq.c:465:35
	ldr	x20, [x0, #304]
.Ltmp122:
	//DEBUG_VALUE: ufs_mq_tag_put:tags <- $x20
	//DEBUG_VALUE: atomic_sub:v <- [DW_OP_plus_uconst 32, DW_OP_stack_value] $x20
	//DEBUG_VALUE: atomic_sub:v <- [DW_OP_plus_uconst 28, DW_OP_stack_value] $x20
	//DEBUG_VALUE: atomic_sub:v <- [DW_OP_plus_uconst 24, DW_OP_stack_value] $x20
	.loc	2 0 35 is_stmt 0        // /mnt/disk/jenkins/workspace/chipset_10.1.0_release_5G/opensource/component_code/vendor/huawei/extra/build/build_script/kirin_kernel_release/kernel/block/hisi-blk-iosched-ufs-mq.c:0:35
	mov	x19, x0
.Ltmp123:
	//DEBUG_VALUE: ufs_mq_tag_put:hctx <- $x19
	.loc	2 467 6 is_stmt 1       // /mnt/disk/jenkins/workspace/chipset_10.1.0_release_5G/opensource/component_code/vendor/huawei/extra/build/build_script/kirin_kernel_release/kernel/block/hisi-blk-iosched-ufs-mq.c:467:6
	ldr	w9, [x20, #20]
.Ltmp124:
	//DEBUG_VALUE: ufs_mq_tag_put:tag <- $w2
	.loc	2 467 6 is_stmt 0       // /mnt/disk/jenkins/workspace/chipset_10.1.0_release_5G/opensource/component_code/vendor/huawei/extra/build/build_script/kirin_kernel_release/kernel/block/hisi-blk-iosched-ufs-mq.c:467:6
	cmp	w9, w2
	//DEBUG_VALUE: ufs_mq_tag_put:rq <- $x3
	b.ls	.LBB3_6
.Ltmp125:
// %bb.1:
	//DEBUG_VALUE: ufs_mq_tag_put:hctx <- $x19
	//DEBUG_VALUE: ufs_mq_tag_put:tags <- $x20
	//DEBUG_VALUE: ufs_mq_tag_put:rq <- $x3
	//DEBUG_VALUE: ufs_mq_tag_put:tag <- $w2
	//DEBUG_VALUE: ufs_mq_tag_put:ctx <- $x1
	.loc	2 474 13 is_stmt 1      // /mnt/disk/jenkins/workspace/chipset_10.1.0_release_5G/opensource/component_code/vendor/huawei/extra/build/build_script/kirin_kernel_release/kernel/block/hisi-blk-iosched-ufs-mq.c:474:13
	ldr	w9, [x20, #16]
.Ltmp126:
	.loc	2 474 13 is_stmt 0      // /mnt/disk/jenkins/workspace/chipset_10.1.0_release_5G/opensource/component_code/vendor/huawei/extra/build/build_script/kirin_kernel_release/kernel/block/hisi-blk-iosched-ufs-mq.c:474:13
	cmp	w9, w2
	b.ls	.LBB3_9
.Ltmp127:
// %bb.2:
	//DEBUG_VALUE: ufs_mq_tag_put:hctx <- $x19
	//DEBUG_VALUE: ufs_mq_tag_put:tags <- $x20
	//DEBUG_VALUE: ufs_mq_tag_put:rq <- $x3
	//DEBUG_VALUE: ufs_mq_tag_put:tag <- $w2
	//DEBUG_VALUE: ufs_mq_tag_put:ctx <- $x1
	.loc	2 483 17 is_stmt 1      // /mnt/disk/jenkins/workspace/chipset_10.1.0_release_5G/opensource/component_code/vendor/huawei/extra/build/build_script/kirin_kernel_release/kernel/block/hisi-blk-iosched-ufs-mq.c:483:17
	ldr	x8, [x3, #280]
	.loc	2 482 30                // /mnt/disk/jenkins/workspace/chipset_10.1.0_release_5G/opensource/component_code/vendor/huawei/extra/build/build_script/kirin_kernel_release/kernel/block/hisi-blk-iosched-ufs-mq.c:482:30
	add	x0, x20, #56            // =56
	.loc	2 482 3 is_stmt 0       // /mnt/disk/jenkins/workspace/chipset_10.1.0_release_5G/opensource/component_code/vendor/huawei/extra/build/build_script/kirin_kernel_release/kernel/block/hisi-blk-iosched-ufs-mq.c:482:3
	mov	w1, w2
.Ltmp128:
	.loc	2 483 34 is_stmt 1      // /mnt/disk/jenkins/workspace/chipset_10.1.0_release_5G/opensource/component_code/vendor/huawei/extra/build/build_script/kirin_kernel_release/kernel/block/hisi-blk-iosched-ufs-mq.c:483:34
	ldr	w8, [x8, #64]
	.loc	2 482 3                 // /mnt/disk/jenkins/workspace/chipset_10.1.0_release_5G/opensource/component_code/vendor/huawei/extra/build/build_script/kirin_kernel_release/kernel/block/hisi-blk-iosched-ufs-mq.c:482:3
	mov	w2, w8
.Ltmp129:
	bl	sbitmap_queue_clear
.Ltmp130:
	//DEBUG_VALUE: atomic_sub:i <- 1
	.loc	152 114 1               // /mnt/disk/jenkins/workspace/chipset_10.1.0_release_5G/opensource/component_code/vendor/huawei/extra/build/build_script/kirin_kernel_release/kernel/arch/arm64/include/asm/atomic_ll_sc.h:114:1
	add	x8, x20, #24            // =24
	//APP
	// atomic_sub
	prfm	pstl1strm, [x8]
1:	ldxr	w9, [x8]
	sub	w9, w9, #1
	stxr	w10, w9, [x8]
	cbnz	w10, 1b
	//NO_APP
.Ltmp131:
	.loc	2 485 3                 // /mnt/disk/jenkins/workspace/chipset_10.1.0_release_5G/opensource/component_code/vendor/huawei/extra/build/build_script/kirin_kernel_release/kernel/block/hisi-blk-iosched-ufs-mq.c:485:3
	ldr	x8, [x19, #192]
.Ltmp132:
	//DEBUG_VALUE: get_sched_ds_lld:q <- $x8
	.loc	2 376 41                // /mnt/disk/jenkins/workspace/chipset_10.1.0_release_5G/opensource/component_code/vendor/huawei/extra/build/build_script/kirin_kernel_release/kernel/block/hisi-blk-iosched-ufs-mq.c:376:41
	ldr	x8, [x8, #1792]
.Ltmp133:
	//DEBUG_VALUE: get_sched_ds_lld:custom_queuedata <- $x8
	.loc	2 378 9                 // /mnt/disk/jenkins/workspace/chipset_10.1.0_release_5G/opensource/component_code/vendor/huawei/extra/build/build_script/kirin_kernel_release/kernel/block/hisi-blk-iosched-ufs-mq.c:378:9
	cbz	x8, .LBB3_4
.Ltmp134:
// %bb.3:
	//DEBUG_VALUE: get_sched_ds_lld:custom_queuedata <- $x8
	//DEBUG_VALUE: ufs_mq_tag_put:hctx <- $x19
	//DEBUG_VALUE: ufs_mq_tag_put:tags <- $x20
	.loc	2 380 8                 // /mnt/disk/jenkins/workspace/chipset_10.1.0_release_5G/opensource/component_code/vendor/huawei/extra/build/build_script/kirin_kernel_release/kernel/block/hisi-blk-iosched-ufs-mq.c:380:8
	ldr	x8, [x8, #280]
.Ltmp135:
.LBB3_4:
	//DEBUG_VALUE: ufs_mq_tag_put:hctx <- $x19
	//DEBUG_VALUE: ufs_mq_tag_put:tags <- $x20
	//DEBUG_VALUE: atomic_sub:i <- 1
	//DEBUG_VALUE: atomic_sub:v <- [DW_OP_plus_uconst 16, DW_OP_stack_value] $x8
	.loc	152 114 1               // /mnt/disk/jenkins/workspace/chipset_10.1.0_release_5G/opensource/component_code/vendor/huawei/extra/build/build_script/kirin_kernel_release/kernel/arch/arm64/include/asm/atomic_ll_sc.h:114:1
	add	x8, x8, #16             // =16
.Ltmp136:
	//APP
	// atomic_sub
	prfm	pstl1strm, [x8]
1:	ldxr	w9, [x8]
	sub	w9, w9, #1
	stxr	w10, w9, [x8]
	cbnz	w10, 1b
	//NO_APP
.Ltmp137:
.LBB3_5:
	//DEBUG_VALUE: ufs_mq_tag_put:hctx <- $x19
	//DEBUG_VALUE: ufs_mq_tag_put:tags <- $x20
	.loc	2 488 2                 // /mnt/disk/jenkins/workspace/chipset_10.1.0_release_5G/opensource/component_code/vendor/huawei/extra/build/build_script/kirin_kernel_release/kernel/block/hisi-blk-iosched-ufs-mq.c:488:2
	ldp	x29, x30, [sp, #16]     // 16-byte Folded Reload
	mov	w0, wzr
	ldp	x20, x19, [sp], #32     // 16-byte Folded Reload
.Ltmp138:
	ret
.LBB3_6:
.Ltmp139:
	//DEBUG_VALUE: ufs_mq_tag_put:hctx <- $x19
	//DEBUG_VALUE: atomic_sub:v <- [DW_OP_plus_uconst 32, DW_OP_stack_value] $x20
	//DEBUG_VALUE: ufs_mq_tag_put:tags <- $x20
	//DEBUG_VALUE: ufs_mq_tag_put:rq <- $x3
	//DEBUG_VALUE: ufs_mq_tag_put:tag <- $w2
	//DEBUG_VALUE: ufs_mq_tag_put:ctx <- $x1
	.loc	2 470 17                // /mnt/disk/jenkins/workspace/chipset_10.1.0_release_5G/opensource/component_code/vendor/huawei/extra/build/build_script/kirin_kernel_release/kernel/block/hisi-blk-iosched-ufs-mq.c:470:17
	ldr	x8, [x3, #280]
	.loc	2 468 30                // /mnt/disk/jenkins/workspace/chipset_10.1.0_release_5G/opensource/component_code/vendor/huawei/extra/build/build_script/kirin_kernel_release/kernel/block/hisi-blk-iosched-ufs-mq.c:468:30
	add	x0, x20, #168           // =168
	.loc	2 469 9                 // /mnt/disk/jenkins/workspace/chipset_10.1.0_release_5G/opensource/component_code/vendor/huawei/extra/build/build_script/kirin_kernel_release/kernel/block/hisi-blk-iosched-ufs-mq.c:469:9
	sub	w1, w2, w9
.Ltmp140:
	.loc	2 470 34                // /mnt/disk/jenkins/workspace/chipset_10.1.0_release_5G/opensource/component_code/vendor/huawei/extra/build/build_script/kirin_kernel_release/kernel/block/hisi-blk-iosched-ufs-mq.c:470:34
	ldr	w8, [x8, #64]
	.loc	2 468 3                 // /mnt/disk/jenkins/workspace/chipset_10.1.0_release_5G/opensource/component_code/vendor/huawei/extra/build/build_script/kirin_kernel_release/kernel/block/hisi-blk-iosched-ufs-mq.c:468:3
	mov	w2, w8
.Ltmp141:
	bl	sbitmap_queue_clear
.Ltmp142:
	//DEBUG_VALUE: atomic_sub:i <- 1
	.loc	152 114 1               // /mnt/disk/jenkins/workspace/chipset_10.1.0_release_5G/opensource/component_code/vendor/huawei/extra/build/build_script/kirin_kernel_release/kernel/arch/arm64/include/asm/atomic_ll_sc.h:114:1
	add	x8, x20, #32            // =32
	//APP
	// atomic_sub
	prfm	pstl1strm, [x8]
1:	ldxr	w9, [x8]
	sub	w9, w9, #1
	stxr	w10, w9, [x8]
	cbnz	w10, 1b
	//NO_APP
.Ltmp143:
	.loc	2 472 3                 // /mnt/disk/jenkins/workspace/chipset_10.1.0_release_5G/opensource/component_code/vendor/huawei/extra/build/build_script/kirin_kernel_release/kernel/block/hisi-blk-iosched-ufs-mq.c:472:3
	ldr	x8, [x19, #192]
.Ltmp144:
	//DEBUG_VALUE: get_sched_ds_lld:q <- $x8
	.loc	2 376 41                // /mnt/disk/jenkins/workspace/chipset_10.1.0_release_5G/opensource/component_code/vendor/huawei/extra/build/build_script/kirin_kernel_release/kernel/block/hisi-blk-iosched-ufs-mq.c:376:41
	ldr	x8, [x8, #1792]
.Ltmp145:
	//DEBUG_VALUE: get_sched_ds_lld:custom_queuedata <- $x8
	.loc	2 378 9                 // /mnt/disk/jenkins/workspace/chipset_10.1.0_release_5G/opensource/component_code/vendor/huawei/extra/build/build_script/kirin_kernel_release/kernel/block/hisi-blk-iosched-ufs-mq.c:378:9
	cbz	x8, .LBB3_8
.Ltmp146:
// %bb.7:
	//DEBUG_VALUE: get_sched_ds_lld:custom_queuedata <- $x8
	//DEBUG_VALUE: ufs_mq_tag_put:hctx <- $x19
	//DEBUG_VALUE: ufs_mq_tag_put:tags <- $x20
	.loc	2 380 8                 // /mnt/disk/jenkins/workspace/chipset_10.1.0_release_5G/opensource/component_code/vendor/huawei/extra/build/build_script/kirin_kernel_release/kernel/block/hisi-blk-iosched-ufs-mq.c:380:8
	ldr	x8, [x8, #280]
.Ltmp147:
.LBB3_8:
	//DEBUG_VALUE: ufs_mq_tag_put:hctx <- $x19
	//DEBUG_VALUE: ufs_mq_tag_put:tags <- $x20
	//DEBUG_VALUE: atomic_sub:i <- 1
	//DEBUG_VALUE: atomic_sub:v <- [DW_OP_plus_uconst 24, DW_OP_stack_value] $x8
	.loc	152 114 1               // /mnt/disk/jenkins/workspace/chipset_10.1.0_release_5G/opensource/component_code/vendor/huawei/extra/build/build_script/kirin_kernel_release/kernel/arch/arm64/include/asm/atomic_ll_sc.h:114:1
	add	x8, x8, #24             // =24
.Ltmp148:
	//APP
	// atomic_sub
	prfm	pstl1strm, [x8]
1:	ldxr	w9, [x8]
	sub	w9, w9, #1
	stxr	w10, w9, [x8]
	cbnz	w10, 1b
	//NO_APP
	b	.LBB3_5
.Ltmp149:
.LBB3_9:
	//DEBUG_VALUE: ufs_mq_tag_put:hctx <- $x19
	//DEBUG_VALUE: ufs_mq_tag_put:tags <- $x20
	//DEBUG_VALUE: ufs_mq_tag_put:rq <- $x3
	//DEBUG_VALUE: ufs_mq_tag_put:tag <- $w2
	//DEBUG_VALUE: ufs_mq_tag_put:ctx <- $x1
	.loc	2 477 17                // /mnt/disk/jenkins/workspace/chipset_10.1.0_release_5G/opensource/component_code/vendor/huawei/extra/build/build_script/kirin_kernel_release/kernel/block/hisi-blk-iosched-ufs-mq.c:477:17
	ldr	x8, [x3, #280]
	.loc	2 475 30                // /mnt/disk/jenkins/workspace/chipset_10.1.0_release_5G/opensource/component_code/vendor/huawei/extra/build/build_script/kirin_kernel_release/kernel/block/hisi-blk-iosched-ufs-mq.c:475:30
	add	x0, x20, #112           // =112
	.loc	2 476 9                 // /mnt/disk/jenkins/workspace/chipset_10.1.0_release_5G/opensource/component_code/vendor/huawei/extra/build/build_script/kirin_kernel_release/kernel/block/hisi-blk-iosched-ufs-mq.c:476:9
	sub	w1, w2, w9
.Ltmp150:
	.loc	2 477 34                // /mnt/disk/jenkins/workspace/chipset_10.1.0_release_5G/opensource/component_code/vendor/huawei/extra/build/build_script/kirin_kernel_release/kernel/block/hisi-blk-iosched-ufs-mq.c:477:34
	ldr	w8, [x8, #64]
	.loc	2 475 3                 // /mnt/disk/jenkins/workspace/chipset_10.1.0_release_5G/opensource/component_code/vendor/huawei/extra/build/build_script/kirin_kernel_release/kernel/block/hisi-blk-iosched-ufs-mq.c:475:3
	mov	w2, w8
.Ltmp151:
	bl	sbitmap_queue_clear
.Ltmp152:
	//DEBUG_VALUE: atomic_sub:i <- 1
	.loc	152 114 1               // /mnt/disk/jenkins/workspace/chipset_10.1.0_release_5G/opensource/component_code/vendor/huawei/extra/build/build_script/kirin_kernel_release/kernel/arch/arm64/include/asm/atomic_ll_sc.h:114:1
	add	x8, x20, #28            // =28
	//APP
	// atomic_sub
	prfm	pstl1strm, [x8]
1:	ldxr	w9, [x8]
	sub	w9, w9, #1
	stxr	w10, w9, [x8]
	cbnz	w10, 1b
	//NO_APP
.Ltmp153:
	.loc	2 479 3                 // /mnt/disk/jenkins/workspace/chipset_10.1.0_release_5G/opensource/component_code/vendor/huawei/extra/build/build_script/kirin_kernel_release/kernel/block/hisi-blk-iosched-ufs-mq.c:479:3
	ldr	x8, [x19, #192]
.Ltmp154:
	//DEBUG_VALUE: get_sched_ds_lld:q <- $x8
	.loc	2 376 41                // /mnt/disk/jenkins/workspace/chipset_10.1.0_release_5G/opensource/component_code/vendor/huawei/extra/build/build_script/kirin_kernel_release/kernel/block/hisi-blk-iosched-ufs-mq.c:376:41
	ldr	x8, [x8, #1792]
.Ltmp155:
	//DEBUG_VALUE: get_sched_ds_lld:custom_queuedata <- $x8
	.loc	2 378 9                 // /mnt/disk/jenkins/workspace/chipset_10.1.0_release_5G/opensource/component_code/vendor/huawei/extra/build/build_script/kirin_kernel_release/kernel/block/hisi-blk-iosched-ufs-mq.c:378:9
	cbz	x8, .LBB3_11
.Ltmp156:
// %bb.10:
	//DEBUG_VALUE: get_sched_ds_lld:custom_queuedata <- $x8
	//DEBUG_VALUE: ufs_mq_tag_put:hctx <- $x19
	//DEBUG_VALUE: ufs_mq_tag_put:tags <- $x20
	.loc	2 380 8                 // /mnt/disk/jenkins/workspace/chipset_10.1.0_release_5G/opensource/component_code/vendor/huawei/extra/build/build_script/kirin_kernel_release/kernel/block/hisi-blk-iosched-ufs-mq.c:380:8
	ldr	x8, [x8, #280]
.Ltmp157:
.LBB3_11:
	//DEBUG_VALUE: ufs_mq_tag_put:hctx <- $x19
	//DEBUG_VALUE: ufs_mq_tag_put:tags <- $x20
	//DEBUG_VALUE: atomic_sub:i <- 1
	//DEBUG_VALUE: atomic_sub:v <- [DW_OP_plus_uconst 20, DW_OP_stack_value] $x8
	.loc	152 114 1               // /mnt/disk/jenkins/workspace/chipset_10.1.0_release_5G/opensource/component_code/vendor/huawei/extra/build/build_script/kirin_kernel_release/kernel/arch/arm64/include/asm/atomic_ll_sc.h:114:1
	add	x8, x8, #20             // =20
.Ltmp158:
	//APP
	// atomic_sub
	prfm	pstl1strm, [x8]
1:	ldxr	w9, [x8]
	sub	w9, w9, #1
	stxr	w10, w9, [x8]
	cbnz	w10, 1b
	//NO_APP
	b	.LBB3_5
.Ltmp159:
.Lfunc_end3:
	.size	ufs_mq_tag_put, .Lfunc_end3-ufs_mq_tag_put
	.cfi_endproc
                                        // -- End function
	.section	.text.ufs_tagset_init_tags,"ax",@progbits
	.hidden	ufs_tagset_init_tags    // -- Begin function ufs_tagset_init_tags
	.globl	ufs_tagset_init_tags
	.p2align	2
	.type	ufs_tagset_init_tags,@function
ufs_tagset_init_tags:                   // @ufs_tagset_init_tags
.Lfunc_begin4:
	.loc	2 533 0                 // /mnt/disk/jenkins/workspace/chipset_10.1.0_release_5G/opensource/component_code/vendor/huawei/extra/build/build_script/kirin_kernel_release/kernel/block/hisi-blk-iosched-ufs-mq.c:533:0
	.cfi_startproc
// %bb.0:
	str	x25, [sp, #-80]!        // 8-byte Folded Spill
	stp	x24, x23, [sp, #16]     // 16-byte Folded Spill
	stp	x22, x21, [sp, #32]     // 16-byte Folded Spill
	stp	x20, x19, [sp, #48]     // 16-byte Folded Spill
	stp	x29, x30, [sp, #64]     // 16-byte Folded Spill
	add	x29, sp, #64            // =64
	.cfi_def_cfa w29, 16
	.cfi_offset w30, -8
	.cfi_offset w29, -16
	.cfi_offset w19, -24
	.cfi_offset w20, -32
	.cfi_offset w21, -40
	.cfi_offset w22, -48
	.cfi_offset w23, -56
	.cfi_offset w24, -64
	.cfi_offset w25, -80
	//DEBUG_VALUE: ufs_tagset_init_tags:total_tags <- $w0
	//DEBUG_VALUE: ufs_tagset_init_tags:reserved_tags <- $w1
	//DEBUG_VALUE: ufs_tagset_init_tags:high_prio_tags <- $w2
	//DEBUG_VALUE: ufs_tagset_init_tags:node <- $w3
	//DEBUG_VALUE: ufs_tagset_init_tags:alloc_policy <- $w4
.Ltmp160:
	//DEBUG_VALUE: ufs_tagset_init_bitmap_tags:alloc_policy <- $w4
	//DEBUG_VALUE: ufs_tagset_init_bitmap_tags:node <- $w3
	mov	w8, #192
	movk	w8, #320, lsl #16
.Ltmp161:
	//DEBUG_VALUE: __kmalloc_node:node <- 0
	//DEBUG_VALUE: __kmalloc_node:flags <- 21004480
	//DEBUG_VALUE: __kmalloc_node:size <- 256
	//DEBUG_VALUE: kmalloc_node:node <- 0
	//DEBUG_VALUE: kmalloc_node:flags <- 21004480
	//DEBUG_VALUE: kmalloc_node:size <- 256
	//DEBUG_VALUE: kzalloc_node:node <- 0
	//DEBUG_VALUE: kzalloc_node:flags <- 20971712
	//DEBUG_VALUE: kzalloc_node:size <- 256
	//DEBUG_VALUE: ufs_tagset_init_tags:alloc_policy <- $w21
	//DEBUG_VALUE: ufs_tagset_init_tags:node <- $w20
	//DEBUG_VALUE: ufs_tagset_init_tags:high_prio_tags <- $w23
	//DEBUG_VALUE: ufs_tagset_init_tags:reserved_tags <- $w24
	//DEBUG_VALUE: ufs_tagset_init_tags:total_tags <- $w22
	mov	w24, w1
.Ltmp162:
	mov	w22, w0
.Ltmp163:
	.file	153 "/mnt/disk/jenkins/workspace/chipset_10.1.0_release_5G/opensource/component_code/vendor/huawei/extra/build/build_script/kirin_kernel_release/kernel/include/linux/slab.h"
	.loc	153 372 9 prologue_end  // /mnt/disk/jenkins/workspace/chipset_10.1.0_release_5G/opensource/component_code/vendor/huawei/extra/build/build_script/kirin_kernel_release/kernel/include/linux/slab.h:372:9
	add	w1, w8, #8, lsl #12     // =32768
	orr	w0, wzr, #0x100
	mov	w21, w4
.Ltmp164:
	//DEBUG_VALUE: ufs_tagset_init_bitmap_tags:alloc_policy <- $w21
	.loc	153 0 9 is_stmt 0       // /mnt/disk/jenkins/workspace/chipset_10.1.0_release_5G/opensource/component_code/vendor/huawei/extra/build/build_script/kirin_kernel_release/kernel/include/linux/slab.h:0:9
	mov	w20, w3
.Ltmp165:
	//DEBUG_VALUE: ufs_tagset_init_bitmap_tags:node <- $w20
	mov	w23, w2
.Ltmp166:
	.loc	153 372 9               // /mnt/disk/jenkins/workspace/chipset_10.1.0_release_5G/opensource/component_code/vendor/huawei/extra/build/build_script/kirin_kernel_release/kernel/include/linux/slab.h:372:9
	bl	__kmalloc
	mov	x19, x0
.Ltmp167:
	//DEBUG_VALUE: ufs_tagset_init_tags:tags <- $x19
	//DEBUG_VALUE: ufs_tagset_init_bitmap_tags:tags <- $x19
	.loc	2 538 6 is_stmt 1       // /mnt/disk/jenkins/workspace/chipset_10.1.0_release_5G/opensource/component_code/vendor/huawei/extra/build/build_script/kirin_kernel_release/kernel/block/hisi-blk-iosched-ufs-mq.c:538:6
	cbz	x0, .LBB4_7
.Ltmp168:
// %bb.1:
	//DEBUG_VALUE: ufs_tagset_init_bitmap_tags:tags <- $x19
	//DEBUG_VALUE: ufs_tagset_init_tags:tags <- $x19
	//DEBUG_VALUE: ufs_tagset_init_bitmap_tags:node <- $w20
	//DEBUG_VALUE: ufs_tagset_init_bitmap_tags:alloc_policy <- $w21
	.loc	2 494 37                // /mnt/disk/jenkins/workspace/chipset_10.1.0_release_5G/opensource/component_code/vendor/huawei/extra/build/build_script/kirin_kernel_release/kernel/block/hisi-blk-iosched-ufs-mq.c:494:37
	sub	w8, w22, w24
.Ltmp169:
	.loc	2 541 16                // /mnt/disk/jenkins/workspace/chipset_10.1.0_release_5G/opensource/component_code/vendor/huawei/extra/build/build_script/kirin_kernel_release/kernel/block/hisi-blk-iosched-ufs-mq.c:541:16
	stp	w22, w24, [x19]
.Ltmp170:
	.loc	2 494 62                // /mnt/disk/jenkins/workspace/chipset_10.1.0_release_5G/opensource/component_code/vendor/huawei/extra/build/build_script/kirin_kernel_release/kernel/block/hisi-blk-iosched-ufs-mq.c:494:62
	sub	w22, w8, w23
.Ltmp171:
	//DEBUG_VALUE: ufs_tagset_init_bitmap_tags:depth <- $w22
	.loc	2 498 2                 // /mnt/disk/jenkins/workspace/chipset_10.1.0_release_5G/opensource/component_code/vendor/huawei/extra/build/build_script/kirin_kernel_release/kernel/block/hisi-blk-iosched-ufs-mq.c:498:2
	adrp	x0, .L.str.10
	.loc	2 496 34                // /mnt/disk/jenkins/workspace/chipset_10.1.0_release_5G/opensource/component_code/vendor/huawei/extra/build/build_script/kirin_kernel_release/kernel/block/hisi-blk-iosched-ufs-mq.c:496:34
	cmp	w21, #1                 // =1
	.loc	2 498 2                 // /mnt/disk/jenkins/workspace/chipset_10.1.0_release_5G/opensource/component_code/vendor/huawei/extra/build/build_script/kirin_kernel_release/kernel/block/hisi-blk-iosched-ufs-mq.c:498:2
	add	x0, x0, :lo12:.L.str.10
	mov	w1, w22
	mov	w2, w24
	mov	w3, w23
.Ltmp172:
	.loc	2 543 26                // /mnt/disk/jenkins/workspace/chipset_10.1.0_release_5G/opensource/component_code/vendor/huawei/extra/build/build_script/kirin_kernel_release/kernel/block/hisi-blk-iosched-ufs-mq.c:543:26
	str	w23, [x19, #8]
.Ltmp173:
	.loc	2 496 34                // /mnt/disk/jenkins/workspace/chipset_10.1.0_release_5G/opensource/component_code/vendor/huawei/extra/build/build_script/kirin_kernel_release/kernel/block/hisi-blk-iosched-ufs-mq.c:496:34
	cset	w25, eq
	.loc	2 498 2                 // /mnt/disk/jenkins/workspace/chipset_10.1.0_release_5G/opensource/component_code/vendor/huawei/extra/build/build_script/kirin_kernel_release/kernel/block/hisi-blk-iosched-ufs-mq.c:498:2
	bl	printk
.Ltmp174:
	.loc	2 501 6                 // /mnt/disk/jenkins/workspace/chipset_10.1.0_release_5G/opensource/component_code/vendor/huawei/extra/build/build_script/kirin_kernel_release/kernel/block/hisi-blk-iosched-ufs-mq.c:501:6
	mov	w4, #192
	.loc	2 501 37 is_stmt 0      // /mnt/disk/jenkins/workspace/chipset_10.1.0_release_5G/opensource/component_code/vendor/huawei/extra/build/build_script/kirin_kernel_release/kernel/block/hisi-blk-iosched-ufs-mq.c:501:37
	add	x0, x19, #56            // =56
.Ltmp175:
	//DEBUG_VALUE: sbitmap_queue_free:sbq <- $x0
	//DEBUG_VALUE: sbitmap_free:sb <- $x0
	.loc	2 501 6                 // /mnt/disk/jenkins/workspace/chipset_10.1.0_release_5G/opensource/component_code/vendor/huawei/extra/build/build_script/kirin_kernel_release/kernel/block/hisi-blk-iosched-ufs-mq.c:501:6
	mov	w2, #-1
	movk	w4, #320, lsl #16
	mov	w1, w22
	mov	w3, w25
	mov	w5, w20
	bl	sbitmap_queue_init_node
.Ltmp176:
	.loc	2 501 6                 // /mnt/disk/jenkins/workspace/chipset_10.1.0_release_5G/opensource/component_code/vendor/huawei/extra/build/build_script/kirin_kernel_release/kernel/block/hisi-blk-iosched-ufs-mq.c:501:6
	cbnz	w0, .LBB4_6
.Ltmp177:
// %bb.2:
	//DEBUG_VALUE: ufs_tagset_init_bitmap_tags:depth <- $w22
	//DEBUG_VALUE: ufs_tagset_init_bitmap_tags:tags <- $x19
	//DEBUG_VALUE: ufs_tagset_init_tags:tags <- $x19
	//DEBUG_VALUE: ufs_tagset_init_bitmap_tags:node <- $w20
	//DEBUG_VALUE: ufs_tagset_init_bitmap_tags:alloc_policy <- $w21
	.loc	2 506 13 is_stmt 1      // /mnt/disk/jenkins/workspace/chipset_10.1.0_release_5G/opensource/component_code/vendor/huawei/extra/build/build_script/kirin_kernel_release/kernel/block/hisi-blk-iosched-ufs-mq.c:506:13
	ldr	w1, [x19, #4]
.Ltmp178:
	.loc	2 496 34                // /mnt/disk/jenkins/workspace/chipset_10.1.0_release_5G/opensource/component_code/vendor/huawei/extra/build/build_script/kirin_kernel_release/kernel/block/hisi-blk-iosched-ufs-mq.c:496:34
	cmp	w21, #1                 // =1
.Ltmp179:
	.loc	2 505 6                 // /mnt/disk/jenkins/workspace/chipset_10.1.0_release_5G/opensource/component_code/vendor/huawei/extra/build/build_script/kirin_kernel_release/kernel/block/hisi-blk-iosched-ufs-mq.c:505:6
	mov	w4, #192
.Ltmp180:
	.loc	2 496 34                // /mnt/disk/jenkins/workspace/chipset_10.1.0_release_5G/opensource/component_code/vendor/huawei/extra/build/build_script/kirin_kernel_release/kernel/block/hisi-blk-iosched-ufs-mq.c:496:34
	cset	w3, eq
.Ltmp181:
	.loc	2 505 37                // /mnt/disk/jenkins/workspace/chipset_10.1.0_release_5G/opensource/component_code/vendor/huawei/extra/build/build_script/kirin_kernel_release/kernel/block/hisi-blk-iosched-ufs-mq.c:505:37
	add	x0, x19, #112           // =112
.Ltmp182:
	//DEBUG_VALUE: sbitmap_queue_free:sbq <- $x0
	//DEBUG_VALUE: sbitmap_free:sb <- $x0
	.loc	2 505 6 is_stmt 0       // /mnt/disk/jenkins/workspace/chipset_10.1.0_release_5G/opensource/component_code/vendor/huawei/extra/build/build_script/kirin_kernel_release/kernel/block/hisi-blk-iosched-ufs-mq.c:505:6
	mov	w2, #-1
	movk	w4, #320, lsl #16
	mov	w5, w20
	bl	sbitmap_queue_init_node
.Ltmp183:
	.loc	2 505 6                 // /mnt/disk/jenkins/workspace/chipset_10.1.0_release_5G/opensource/component_code/vendor/huawei/extra/build/build_script/kirin_kernel_release/kernel/block/hisi-blk-iosched-ufs-mq.c:505:6
	cbnz	w0, .LBB4_5
.Ltmp184:
// %bb.3:
	//DEBUG_VALUE: ufs_tagset_init_bitmap_tags:depth <- $w22
	//DEBUG_VALUE: ufs_tagset_init_bitmap_tags:tags <- $x19
	//DEBUG_VALUE: ufs_tagset_init_tags:tags <- $x19
	//DEBUG_VALUE: ufs_tagset_init_bitmap_tags:node <- $w20
	//DEBUG_VALUE: ufs_tagset_init_bitmap_tags:alloc_policy <- $w21
	.loc	2 510 13 is_stmt 1      // /mnt/disk/jenkins/workspace/chipset_10.1.0_release_5G/opensource/component_code/vendor/huawei/extra/build/build_script/kirin_kernel_release/kernel/block/hisi-blk-iosched-ufs-mq.c:510:13
	ldr	w1, [x19, #8]
.Ltmp185:
	.loc	2 496 34                // /mnt/disk/jenkins/workspace/chipset_10.1.0_release_5G/opensource/component_code/vendor/huawei/extra/build/build_script/kirin_kernel_release/kernel/block/hisi-blk-iosched-ufs-mq.c:496:34
	cmp	w21, #1                 // =1
.Ltmp186:
	.loc	2 509 6                 // /mnt/disk/jenkins/workspace/chipset_10.1.0_release_5G/opensource/component_code/vendor/huawei/extra/build/build_script/kirin_kernel_release/kernel/block/hisi-blk-iosched-ufs-mq.c:509:6
	mov	w4, #192
.Ltmp187:
	.loc	2 496 34                // /mnt/disk/jenkins/workspace/chipset_10.1.0_release_5G/opensource/component_code/vendor/huawei/extra/build/build_script/kirin_kernel_release/kernel/block/hisi-blk-iosched-ufs-mq.c:496:34
	cset	w3, eq
.Ltmp188:
	.loc	2 509 37                // /mnt/disk/jenkins/workspace/chipset_10.1.0_release_5G/opensource/component_code/vendor/huawei/extra/build/build_script/kirin_kernel_release/kernel/block/hisi-blk-iosched-ufs-mq.c:509:37
	add	x0, x19, #168           // =168
	.loc	2 509 6 is_stmt 0       // /mnt/disk/jenkins/workspace/chipset_10.1.0_release_5G/opensource/component_code/vendor/huawei/extra/build/build_script/kirin_kernel_release/kernel/block/hisi-blk-iosched-ufs-mq.c:509:6
	mov	w2, #-1
	movk	w4, #320, lsl #16
	mov	w5, w20
	bl	sbitmap_queue_init_node
.Ltmp189:
	.loc	2 509 6                 // /mnt/disk/jenkins/workspace/chipset_10.1.0_release_5G/opensource/component_code/vendor/huawei/extra/build/build_script/kirin_kernel_release/kernel/block/hisi-blk-iosched-ufs-mq.c:509:6
	cbz	w0, .LBB4_8
.Ltmp190:
// %bb.4:
	//DEBUG_VALUE: ufs_tagset_init_bitmap_tags:depth <- $w22
	//DEBUG_VALUE: ufs_tagset_init_bitmap_tags:tags <- $x19
	//DEBUG_VALUE: ufs_tagset_init_tags:tags <- $x19
	//DEBUG_VALUE: ufs_tagset_init_bitmap_tags:node <- $w20
	//DEBUG_VALUE: ufs_tagset_init_bitmap_tags:alloc_policy <- $w21
	.loc	141 322 13 is_stmt 1    // /mnt/disk/jenkins/workspace/chipset_10.1.0_release_5G/opensource/component_code/vendor/huawei/extra/build/build_script/kirin_kernel_release/kernel/include/linux/sbitmap.h:322:13
	ldr	x0, [x19, #152]
	.loc	141 322 2 is_stmt 0     // /mnt/disk/jenkins/workspace/chipset_10.1.0_release_5G/opensource/component_code/vendor/huawei/extra/build/build_script/kirin_kernel_release/kernel/include/linux/sbitmap.h:322:2
	bl	kfree
	.loc	141 323 19 is_stmt 1    // /mnt/disk/jenkins/workspace/chipset_10.1.0_release_5G/opensource/component_code/vendor/huawei/extra/build/build_script/kirin_kernel_release/kernel/include/linux/sbitmap.h:323:19
	ldr	x0, [x19, #136]
	.loc	141 323 2 is_stmt 0     // /mnt/disk/jenkins/workspace/chipset_10.1.0_release_5G/opensource/component_code/vendor/huawei/extra/build/build_script/kirin_kernel_release/kernel/include/linux/sbitmap.h:323:2
	bl	free_percpu
.Ltmp191:
	.loc	141 152 12 is_stmt 1    // /mnt/disk/jenkins/workspace/chipset_10.1.0_release_5G/opensource/component_code/vendor/huawei/extra/build/build_script/kirin_kernel_release/kernel/include/linux/sbitmap.h:152:12
	ldr	x0, [x19, #128]
	.loc	141 152 2 is_stmt 0     // /mnt/disk/jenkins/workspace/chipset_10.1.0_release_5G/opensource/component_code/vendor/huawei/extra/build/build_script/kirin_kernel_release/kernel/include/linux/sbitmap.h:152:2
	bl	kfree
	.loc	141 153 10 is_stmt 1    // /mnt/disk/jenkins/workspace/chipset_10.1.0_release_5G/opensource/component_code/vendor/huawei/extra/build/build_script/kirin_kernel_release/kernel/include/linux/sbitmap.h:153:10
	str	xzr, [x19, #128]
.Ltmp192:
.LBB4_5:
	//DEBUG_VALUE: ufs_tagset_init_bitmap_tags:depth <- $w22
	//DEBUG_VALUE: ufs_tagset_init_bitmap_tags:tags <- $x19
	//DEBUG_VALUE: ufs_tagset_init_tags:tags <- $x19
	//DEBUG_VALUE: ufs_tagset_init_bitmap_tags:node <- $w20
	//DEBUG_VALUE: ufs_tagset_init_bitmap_tags:alloc_policy <- $w21
	.loc	141 322 13              // /mnt/disk/jenkins/workspace/chipset_10.1.0_release_5G/opensource/component_code/vendor/huawei/extra/build/build_script/kirin_kernel_release/kernel/include/linux/sbitmap.h:322:13
	ldr	x0, [x19, #96]
	.loc	141 322 2 is_stmt 0     // /mnt/disk/jenkins/workspace/chipset_10.1.0_release_5G/opensource/component_code/vendor/huawei/extra/build/build_script/kirin_kernel_release/kernel/include/linux/sbitmap.h:322:2
	bl	kfree
	.loc	141 323 19 is_stmt 1    // /mnt/disk/jenkins/workspace/chipset_10.1.0_release_5G/opensource/component_code/vendor/huawei/extra/build/build_script/kirin_kernel_release/kernel/include/linux/sbitmap.h:323:19
	ldr	x0, [x19, #80]
	.loc	141 323 2 is_stmt 0     // /mnt/disk/jenkins/workspace/chipset_10.1.0_release_5G/opensource/component_code/vendor/huawei/extra/build/build_script/kirin_kernel_release/kernel/include/linux/sbitmap.h:323:2
	bl	free_percpu
.Ltmp193:
	.loc	141 152 12 is_stmt 1    // /mnt/disk/jenkins/workspace/chipset_10.1.0_release_5G/opensource/component_code/vendor/huawei/extra/build/build_script/kirin_kernel_release/kernel/include/linux/sbitmap.h:152:12
	ldr	x0, [x19, #72]
	.loc	141 152 2 is_stmt 0     // /mnt/disk/jenkins/workspace/chipset_10.1.0_release_5G/opensource/component_code/vendor/huawei/extra/build/build_script/kirin_kernel_release/kernel/include/linux/sbitmap.h:152:2
	bl	kfree
	.loc	141 153 10 is_stmt 1    // /mnt/disk/jenkins/workspace/chipset_10.1.0_release_5G/opensource/component_code/vendor/huawei/extra/build/build_script/kirin_kernel_release/kernel/include/linux/sbitmap.h:153:10
	str	xzr, [x19, #72]
.Ltmp194:
.LBB4_6:
	//DEBUG_VALUE: ufs_tagset_init_bitmap_tags:depth <- $w22
	//DEBUG_VALUE: ufs_tagset_init_bitmap_tags:tags <- $x19
	//DEBUG_VALUE: ufs_tagset_init_tags:tags <- $x19
	//DEBUG_VALUE: ufs_tagset_init_bitmap_tags:node <- $w20
	//DEBUG_VALUE: ufs_tagset_init_bitmap_tags:alloc_policy <- $w21
	.loc	2 526 2                 // /mnt/disk/jenkins/workspace/chipset_10.1.0_release_5G/opensource/component_code/vendor/huawei/extra/build/build_script/kirin_kernel_release/kernel/block/hisi-blk-iosched-ufs-mq.c:526:2
	adrp	x0, .L.str.11
	adrp	x1, .L__func__.ufs_tagset_init_bitmap_tags
	add	x0, x0, :lo12:.L.str.11
	add	x1, x1, :lo12:.L__func__.ufs_tagset_init_bitmap_tags
	bl	printk
.Ltmp195:
	//DEBUG_VALUE: ufs_tagset_init_tags:ret <- -12
	.loc	2 547 3                 // /mnt/disk/jenkins/workspace/chipset_10.1.0_release_5G/opensource/component_code/vendor/huawei/extra/build/build_script/kirin_kernel_release/kernel/block/hisi-blk-iosched-ufs-mq.c:547:3
	adrp	x0, .L.str
	add	x0, x0, :lo12:.L.str
	bl	printk
	.loc	2 548 3                 // /mnt/disk/jenkins/workspace/chipset_10.1.0_release_5G/opensource/component_code/vendor/huawei/extra/build/build_script/kirin_kernel_release/kernel/block/hisi-blk-iosched-ufs-mq.c:548:3
	mov	x0, x19
	bl	kfree
.Ltmp196:
	.loc	2 0 0 is_stmt 0         // /mnt/disk/jenkins/workspace/chipset_10.1.0_release_5G/opensource/component_code/vendor/huawei/extra/build/build_script/kirin_kernel_release/kernel/block/hisi-blk-iosched-ufs-mq.c:0:0
	mov	x19, xzr
.Ltmp197:
.LBB4_7:
	.loc	2 553 1 is_stmt 1       // /mnt/disk/jenkins/workspace/chipset_10.1.0_release_5G/opensource/component_code/vendor/huawei/extra/build/build_script/kirin_kernel_release/kernel/block/hisi-blk-iosched-ufs-mq.c:553:1
	mov	x0, x19
	ldp	x29, x30, [sp, #64]     // 16-byte Folded Reload
	ldp	x20, x19, [sp, #48]     // 16-byte Folded Reload
	ldp	x22, x21, [sp, #32]     // 16-byte Folded Reload
	ldp	x24, x23, [sp, #16]     // 16-byte Folded Reload
	ldr	x25, [sp], #80          // 8-byte Folded Reload
	ret
.LBB4_8:
.Ltmp198:
	//DEBUG_VALUE: ufs_tagset_init_bitmap_tags:depth <- $w22
	//DEBUG_VALUE: ufs_tagset_init_bitmap_tags:tags <- $x19
	//DEBUG_VALUE: ufs_tagset_init_tags:tags <- $x19
	//DEBUG_VALUE: ufs_tagset_init_bitmap_tags:node <- $w20
	//DEBUG_VALUE: ufs_tagset_init_bitmap_tags:alloc_policy <- $w21
	.loc	2 515 41                // /mnt/disk/jenkins/workspace/chipset_10.1.0_release_5G/opensource/component_code/vendor/huawei/extra/build/build_script/kirin_kernel_release/kernel/block/hisi-blk-iosched-ufs-mq.c:515:41
	ldr	w8, [x19, #4]
	.loc	2 513 23                // /mnt/disk/jenkins/workspace/chipset_10.1.0_release_5G/opensource/component_code/vendor/huawei/extra/build/build_script/kirin_kernel_release/kernel/block/hisi-blk-iosched-ufs-mq.c:513:23
	stp	wzr, w22, [x19, #12]
	.loc	2 515 58                // /mnt/disk/jenkins/workspace/chipset_10.1.0_release_5G/opensource/component_code/vendor/huawei/extra/build/build_script/kirin_kernel_release/kernel/block/hisi-blk-iosched-ufs-mq.c:515:58
	add	w8, w8, w22
	.loc	2 515 33 is_stmt 0      // /mnt/disk/jenkins/workspace/chipset_10.1.0_release_5G/opensource/component_code/vendor/huawei/extra/build/build_script/kirin_kernel_release/kernel/block/hisi-blk-iosched-ufs-mq.c:515:33
	str	w8, [x19, #20]
.Ltmp199:
	//DEBUG_VALUE: __write_once_size:p <- [DW_OP_plus_uconst 24, DW_OP_stack_value] $x19
	//DEBUG_VALUE: __write_once_size:size <- 4
	//DEBUG_VALUE: __write_once_size:res <- undef
	.file	154 "/mnt/disk/jenkins/workspace/chipset_10.1.0_release_5G/opensource/component_code/vendor/huawei/extra/build/build_script/kirin_kernel_release/kernel/include/linux/compiler.h"
	.loc	154 212 31 is_stmt 1    // /mnt/disk/jenkins/workspace/chipset_10.1.0_release_5G/opensource/component_code/vendor/huawei/extra/build/build_script/kirin_kernel_release/kernel/include/linux/compiler.h:212:31
	str	wzr, [x19, #24]
.Ltmp200:
	//DEBUG_VALUE: __write_once_size:p <- [DW_OP_plus_uconst 28, DW_OP_stack_value] $x19
	//DEBUG_VALUE: __write_once_size:size <- 4
	//DEBUG_VALUE: __write_once_size:res <- undef
	.loc	154 212 31 is_stmt 0    // /mnt/disk/jenkins/workspace/chipset_10.1.0_release_5G/opensource/component_code/vendor/huawei/extra/build/build_script/kirin_kernel_release/kernel/include/linux/compiler.h:212:31
	str	wzr, [x19, #28]
.Ltmp201:
	//DEBUG_VALUE: ufs_tagset_init_tags:ret <- -12
	//DEBUG_VALUE: __write_once_size:p <- [DW_OP_plus_uconst 32, DW_OP_stack_value] $x19
	//DEBUG_VALUE: __write_once_size:size <- 4
	//DEBUG_VALUE: __write_once_size:res <- undef
	.loc	154 212 31              // /mnt/disk/jenkins/workspace/chipset_10.1.0_release_5G/opensource/component_code/vendor/huawei/extra/build/build_script/kirin_kernel_release/kernel/include/linux/compiler.h:212:31
	str	wzr, [x19, #32]
	b	.LBB4_7
.Ltmp202:
.Lfunc_end4:
	.size	ufs_tagset_init_tags, .Lfunc_end4-ufs_tagset_init_tags
	.cfi_endproc
                                        // -- End function
	.section	.text.ufs_tagset_free_tags,"ax",@progbits
	.hidden	ufs_tagset_free_tags    // -- Begin function ufs_tagset_free_tags
	.globl	ufs_tagset_free_tags
	.p2align	2
	.type	ufs_tagset_free_tags,@function
ufs_tagset_free_tags:                   // @ufs_tagset_free_tags
.Lfunc_begin5:
	.loc	2 556 0 is_stmt 1       // /mnt/disk/jenkins/workspace/chipset_10.1.0_release_5G/opensource/component_code/vendor/huawei/extra/build/build_script/kirin_kernel_release/kernel/block/hisi-blk-iosched-ufs-mq.c:556:0
	.cfi_startproc
// %bb.0:
	str	x19, [sp, #-32]!        // 8-byte Folded Spill
	stp	x29, x30, [sp, #16]     // 16-byte Folded Spill
	add	x29, sp, #16            // =16
	.cfi_def_cfa w29, 16
	.cfi_offset w30, -8
	.cfi_offset w29, -16
	.cfi_offset w19, -32
	//DEBUG_VALUE: ufs_tagset_free_tags:tags <- $x0
.Ltmp203:
	//DEBUG_VALUE: sbitmap_queue_free:sbq <- [DW_OP_plus_uconst 56, DW_OP_stack_value] $x0
	//DEBUG_VALUE: sbitmap_free:sb <- [DW_OP_plus_uconst 56, DW_OP_stack_value] $x0
	//DEBUG_VALUE: sbitmap_queue_free:sbq <- [DW_OP_plus_uconst 112, DW_OP_stack_value] $x0
	//DEBUG_VALUE: sbitmap_free:sb <- [DW_OP_plus_uconst 112, DW_OP_stack_value] $x0
	//DEBUG_VALUE: sbitmap_queue_free:sbq <- [DW_OP_plus_uconst 168, DW_OP_stack_value] $x0
	//DEBUG_VALUE: sbitmap_free:sb <- [DW_OP_plus_uconst 168, DW_OP_stack_value] $x0
	mov	x19, x0
.Ltmp204:
	//DEBUG_VALUE: sbitmap_queue_free:sbq <- [DW_OP_plus_uconst 56, DW_OP_stack_value] $x19
	//DEBUG_VALUE: ufs_tagset_free_tags:tags <- $x19
	.loc	141 322 13 prologue_end // /mnt/disk/jenkins/workspace/chipset_10.1.0_release_5G/opensource/component_code/vendor/huawei/extra/build/build_script/kirin_kernel_release/kernel/include/linux/sbitmap.h:322:13
	ldr	x0, [x0, #96]
.Ltmp205:
	.loc	141 322 2 is_stmt 0     // /mnt/disk/jenkins/workspace/chipset_10.1.0_release_5G/opensource/component_code/vendor/huawei/extra/build/build_script/kirin_kernel_release/kernel/include/linux/sbitmap.h:322:2
	bl	kfree
	.loc	141 323 19 is_stmt 1    // /mnt/disk/jenkins/workspace/chipset_10.1.0_release_5G/opensource/component_code/vendor/huawei/extra/build/build_script/kirin_kernel_release/kernel/include/linux/sbitmap.h:323:19
	ldr	x0, [x19, #80]
	.loc	141 323 2 is_stmt 0     // /mnt/disk/jenkins/workspace/chipset_10.1.0_release_5G/opensource/component_code/vendor/huawei/extra/build/build_script/kirin_kernel_release/kernel/include/linux/sbitmap.h:323:2
	bl	free_percpu
.Ltmp206:
	//DEBUG_VALUE: sbitmap_free:sb <- [DW_OP_plus_uconst 56, DW_OP_stack_value] $x19
	.loc	141 152 12 is_stmt 1    // /mnt/disk/jenkins/workspace/chipset_10.1.0_release_5G/opensource/component_code/vendor/huawei/extra/build/build_script/kirin_kernel_release/kernel/include/linux/sbitmap.h:152:12
	ldr	x0, [x19, #72]
	.loc	141 152 2 is_stmt 0     // /mnt/disk/jenkins/workspace/chipset_10.1.0_release_5G/opensource/component_code/vendor/huawei/extra/build/build_script/kirin_kernel_release/kernel/include/linux/sbitmap.h:152:2
	bl	kfree
.Ltmp207:
	//DEBUG_VALUE: sbitmap_queue_free:sbq <- [DW_OP_plus_uconst 112, DW_OP_stack_value] $x19
	.loc	141 322 13 is_stmt 1    // /mnt/disk/jenkins/workspace/chipset_10.1.0_release_5G/opensource/component_code/vendor/huawei/extra/build/build_script/kirin_kernel_release/kernel/include/linux/sbitmap.h:322:13
	ldr	x0, [x19, #152]
.Ltmp208:
	.loc	141 153 10              // /mnt/disk/jenkins/workspace/chipset_10.1.0_release_5G/opensource/component_code/vendor/huawei/extra/build/build_script/kirin_kernel_release/kernel/include/linux/sbitmap.h:153:10
	str	xzr, [x19, #72]
.Ltmp209:
	//DEBUG_VALUE: sbitmap_free:sb <- [DW_OP_plus_uconst 56, DW_OP_stack_value] $x19
	//DEBUG_VALUE: sbitmap_queue_free:sbq <- [DW_OP_plus_uconst 56, DW_OP_stack_value] $x19
	//DEBUG_VALUE: sbitmap_queue_free:sbq <- [DW_OP_plus_uconst 112, DW_OP_stack_value] $x19
	.loc	141 322 2               // /mnt/disk/jenkins/workspace/chipset_10.1.0_release_5G/opensource/component_code/vendor/huawei/extra/build/build_script/kirin_kernel_release/kernel/include/linux/sbitmap.h:322:2
	bl	kfree
	.loc	141 323 19              // /mnt/disk/jenkins/workspace/chipset_10.1.0_release_5G/opensource/component_code/vendor/huawei/extra/build/build_script/kirin_kernel_release/kernel/include/linux/sbitmap.h:323:19
	ldr	x0, [x19, #136]
	.loc	141 323 2 is_stmt 0     // /mnt/disk/jenkins/workspace/chipset_10.1.0_release_5G/opensource/component_code/vendor/huawei/extra/build/build_script/kirin_kernel_release/kernel/include/linux/sbitmap.h:323:2
	bl	free_percpu
.Ltmp210:
	//DEBUG_VALUE: sbitmap_free:sb <- [DW_OP_plus_uconst 112, DW_OP_stack_value] $x19
	.loc	141 152 12 is_stmt 1    // /mnt/disk/jenkins/workspace/chipset_10.1.0_release_5G/opensource/component_code/vendor/huawei/extra/build/build_script/kirin_kernel_release/kernel/include/linux/sbitmap.h:152:12
	ldr	x0, [x19, #128]
	.loc	141 152 2 is_stmt 0     // /mnt/disk/jenkins/workspace/chipset_10.1.0_release_5G/opensource/component_code/vendor/huawei/extra/build/build_script/kirin_kernel_release/kernel/include/linux/sbitmap.h:152:2
	bl	kfree
.Ltmp211:
	//DEBUG_VALUE: sbitmap_queue_free:sbq <- [DW_OP_plus_uconst 168, DW_OP_stack_value] $x19
	.loc	141 322 13 is_stmt 1    // /mnt/disk/jenkins/workspace/chipset_10.1.0_release_5G/opensource/component_code/vendor/huawei/extra/build/build_script/kirin_kernel_release/kernel/include/linux/sbitmap.h:322:13
	ldr	x0, [x19, #208]
.Ltmp212:
	.loc	141 153 10              // /mnt/disk/jenkins/workspace/chipset_10.1.0_release_5G/opensource/component_code/vendor/huawei/extra/build/build_script/kirin_kernel_release/kernel/include/linux/sbitmap.h:153:10
	str	xzr, [x19, #128]
.Ltmp213:
	//DEBUG_VALUE: sbitmap_free:sb <- [DW_OP_plus_uconst 112, DW_OP_stack_value] $x19
	//DEBUG_VALUE: sbitmap_queue_free:sbq <- [DW_OP_plus_uconst 112, DW_OP_stack_value] $x19
	//DEBUG_VALUE: sbitmap_queue_free:sbq <- [DW_OP_plus_uconst 168, DW_OP_stack_value] $x19
	.loc	141 322 2               // /mnt/disk/jenkins/workspace/chipset_10.1.0_release_5G/opensource/component_code/vendor/huawei/extra/build/build_script/kirin_kernel_release/kernel/include/linux/sbitmap.h:322:2
	bl	kfree
	.loc	141 323 19              // /mnt/disk/jenkins/workspace/chipset_10.1.0_release_5G/opensource/component_code/vendor/huawei/extra/build/build_script/kirin_kernel_release/kernel/include/linux/sbitmap.h:323:19
	ldr	x0, [x19, #192]
	.loc	141 323 2 is_stmt 0     // /mnt/disk/jenkins/workspace/chipset_10.1.0_release_5G/opensource/component_code/vendor/huawei/extra/build/build_script/kirin_kernel_release/kernel/include/linux/sbitmap.h:323:2
	bl	free_percpu
.Ltmp214:
	//DEBUG_VALUE: sbitmap_free:sb <- [DW_OP_plus_uconst 168, DW_OP_stack_value] $x19
	.loc	141 152 12 is_stmt 1    // /mnt/disk/jenkins/workspace/chipset_10.1.0_release_5G/opensource/component_code/vendor/huawei/extra/build/build_script/kirin_kernel_release/kernel/include/linux/sbitmap.h:152:12
	ldr	x0, [x19, #184]
	.loc	141 152 2 is_stmt 0     // /mnt/disk/jenkins/workspace/chipset_10.1.0_release_5G/opensource/component_code/vendor/huawei/extra/build/build_script/kirin_kernel_release/kernel/include/linux/sbitmap.h:152:2
	bl	kfree
.Ltmp215:
	.loc	2 560 2 is_stmt 1       // /mnt/disk/jenkins/workspace/chipset_10.1.0_release_5G/opensource/component_code/vendor/huawei/extra/build/build_script/kirin_kernel_release/kernel/block/hisi-blk-iosched-ufs-mq.c:560:2
	mov	x0, x19
.Ltmp216:
	.loc	141 153 10              // /mnt/disk/jenkins/workspace/chipset_10.1.0_release_5G/opensource/component_code/vendor/huawei/extra/build/build_script/kirin_kernel_release/kernel/include/linux/sbitmap.h:153:10
	str	xzr, [x19, #184]
.Ltmp217:
	.loc	2 560 2                 // /mnt/disk/jenkins/workspace/chipset_10.1.0_release_5G/opensource/component_code/vendor/huawei/extra/build/build_script/kirin_kernel_release/kernel/block/hisi-blk-iosched-ufs-mq.c:560:2
	bl	kfree
	.loc	2 561 1                 // /mnt/disk/jenkins/workspace/chipset_10.1.0_release_5G/opensource/component_code/vendor/huawei/extra/build/build_script/kirin_kernel_release/kernel/block/hisi-blk-iosched-ufs-mq.c:561:1
	ldp	x29, x30, [sp, #16]     // 16-byte Folded Reload
	ldr	x19, [sp], #32          // 8-byte Folded Reload
.Ltmp218:
	ret
.Ltmp219:
.Lfunc_end5:
	.size	ufs_tagset_free_tags, .Lfunc_end5-ufs_tagset_free_tags
	.cfi_endproc
                                        // -- End function
	.section	.text.ufs_mq_tag_update_depth,"ax",@progbits
	.hidden	ufs_mq_tag_update_depth // -- Begin function ufs_mq_tag_update_depth
	.globl	ufs_mq_tag_update_depth
	.p2align	2
	.type	ufs_mq_tag_update_depth,@function
ufs_mq_tag_update_depth:                // @ufs_mq_tag_update_depth
.Lfunc_begin6:
	.loc	2 565 0                 // /mnt/disk/jenkins/workspace/chipset_10.1.0_release_5G/opensource/component_code/vendor/huawei/extra/build/build_script/kirin_kernel_release/kernel/block/hisi-blk-iosched-ufs-mq.c:565:0
	.cfi_startproc
// %bb.0:
	//DEBUG_VALUE: ufs_mq_tag_update_depth:q <- $x0
	//DEBUG_VALUE: ufs_mq_tag_update_depth:tags <- $x1
	//DEBUG_VALUE: ufs_mq_tag_update_depth:tdepth <- $w2
	.loc	2 566 2 prologue_end    // /mnt/disk/jenkins/workspace/chipset_10.1.0_release_5G/opensource/component_code/vendor/huawei/extra/build/build_script/kirin_kernel_release/kernel/block/hisi-blk-iosched-ufs-mq.c:566:2
	mov	w0, #-22
	ret
.Ltmp220:
.Lfunc_end6:
	.size	ufs_mq_tag_update_depth, .Lfunc_end6-ufs_mq_tag_update_depth
	.cfi_endproc
                                        // -- End function
	.section	.text.ufs_mq_tag_busy_iter,"ax",@progbits
	.hidden	ufs_mq_tag_busy_iter    // -- Begin function ufs_mq_tag_busy_iter
	.globl	ufs_mq_tag_busy_iter
	.p2align	2
	.type	ufs_mq_tag_busy_iter,@function
ufs_mq_tag_busy_iter:                   // @ufs_mq_tag_busy_iter
.Lfunc_begin7:
	.loc	2 571 0                 // /mnt/disk/jenkins/workspace/chipset_10.1.0_release_5G/opensource/component_code/vendor/huawei/extra/build/build_script/kirin_kernel_release/kernel/block/hisi-blk-iosched-ufs-mq.c:571:0
	.cfi_startproc
// %bb.0:
	stp	x24, x23, [sp, #-64]!   // 16-byte Folded Spill
	stp	x22, x21, [sp, #16]     // 16-byte Folded Spill
	stp	x20, x19, [sp, #32]     // 16-byte Folded Spill
	stp	x29, x30, [sp, #48]     // 16-byte Folded Spill
	add	x29, sp, #48            // =48
	.cfi_def_cfa w29, 16
	.cfi_offset w30, -8
	.cfi_offset w29, -16
	.cfi_offset w19, -24
	.cfi_offset w20, -32
	.cfi_offset w21, -40
	.cfi_offset w22, -48
	.cfi_offset w23, -56
	.cfi_offset w24, -64
	//DEBUG_VALUE: ufs_mq_tag_busy_iter:q <- $x0
	//DEBUG_VALUE: ufs_mq_tag_busy_iter:fn <- $x1
	//DEBUG_VALUE: ufs_mq_tag_busy_iter:priv <- $x2
.Ltmp221:
	//DEBUG_VALUE: ufs_mq_tag_busy_iter:i <- 0
	.loc	2 575 2 prologue_end    // /mnt/disk/jenkins/workspace/chipset_10.1.0_release_5G/opensource/component_code/vendor/huawei/extra/build/build_script/kirin_kernel_release/kernel/block/hisi-blk-iosched-ufs-mq.c:575:2
	ldr	w8, [x0, #352]
	cbz	w8, .LBB7_9
.Ltmp222:
// %bb.1:
	//DEBUG_VALUE: ufs_mq_tag_busy_iter:priv <- $x2
	//DEBUG_VALUE: ufs_mq_tag_busy_iter:fn <- $x1
	//DEBUG_VALUE: ufs_mq_tag_busy_iter:q <- $x0
	.loc	2 0 2 is_stmt 0         // /mnt/disk/jenkins/workspace/chipset_10.1.0_release_5G/opensource/component_code/vendor/huawei/extra/build/build_script/kirin_kernel_release/kernel/block/hisi-blk-iosched-ufs-mq.c:0:2
	mov	x19, x2
.Ltmp223:
	//DEBUG_VALUE: ufs_mq_tag_busy_iter:priv <- $x19
	mov	x20, x0
.Ltmp224:
	//DEBUG_VALUE: ufs_mq_tag_busy_iter:q <- $x20
	mov	x21, x1
.Ltmp225:
	//DEBUG_VALUE: ufs_mq_tag_busy_iter:fn <- $x21
	mov	x23, xzr
.Ltmp226:
.LBB7_2:                                // =>This Inner Loop Header: Depth=1
	//DEBUG_VALUE: ufs_mq_tag_busy_iter:fn <- $x21
	//DEBUG_VALUE: ufs_mq_tag_busy_iter:q <- $x20
	//DEBUG_VALUE: ufs_mq_tag_busy_iter:priv <- $x19
	//DEBUG_VALUE: ufs_mq_tag_busy_iter:i <- $x23
	.loc	2 575 2                 // /mnt/disk/jenkins/workspace/chipset_10.1.0_release_5G/opensource/component_code/vendor/huawei/extra/build/build_script/kirin_kernel_release/kernel/block/hisi-blk-iosched-ufs-mq.c:575:2
	ldr	x9, [x20, #344]
	ldr	x22, [x9, x23, lsl #3]
.Ltmp227:
	//DEBUG_VALUE: ufs_mq_tag_busy_iter:hctx <- $x22
	.loc	2 576 36 is_stmt 1      // /mnt/disk/jenkins/workspace/chipset_10.1.0_release_5G/opensource/component_code/vendor/huawei/extra/build/build_script/kirin_kernel_release/kernel/block/hisi-blk-iosched-ufs-mq.c:576:36
	ldr	x24, [x22, #304]
.Ltmp228:
	//DEBUG_VALUE: tags <- $x24
	//DEBUG_VALUE: blk_mq_hw_queue_mapped:hctx <- $x22
	.loc	10 146 15               // /mnt/disk/jenkins/workspace/chipset_10.1.0_release_5G/opensource/component_code/vendor/huawei/extra/build/build_script/kirin_kernel_release/kernel/block/blk-mq.h:146:15
	ldr	w9, [x22, #248]
	.loc	10 146 22 is_stmt 0     // /mnt/disk/jenkins/workspace/chipset_10.1.0_release_5G/opensource/component_code/vendor/huawei/extra/build/build_script/kirin_kernel_release/kernel/block/blk-mq.h:146:22
	cmp	x24, #0                 // =0
	ccmp	w9, #0, #4, ne
	b.eq	.LBB7_8
.Ltmp229:
// %bb.3:                               //   in Loop: Header=BB7_2 Depth=1
	//DEBUG_VALUE: tags <- $x24
	//DEBUG_VALUE: ufs_mq_tag_busy_iter:hctx <- $x22
	//DEBUG_VALUE: ufs_mq_tag_busy_iter:i <- $x23
	//DEBUG_VALUE: ufs_mq_tag_busy_iter:fn <- $x21
	//DEBUG_VALUE: ufs_mq_tag_busy_iter:q <- $x20
	//DEBUG_VALUE: ufs_mq_tag_busy_iter:priv <- $x19
	.loc	2 585 13 is_stmt 1      // /mnt/disk/jenkins/workspace/chipset_10.1.0_release_5G/opensource/component_code/vendor/huawei/extra/build/build_script/kirin_kernel_release/kernel/block/hisi-blk-iosched-ufs-mq.c:585:13
	ldr	w8, [x24, #8]
.Ltmp230:
	.loc	2 585 7 is_stmt 0       // /mnt/disk/jenkins/workspace/chipset_10.1.0_release_5G/opensource/component_code/vendor/huawei/extra/build/build_script/kirin_kernel_release/kernel/block/hisi-blk-iosched-ufs-mq.c:585:7
	cbz	w8, .LBB7_5
.Ltmp231:
// %bb.4:                               //   in Loop: Header=BB7_2 Depth=1
	//DEBUG_VALUE: tags <- $x24
	//DEBUG_VALUE: ufs_mq_tag_busy_iter:hctx <- $x22
	//DEBUG_VALUE: ufs_mq_tag_busy_iter:i <- $x23
	//DEBUG_VALUE: ufs_mq_tag_busy_iter:fn <- $x21
	//DEBUG_VALUE: ufs_mq_tag_busy_iter:q <- $x20
	//DEBUG_VALUE: ufs_mq_tag_busy_iter:priv <- $x19
	.loc	2 586 40 is_stmt 1      // /mnt/disk/jenkins/workspace/chipset_10.1.0_release_5G/opensource/component_code/vendor/huawei/extra/build/build_script/kirin_kernel_release/kernel/block/hisi-blk-iosched-ufs-mq.c:586:40
	add	x1, x24, #168           // =168
	.loc	2 586 4 is_stmt 0       // /mnt/disk/jenkins/workspace/chipset_10.1.0_release_5G/opensource/component_code/vendor/huawei/extra/build/build_script/kirin_kernel_release/kernel/block/hisi-blk-iosched-ufs-mq.c:586:4
	orr	w5, wzr, #0x1
	mov	x0, x22
	mov	x2, x21
	mov	x3, x19
	mov	w4, wzr
	bl	ufs_tagset_bt_for_each
.Ltmp232:
.LBB7_5:                                //   in Loop: Header=BB7_2 Depth=1
	//DEBUG_VALUE: tags <- $x24
	//DEBUG_VALUE: ufs_mq_tag_busy_iter:hctx <- $x22
	//DEBUG_VALUE: ufs_mq_tag_busy_iter:i <- $x23
	//DEBUG_VALUE: ufs_mq_tag_busy_iter:fn <- $x21
	//DEBUG_VALUE: ufs_mq_tag_busy_iter:q <- $x20
	//DEBUG_VALUE: ufs_mq_tag_busy_iter:priv <- $x19
	.loc	2 588 13 is_stmt 1      // /mnt/disk/jenkins/workspace/chipset_10.1.0_release_5G/opensource/component_code/vendor/huawei/extra/build/build_script/kirin_kernel_release/kernel/block/hisi-blk-iosched-ufs-mq.c:588:13
	ldr	w8, [x24, #4]
.Ltmp233:
	.loc	2 588 7 is_stmt 0       // /mnt/disk/jenkins/workspace/chipset_10.1.0_release_5G/opensource/component_code/vendor/huawei/extra/build/build_script/kirin_kernel_release/kernel/block/hisi-blk-iosched-ufs-mq.c:588:7
	cbz	w8, .LBB7_7
.Ltmp234:
// %bb.6:                               //   in Loop: Header=BB7_2 Depth=1
	//DEBUG_VALUE: tags <- $x24
	//DEBUG_VALUE: ufs_mq_tag_busy_iter:hctx <- $x22
	//DEBUG_VALUE: ufs_mq_tag_busy_iter:i <- $x23
	//DEBUG_VALUE: ufs_mq_tag_busy_iter:fn <- $x21
	//DEBUG_VALUE: ufs_mq_tag_busy_iter:q <- $x20
	//DEBUG_VALUE: ufs_mq_tag_busy_iter:priv <- $x19
	.loc	2 589 40 is_stmt 1      // /mnt/disk/jenkins/workspace/chipset_10.1.0_release_5G/opensource/component_code/vendor/huawei/extra/build/build_script/kirin_kernel_release/kernel/block/hisi-blk-iosched-ufs-mq.c:589:40
	add	x1, x24, #112           // =112
	.loc	2 589 4 is_stmt 0       // /mnt/disk/jenkins/workspace/chipset_10.1.0_release_5G/opensource/component_code/vendor/huawei/extra/build/build_script/kirin_kernel_release/kernel/block/hisi-blk-iosched-ufs-mq.c:589:4
	orr	w4, wzr, #0x1
	mov	x0, x22
	mov	x2, x21
	mov	x3, x19
	mov	w5, wzr
	bl	ufs_tagset_bt_for_each
.Ltmp235:
.LBB7_7:                                //   in Loop: Header=BB7_2 Depth=1
	//DEBUG_VALUE: tags <- $x24
	//DEBUG_VALUE: ufs_mq_tag_busy_iter:hctx <- $x22
	//DEBUG_VALUE: ufs_mq_tag_busy_iter:i <- $x23
	//DEBUG_VALUE: ufs_mq_tag_busy_iter:fn <- $x21
	//DEBUG_VALUE: ufs_mq_tag_busy_iter:q <- $x20
	//DEBUG_VALUE: ufs_mq_tag_busy_iter:priv <- $x19
	.loc	2 592 17 is_stmt 1      // /mnt/disk/jenkins/workspace/chipset_10.1.0_release_5G/opensource/component_code/vendor/huawei/extra/build/build_script/kirin_kernel_release/kernel/block/hisi-blk-iosched-ufs-mq.c:592:17
	add	x1, x24, #56            // =56
	.loc	2 591 3                 // /mnt/disk/jenkins/workspace/chipset_10.1.0_release_5G/opensource/component_code/vendor/huawei/extra/build/build_script/kirin_kernel_release/kernel/block/hisi-blk-iosched-ufs-mq.c:591:3
	mov	x0, x22
	mov	x2, x21
	mov	x3, x19
	mov	w4, wzr
	mov	w5, wzr
	bl	ufs_tagset_bt_for_each
.Ltmp236:
	.loc	2 575 2                 // /mnt/disk/jenkins/workspace/chipset_10.1.0_release_5G/opensource/component_code/vendor/huawei/extra/build/build_script/kirin_kernel_release/kernel/block/hisi-blk-iosched-ufs-mq.c:575:2
	ldr	w8, [x20, #352]
.Ltmp237:
.LBB7_8:                                //   in Loop: Header=BB7_2 Depth=1
	//DEBUG_VALUE: ufs_mq_tag_busy_iter:hctx <- $x22
	//DEBUG_VALUE: ufs_mq_tag_busy_iter:i <- $x23
	//DEBUG_VALUE: ufs_mq_tag_busy_iter:fn <- $x21
	//DEBUG_VALUE: ufs_mq_tag_busy_iter:q <- $x20
	//DEBUG_VALUE: ufs_mq_tag_busy_iter:priv <- $x19
	//DEBUG_VALUE: ufs_mq_tag_busy_iter:i <- [DW_OP_plus_uconst 1, DW_OP_stack_value] undef
	add	x23, x23, #1            // =1
	cmp	x23, w8, uxtw
	b.lo	.LBB7_2
.Ltmp238:
.LBB7_9:
	.loc	2 595 2                 // /mnt/disk/jenkins/workspace/chipset_10.1.0_release_5G/opensource/component_code/vendor/huawei/extra/build/build_script/kirin_kernel_release/kernel/block/hisi-blk-iosched-ufs-mq.c:595:2
	ldp	x29, x30, [sp, #48]     // 16-byte Folded Reload
	ldp	x20, x19, [sp, #32]     // 16-byte Folded Reload
	ldp	x22, x21, [sp, #16]     // 16-byte Folded Reload
	mov	w0, wzr
	ldp	x24, x23, [sp], #64     // 16-byte Folded Reload
	ret
.Ltmp239:
.Lfunc_end7:
	.size	ufs_mq_tag_busy_iter, .Lfunc_end7-ufs_mq_tag_busy_iter
	.cfi_endproc
                                        // -- End function
	.section	.text.ufs_tagset_bt_for_each,"ax",@progbits
	.p2align	2               // -- Begin function ufs_tagset_bt_for_each
	.type	ufs_tagset_bt_for_each,@function
ufs_tagset_bt_for_each:                 // @ufs_tagset_bt_for_each
.Lfunc_begin8:
	.loc	2 265 0                 // /mnt/disk/jenkins/workspace/chipset_10.1.0_release_5G/opensource/component_code/vendor/huawei/extra/build/build_script/kirin_kernel_release/kernel/block/hisi-blk-iosched-ufs-mq.c:265:0
	.cfi_startproc
// %bb.0:
	sub	sp, sp, #112            // =112
	stp	x28, x27, [sp, #16]     // 16-byte Folded Spill
	stp	x26, x25, [sp, #32]     // 16-byte Folded Spill
	stp	x24, x23, [sp, #48]     // 16-byte Folded Spill
	stp	x22, x21, [sp, #64]     // 16-byte Folded Spill
	stp	x20, x19, [sp, #80]     // 16-byte Folded Spill
	stp	x29, x30, [sp, #96]     // 16-byte Folded Spill
	add	x29, sp, #96            // =96
	.cfi_def_cfa w29, 16
	.cfi_offset w30, -8
	.cfi_offset w29, -16
	.cfi_offset w19, -24
	.cfi_offset w20, -32
	.cfi_offset w21, -40
	.cfi_offset w22, -48
	.cfi_offset w23, -56
	.cfi_offset w24, -64
	.cfi_offset w25, -72
	.cfi_offset w26, -80
	.cfi_offset w27, -88
	.cfi_offset w28, -96
	//DEBUG_VALUE: ufs_tagset_bt_for_each:hctx <- $x0
	//DEBUG_VALUE: ufs_tagset_bt_for_each:bt <- $x1
	//DEBUG_VALUE: ufs_tagset_bt_for_each:fn <- $x2
	//DEBUG_VALUE: ufs_tagset_bt_for_each:data <- $x3
	//DEBUG_VALUE: ufs_tagset_bt_for_each:reserved <- $w4
	//DEBUG_VALUE: ufs_tagset_bt_for_each:prior <- $w5
.Ltmp240:
	//DEBUG_VALUE: sbitmap_for_each_set:sb <- $x1
	//DEBUG_VALUE: ufs_tagset_bt_iter:hctx <- $x0
	//DEBUG_VALUE: ufs_tagset_bt_iter:bitmap <- $x1
	//DEBUG_VALUE: ufs_tagset_bt_iter:bitmap <- $x1
	//DEBUG_VALUE: sbitmap_for_each_set:sb <- $x1
	//DEBUG_VALUE: ufs_tagset_bt_for_each:bt <- $x1
	.loc	141 230 22 prologue_end // /mnt/disk/jenkins/workspace/chipset_10.1.0_release_5G/opensource/component_code/vendor/huawei/extra/build/build_script/kirin_kernel_release/kernel/include/linux/sbitmap.h:230:22
	ldr	w8, [x1, #8]
.Ltmp241:
	//DEBUG_VALUE: sbitmap_for_each_set:i <- 0
	//DEBUG_VALUE: sbitmap_for_each_set:data <- undef
	.loc	141 230 2 is_stmt 0     // /mnt/disk/jenkins/workspace/chipset_10.1.0_release_5G/opensource/component_code/vendor/huawei/extra/build/build_script/kirin_kernel_release/kernel/include/linux/sbitmap.h:230:2
	cbz	w8, .LBB8_13
.Ltmp242:
// %bb.1:
	//DEBUG_VALUE: ufs_tagset_bt_iter:bitmap <- $x1
	//DEBUG_VALUE: ufs_tagset_bt_iter:hctx <- $x0
	//DEBUG_VALUE: sbitmap_for_each_set:sb <- $x1
	//DEBUG_VALUE: ufs_tagset_bt_for_each:prior <- $w5
	//DEBUG_VALUE: ufs_tagset_bt_for_each:reserved <- $w4
	//DEBUG_VALUE: ufs_tagset_bt_for_each:data <- $x3
	//DEBUG_VALUE: ufs_tagset_bt_for_each:fn <- $x2
	//DEBUG_VALUE: ufs_tagset_bt_for_each:bt <- $x1
	//DEBUG_VALUE: ufs_tagset_bt_for_each:hctx <- $x0
	.loc	141 0 2                 // /mnt/disk/jenkins/workspace/chipset_10.1.0_release_5G/opensource/component_code/vendor/huawei/extra/build/build_script/kirin_kernel_release/kernel/include/linux/sbitmap.h:0:2
	mov	w19, w5
.Ltmp243:
	//DEBUG_VALUE: ufs_tagset_bt_for_each:prior <- $w19
	mov	w20, w4
.Ltmp244:
	//DEBUG_VALUE: ufs_tagset_bt_for_each:reserved <- $w20
	mov	x21, x3
.Ltmp245:
	//DEBUG_VALUE: ufs_tagset_bt_for_each:data <- $x21
	mov	x22, x2
.Ltmp246:
	//DEBUG_VALUE: ufs_tagset_bt_for_each:fn <- $x22
	mov	x24, x0
.Ltmp247:
	//DEBUG_VALUE: ufs_tagset_bt_for_each:hctx <- $x24
	//DEBUG_VALUE: ufs_tagset_bt_iter:hctx <- $x24
	//DEBUG_VALUE: ufs_tagset_bt_for_each:prior <- $w19
	mov	x27, xzr
	str	x1, [sp, #8]            // 8-byte Folded Spill
.Ltmp248:
.LBB8_2:                                // =>This Loop Header: Depth=1
                                        //     Child Loop BB8_5 Depth 2
	//DEBUG_VALUE: ufs_tagset_bt_for_each:hctx <- $x24
	//DEBUG_VALUE: ufs_tagset_bt_for_each:fn <- $x22
	//DEBUG_VALUE: ufs_tagset_bt_for_each:data <- $x21
	//DEBUG_VALUE: ufs_tagset_bt_for_each:reserved <- $w20
	//DEBUG_VALUE: ufs_tagset_bt_for_each:prior <- $w19
	//DEBUG_VALUE: sbitmap_for_each_set:sb <- $x1
	//DEBUG_VALUE: ufs_tagset_bt_for_each:bt <- $x1
	//DEBUG_VALUE: sbitmap_for_each_set:i <- $x27
	.loc	141 231 36 is_stmt 1    // /mnt/disk/jenkins/workspace/chipset_10.1.0_release_5G/opensource/component_code/vendor/huawei/extra/build/build_script/kirin_kernel_release/kernel/include/linux/sbitmap.h:231:36
	ldr	x8, [x1, #16]
.Ltmp249:
	.loc	141 234 14              // /mnt/disk/jenkins/workspace/chipset_10.1.0_release_5G/opensource/component_code/vendor/huawei/extra/build/build_script/kirin_kernel_release/kernel/include/linux/sbitmap.h:234:14
	add	x25, x8, x27, lsl #6
	ldr	x8, [x25]
.Ltmp250:
	.loc	141 234 7 is_stmt 0     // /mnt/disk/jenkins/workspace/chipset_10.1.0_release_5G/opensource/component_code/vendor/huawei/extra/build/build_script/kirin_kernel_release/kernel/include/linux/sbitmap.h:234:7
	cbz	x8, .LBB8_12
.Ltmp251:
// %bb.3:                               //   in Loop: Header=BB8_2 Depth=1
	//DEBUG_VALUE: sbitmap_for_each_set:i <- $x27
	//DEBUG_VALUE: ufs_tagset_bt_for_each:hctx <- $x24
	//DEBUG_VALUE: ufs_tagset_bt_for_each:fn <- $x22
	//DEBUG_VALUE: ufs_tagset_bt_for_each:data <- $x21
	//DEBUG_VALUE: ufs_tagset_bt_for_each:reserved <- $w20
	//DEBUG_VALUE: ufs_tagset_bt_for_each:prior <- $w19
	//DEBUG_VALUE: sbitmap_for_each_set:sb <- $x1
	//DEBUG_VALUE: ufs_tagset_bt_for_each:bt <- $x1
	//DEBUG_VALUE: nr <- 0
	.loc	141 0 7                 // /mnt/disk/jenkins/workspace/chipset_10.1.0_release_5G/opensource/component_code/vendor/huawei/extra/build/build_script/kirin_kernel_release/kernel/include/linux/sbitmap.h:0:7
	ldr	x8, [sp, #8]            // 8-byte Folded Reload
.Ltmp252:
	.loc	141 240 42 is_stmt 1    // /mnt/disk/jenkins/workspace/chipset_10.1.0_release_5G/opensource/component_code/vendor/huawei/extra/build/build_script/kirin_kernel_release/kernel/include/linux/sbitmap.h:240:42
	mov	x28, x25
	.loc	141 240 9 is_stmt 0     // /mnt/disk/jenkins/workspace/chipset_10.1.0_release_5G/opensource/component_code/vendor/huawei/extra/build/build_script/kirin_kernel_release/kernel/include/linux/sbitmap.h:240:9
	mov	x0, x25
	mov	x2, xzr
.Ltmp253:
	.loc	141 238 18 is_stmt 1    // /mnt/disk/jenkins/workspace/chipset_10.1.0_release_5G/opensource/component_code/vendor/huawei/extra/build/build_script/kirin_kernel_release/kernel/include/linux/sbitmap.h:238:18
	ldr	w23, [x8, #4]
.Ltmp254:
	.loc	141 240 42              // /mnt/disk/jenkins/workspace/chipset_10.1.0_release_5G/opensource/component_code/vendor/huawei/extra/build/build_script/kirin_kernel_release/kernel/include/linux/sbitmap.h:240:42
	ldr	x1, [x28, #8]!
.Ltmp255:
	.loc	141 240 9 is_stmt 0     // /mnt/disk/jenkins/workspace/chipset_10.1.0_release_5G/opensource/component_code/vendor/huawei/extra/build/build_script/kirin_kernel_release/kernel/include/linux/sbitmap.h:240:9
	bl	find_next_bit
.Ltmp256:
	.loc	141 241 20 is_stmt 1    // /mnt/disk/jenkins/workspace/chipset_10.1.0_release_5G/opensource/component_code/vendor/huawei/extra/build/build_script/kirin_kernel_release/kernel/include/linux/sbitmap.h:241:20
	ldr	x1, [x28]
.Ltmp257:
	.loc	141 240 9               // /mnt/disk/jenkins/workspace/chipset_10.1.0_release_5G/opensource/component_code/vendor/huawei/extra/build/build_script/kirin_kernel_release/kernel/include/linux/sbitmap.h:240:9
	mov	x26, x0
	.loc	141 241 8               // /mnt/disk/jenkins/workspace/chipset_10.1.0_release_5G/opensource/component_code/vendor/huawei/extra/build/build_script/kirin_kernel_release/kernel/include/linux/sbitmap.h:241:8
	cmp	x1, w26, uxtw
	b.ls	.LBB8_12
.Ltmp258:
// %bb.4:                               //   in Loop: Header=BB8_2 Depth=1
	//DEBUG_VALUE: sbitmap_for_each_set:i <- $x27
	//DEBUG_VALUE: ufs_tagset_bt_for_each:hctx <- $x24
	//DEBUG_VALUE: ufs_tagset_bt_for_each:fn <- $x22
	//DEBUG_VALUE: ufs_tagset_bt_for_each:data <- $x21
	//DEBUG_VALUE: ufs_tagset_bt_for_each:reserved <- $w20
	//DEBUG_VALUE: ufs_tagset_bt_for_each:prior <- $w19
	.loc	141 0 8 is_stmt 0       // /mnt/disk/jenkins/workspace/chipset_10.1.0_release_5G/opensource/component_code/vendor/huawei/extra/build/build_script/kirin_kernel_release/kernel/include/linux/sbitmap.h:0:8
	lsl	w23, w27, w23
.Ltmp259:
	//DEBUG_VALUE: off <- $w23
.LBB8_5:                                //   Parent Loop BB8_2 Depth=1
                                        // =>  This Inner Loop Header: Depth=2
	//DEBUG_VALUE: off <- $w23
	//DEBUG_VALUE: sbitmap_for_each_set:i <- $x27
	//DEBUG_VALUE: ufs_tagset_bt_for_each:hctx <- $x24
	//DEBUG_VALUE: ufs_tagset_bt_for_each:fn <- $x22
	//DEBUG_VALUE: ufs_tagset_bt_for_each:data <- $x21
	//DEBUG_VALUE: ufs_tagset_bt_for_each:reserved <- $w20
	//DEBUG_VALUE: ufs_tagset_bt_for_each:prior <- $w19
	//DEBUG_VALUE: nr <- $w26
	//DEBUG_VALUE: nr <- [DW_OP_plus_uconst 1, DW_OP_stack_value] $w26
	.loc	2 229 35 is_stmt 1      // /mnt/disk/jenkins/workspace/chipset_10.1.0_release_5G/opensource/component_code/vendor/huawei/extra/build/build_script/kirin_kernel_release/kernel/block/hisi-blk-iosched-ufs-mq.c:229:35
	ldr	x9, [x24, #304]
.Ltmp260:
	//DEBUG_VALUE: ufs_tagset_bt_iter:tags <- $x9
	.loc	141 244 20              // /mnt/disk/jenkins/workspace/chipset_10.1.0_release_5G/opensource/component_code/vendor/huawei/extra/build/build_script/kirin_kernel_release/kernel/include/linux/sbitmap.h:244:20
	add	w8, w23, w26
.Ltmp261:
	//DEBUG_VALUE: ufs_tagset_bt_iter:iter_data <- undef
	//DEBUG_VALUE: ufs_tagset_bt_iter:data <- undef
	//DEBUG_VALUE: ufs_tagset_bt_iter:bitnr <- $w8
	//DEBUG_VALUE: ufs_tagset_bt_iter:tags <- $x9
	.loc	2 232 6                 // /mnt/disk/jenkins/workspace/chipset_10.1.0_release_5G/opensource/component_code/vendor/huawei/extra/build/build_script/kirin_kernel_release/kernel/block/hisi-blk-iosched-ufs-mq.c:232:6
	tbz	w20, #0, .LBB8_7
.Ltmp262:
// %bb.6:                               //   in Loop: Header=BB8_5 Depth=2
	//DEBUG_VALUE: ufs_tagset_bt_iter:bitnr <- $w8
	//DEBUG_VALUE: ufs_tagset_bt_iter:tags <- $x9
	//DEBUG_VALUE: nr <- $w26
	//DEBUG_VALUE: off <- $w23
	//DEBUG_VALUE: sbitmap_for_each_set:i <- $x27
	//DEBUG_VALUE: ufs_tagset_bt_for_each:hctx <- $x24
	//DEBUG_VALUE: ufs_tagset_bt_for_each:fn <- $x22
	//DEBUG_VALUE: ufs_tagset_bt_for_each:data <- $x21
	//DEBUG_VALUE: ufs_tagset_bt_for_each:reserved <- $w20
	//DEBUG_VALUE: ufs_tagset_bt_for_each:prior <- $w19
	.loc	2 233 18                // /mnt/disk/jenkins/workspace/chipset_10.1.0_release_5G/opensource/component_code/vendor/huawei/extra/build/build_script/kirin_kernel_release/kernel/block/hisi-blk-iosched-ufs-mq.c:233:18
	ldr	w10, [x9, #16]
	.loc	2 233 9 is_stmt 0       // /mnt/disk/jenkins/workspace/chipset_10.1.0_release_5G/opensource/component_code/vendor/huawei/extra/build/build_script/kirin_kernel_release/kernel/block/hisi-blk-iosched-ufs-mq.c:233:9
	add	w8, w10, w8
.Ltmp263:
	//DEBUG_VALUE: ufs_tagset_bt_iter:bitnr <- $w8
.LBB8_7:                                //   in Loop: Header=BB8_5 Depth=2
	//DEBUG_VALUE: ufs_tagset_bt_iter:bitnr <- $w8
	//DEBUG_VALUE: ufs_tagset_bt_iter:tags <- $x9
	//DEBUG_VALUE: nr <- $w26
	//DEBUG_VALUE: off <- $w23
	//DEBUG_VALUE: sbitmap_for_each_set:i <- $x27
	//DEBUG_VALUE: ufs_tagset_bt_for_each:hctx <- $x24
	//DEBUG_VALUE: ufs_tagset_bt_for_each:fn <- $x22
	//DEBUG_VALUE: ufs_tagset_bt_for_each:data <- $x21
	//DEBUG_VALUE: ufs_tagset_bt_for_each:reserved <- $w20
	//DEBUG_VALUE: ufs_tagset_bt_for_each:prior <- $w19
	//DEBUG_VALUE: ufs_tagset_bt_iter:bitnr <- $w8
	.loc	2 234 6 is_stmt 1       // /mnt/disk/jenkins/workspace/chipset_10.1.0_release_5G/opensource/component_code/vendor/huawei/extra/build/build_script/kirin_kernel_release/kernel/block/hisi-blk-iosched-ufs-mq.c:234:6
	tbz	w19, #0, .LBB8_9
.Ltmp264:
// %bb.8:                               //   in Loop: Header=BB8_5 Depth=2
	//DEBUG_VALUE: ufs_tagset_bt_iter:bitnr <- $w8
	//DEBUG_VALUE: ufs_tagset_bt_iter:tags <- $x9
	//DEBUG_VALUE: nr <- $w26
	//DEBUG_VALUE: off <- $w23
	//DEBUG_VALUE: sbitmap_for_each_set:i <- $x27
	//DEBUG_VALUE: ufs_tagset_bt_for_each:hctx <- $x24
	//DEBUG_VALUE: ufs_tagset_bt_for_each:fn <- $x22
	//DEBUG_VALUE: ufs_tagset_bt_for_each:data <- $x21
	//DEBUG_VALUE: ufs_tagset_bt_for_each:reserved <- $w20
	//DEBUG_VALUE: ufs_tagset_bt_for_each:prior <- $w19
	.loc	2 235 18                // /mnt/disk/jenkins/workspace/chipset_10.1.0_release_5G/opensource/component_code/vendor/huawei/extra/build/build_script/kirin_kernel_release/kernel/block/hisi-blk-iosched-ufs-mq.c:235:18
	ldr	w10, [x9, #20]
	.loc	2 235 9 is_stmt 0       // /mnt/disk/jenkins/workspace/chipset_10.1.0_release_5G/opensource/component_code/vendor/huawei/extra/build/build_script/kirin_kernel_release/kernel/block/hisi-blk-iosched-ufs-mq.c:235:9
	add	w8, w10, w8
.Ltmp265:
	//DEBUG_VALUE: ufs_tagset_bt_iter:bitnr <- $w8
.LBB8_9:                                //   in Loop: Header=BB8_5 Depth=2
	//DEBUG_VALUE: ufs_tagset_bt_iter:bitnr <- $w8
	//DEBUG_VALUE: ufs_tagset_bt_iter:tags <- $x9
	//DEBUG_VALUE: nr <- $w26
	//DEBUG_VALUE: off <- $w23
	//DEBUG_VALUE: sbitmap_for_each_set:i <- $x27
	//DEBUG_VALUE: ufs_tagset_bt_for_each:hctx <- $x24
	//DEBUG_VALUE: ufs_tagset_bt_for_each:fn <- $x22
	//DEBUG_VALUE: ufs_tagset_bt_for_each:data <- $x21
	//DEBUG_VALUE: ufs_tagset_bt_for_each:reserved <- $w20
	//DEBUG_VALUE: ufs_tagset_bt_for_each:prior <- $w19
	//DEBUG_VALUE: ufs_tagset_bt_iter:bitnr <- $w8
	.loc	2 237 13 is_stmt 1      // /mnt/disk/jenkins/workspace/chipset_10.1.0_release_5G/opensource/component_code/vendor/huawei/extra/build/build_script/kirin_kernel_release/kernel/block/hisi-blk-iosched-ufs-mq.c:237:13
	ldr	x9, [x9, #224]
.Ltmp266:
	.loc	2 239 21                // /mnt/disk/jenkins/workspace/chipset_10.1.0_release_5G/opensource/component_code/vendor/huawei/extra/build/build_script/kirin_kernel_release/kernel/block/hisi-blk-iosched-ufs-mq.c:239:21
	ldr	x10, [x24, #192]
.Ltmp267:
	.loc	2 237 7                 // /mnt/disk/jenkins/workspace/chipset_10.1.0_release_5G/opensource/component_code/vendor/huawei/extra/build/build_script/kirin_kernel_release/kernel/block/hisi-blk-iosched-ufs-mq.c:237:7
	ldr	x8, [x9, w8, uxtw #3]
.Ltmp268:
	//DEBUG_VALUE: ufs_tagset_bt_iter:rq <- $x8
	.loc	2 239 10                // /mnt/disk/jenkins/workspace/chipset_10.1.0_release_5G/opensource/component_code/vendor/huawei/extra/build/build_script/kirin_kernel_release/kernel/block/hisi-blk-iosched-ufs-mq.c:239:10
	ldr	x9, [x8, #64]
.Ltmp269:
	.loc	2 239 6 is_stmt 0       // /mnt/disk/jenkins/workspace/chipset_10.1.0_release_5G/opensource/component_code/vendor/huawei/extra/build/build_script/kirin_kernel_release/kernel/block/hisi-blk-iosched-ufs-mq.c:239:6
	cmp	x9, x10
	b.ne	.LBB8_11
.Ltmp270:
// %bb.10:                              //   in Loop: Header=BB8_5 Depth=2
	//DEBUG_VALUE: ufs_tagset_bt_iter:rq <- $x8
	//DEBUG_VALUE: nr <- $w26
	//DEBUG_VALUE: off <- $w23
	//DEBUG_VALUE: sbitmap_for_each_set:i <- $x27
	//DEBUG_VALUE: ufs_tagset_bt_for_each:hctx <- $x24
	//DEBUG_VALUE: ufs_tagset_bt_for_each:fn <- $x22
	//DEBUG_VALUE: ufs_tagset_bt_for_each:data <- $x21
	//DEBUG_VALUE: ufs_tagset_bt_for_each:reserved <- $w20
	//DEBUG_VALUE: ufs_tagset_bt_for_each:prior <- $w19
	.loc	2 240 3 is_stmt 1       // /mnt/disk/jenkins/workspace/chipset_10.1.0_release_5G/opensource/component_code/vendor/huawei/extra/build/build_script/kirin_kernel_release/kernel/block/hisi-blk-iosched-ufs-mq.c:240:3
	and	w3, w20, #0x1
	mov	x0, x24
	mov	x1, x8
	mov	x2, x21
	blr	x22
.Ltmp271:
	.loc	141 240 42 is_stmt 0    // /mnt/disk/jenkins/workspace/chipset_10.1.0_release_5G/opensource/component_code/vendor/huawei/extra/build/build_script/kirin_kernel_release/kernel/include/linux/sbitmap.h:240:42
	ldr	x1, [x28]
.Ltmp272:
.LBB8_11:                               //   in Loop: Header=BB8_5 Depth=2
	//DEBUG_VALUE: nr <- $w26
	//DEBUG_VALUE: off <- $w23
	//DEBUG_VALUE: sbitmap_for_each_set:i <- $x27
	//DEBUG_VALUE: ufs_tagset_bt_for_each:hctx <- $x24
	//DEBUG_VALUE: ufs_tagset_bt_for_each:fn <- $x22
	//DEBUG_VALUE: ufs_tagset_bt_for_each:data <- $x21
	//DEBUG_VALUE: ufs_tagset_bt_for_each:reserved <- $w20
	//DEBUG_VALUE: ufs_tagset_bt_for_each:prior <- $w19
	.loc	141 247 6 is_stmt 1     // /mnt/disk/jenkins/workspace/chipset_10.1.0_release_5G/opensource/component_code/vendor/huawei/extra/build/build_script/kirin_kernel_release/kernel/include/linux/sbitmap.h:247:6
	add	w2, w26, #1             // =1
	.loc	141 240 9               // /mnt/disk/jenkins/workspace/chipset_10.1.0_release_5G/opensource/component_code/vendor/huawei/extra/build/build_script/kirin_kernel_release/kernel/include/linux/sbitmap.h:240:9
	mov	x0, x25
	bl	find_next_bit
.Ltmp273:
	.loc	141 241 20              // /mnt/disk/jenkins/workspace/chipset_10.1.0_release_5G/opensource/component_code/vendor/huawei/extra/build/build_script/kirin_kernel_release/kernel/include/linux/sbitmap.h:241:20
	ldr	x1, [x28]
.Ltmp274:
	.loc	141 240 9               // /mnt/disk/jenkins/workspace/chipset_10.1.0_release_5G/opensource/component_code/vendor/huawei/extra/build/build_script/kirin_kernel_release/kernel/include/linux/sbitmap.h:240:9
	mov	x26, x0
.Ltmp275:
	.loc	141 241 8               // /mnt/disk/jenkins/workspace/chipset_10.1.0_release_5G/opensource/component_code/vendor/huawei/extra/build/build_script/kirin_kernel_release/kernel/include/linux/sbitmap.h:241:8
	cmp	x1, w26, uxtw
	b.hi	.LBB8_5
.Ltmp276:
.LBB8_12:                               //   in Loop: Header=BB8_2 Depth=1
	//DEBUG_VALUE: sbitmap_for_each_set:i <- $x27
	//DEBUG_VALUE: ufs_tagset_bt_for_each:hctx <- $x24
	//DEBUG_VALUE: ufs_tagset_bt_for_each:fn <- $x22
	//DEBUG_VALUE: ufs_tagset_bt_for_each:data <- $x21
	//DEBUG_VALUE: ufs_tagset_bt_for_each:reserved <- $w20
	//DEBUG_VALUE: ufs_tagset_bt_for_each:prior <- $w19
	//DEBUG_VALUE: sbitmap_for_each_set:i <- [DW_OP_plus_uconst 1, DW_OP_stack_value] undef
	.loc	141 0 8 is_stmt 0       // /mnt/disk/jenkins/workspace/chipset_10.1.0_release_5G/opensource/component_code/vendor/huawei/extra/build/build_script/kirin_kernel_release/kernel/include/linux/sbitmap.h:0:8
	ldr	x1, [sp, #8]            // 8-byte Folded Reload
	.loc	141 230 31 is_stmt 1    // /mnt/disk/jenkins/workspace/chipset_10.1.0_release_5G/opensource/component_code/vendor/huawei/extra/build/build_script/kirin_kernel_release/kernel/include/linux/sbitmap.h:230:31
	add	x27, x27, #1            // =1
	.loc	141 230 22 is_stmt 0    // /mnt/disk/jenkins/workspace/chipset_10.1.0_release_5G/opensource/component_code/vendor/huawei/extra/build/build_script/kirin_kernel_release/kernel/include/linux/sbitmap.h:230:22
	ldr	w8, [x1, #8]
.Ltmp277:
	.loc	141 230 2               // /mnt/disk/jenkins/workspace/chipset_10.1.0_release_5G/opensource/component_code/vendor/huawei/extra/build/build_script/kirin_kernel_release/kernel/include/linux/sbitmap.h:230:2
	cmp	x27, x8
	b.lo	.LBB8_2
.Ltmp278:
.LBB8_13:
	.loc	2 275 1 is_stmt 1       // /mnt/disk/jenkins/workspace/chipset_10.1.0_release_5G/opensource/component_code/vendor/huawei/extra/build/build_script/kirin_kernel_release/kernel/block/hisi-blk-iosched-ufs-mq.c:275:1
	ldp	x29, x30, [sp, #96]     // 16-byte Folded Reload
	ldp	x20, x19, [sp, #80]     // 16-byte Folded Reload
	ldp	x22, x21, [sp, #64]     // 16-byte Folded Reload
	ldp	x24, x23, [sp, #48]     // 16-byte Folded Reload
	ldp	x26, x25, [sp, #32]     // 16-byte Folded Reload
	ldp	x28, x27, [sp, #16]     // 16-byte Folded Reload
	add	sp, sp, #112            // =112
	ret
.Ltmp279:
.Lfunc_end8:
	.size	ufs_tagset_bt_for_each, .Lfunc_end8-ufs_tagset_bt_for_each
	.cfi_endproc
                                        // -- End function
	.section	.text.ufs_mq_tag_wakeup_all,"ax",@progbits
	.hidden	ufs_mq_tag_wakeup_all   // -- Begin function ufs_mq_tag_wakeup_all
	.globl	ufs_mq_tag_wakeup_all
	.p2align	2
	.type	ufs_mq_tag_wakeup_all,@function
ufs_mq_tag_wakeup_all:                  // @ufs_mq_tag_wakeup_all
.Lfunc_begin9:
	.loc	2 599 0                 // /mnt/disk/jenkins/workspace/chipset_10.1.0_release_5G/opensource/component_code/vendor/huawei/extra/build/build_script/kirin_kernel_release/kernel/block/hisi-blk-iosched-ufs-mq.c:599:0
	.cfi_startproc
// %bb.0:
	str	x19, [sp, #-32]!        // 8-byte Folded Spill
	stp	x29, x30, [sp, #16]     // 16-byte Folded Spill
	add	x29, sp, #16            // =16
	.cfi_def_cfa w29, 16
	.cfi_offset w30, -8
	.cfi_offset w29, -16
	.cfi_offset w19, -32
	//DEBUG_VALUE: ufs_mq_tag_wakeup_all:tags <- $x0
	mov	x19, x0
.Ltmp280:
	//DEBUG_VALUE: ufs_mq_tag_wakeup_all:tags <- $x19
	.loc	2 600 32 prologue_end   // /mnt/disk/jenkins/workspace/chipset_10.1.0_release_5G/opensource/component_code/vendor/huawei/extra/build/build_script/kirin_kernel_release/kernel/block/hisi-blk-iosched-ufs-mq.c:600:32
	add	x0, x0, #56             // =56
	.loc	2 600 2 is_stmt 0       // /mnt/disk/jenkins/workspace/chipset_10.1.0_release_5G/opensource/component_code/vendor/huawei/extra/build/build_script/kirin_kernel_release/kernel/block/hisi-blk-iosched-ufs-mq.c:600:2
	bl	sbitmap_queue_wake_all
	.loc	2 601 32 is_stmt 1      // /mnt/disk/jenkins/workspace/chipset_10.1.0_release_5G/opensource/component_code/vendor/huawei/extra/build/build_script/kirin_kernel_release/kernel/block/hisi-blk-iosched-ufs-mq.c:601:32
	add	x0, x19, #112           // =112
	.loc	2 601 2 is_stmt 0       // /mnt/disk/jenkins/workspace/chipset_10.1.0_release_5G/opensource/component_code/vendor/huawei/extra/build/build_script/kirin_kernel_release/kernel/block/hisi-blk-iosched-ufs-mq.c:601:2
	bl	sbitmap_queue_wake_all
	.loc	2 602 32 is_stmt 1      // /mnt/disk/jenkins/workspace/chipset_10.1.0_release_5G/opensource/component_code/vendor/huawei/extra/build/build_script/kirin_kernel_release/kernel/block/hisi-blk-iosched-ufs-mq.c:602:32
	add	x0, x19, #168           // =168
	.loc	2 602 2 is_stmt 0       // /mnt/disk/jenkins/workspace/chipset_10.1.0_release_5G/opensource/component_code/vendor/huawei/extra/build/build_script/kirin_kernel_release/kernel/block/hisi-blk-iosched-ufs-mq.c:602:2
	bl	sbitmap_queue_wake_all
	.loc	2 603 2 is_stmt 1       // /mnt/disk/jenkins/workspace/chipset_10.1.0_release_5G/opensource/component_code/vendor/huawei/extra/build/build_script/kirin_kernel_release/kernel/block/hisi-blk-iosched-ufs-mq.c:603:2
	ldp	x29, x30, [sp, #16]     // 16-byte Folded Reload
	mov	w0, wzr
	ldr	x19, [sp], #32          // 8-byte Folded Reload
.Ltmp281:
	ret
.Ltmp282:
.Lfunc_end9:
	.size	ufs_mq_tag_wakeup_all, .Lfunc_end9-ufs_mq_tag_wakeup_all
	.cfi_endproc
                                        // -- End function
	.section	.text.ufs_mq_sync_burst_check_timer_expire,"ax",@progbits
	.hidden	ufs_mq_sync_burst_check_timer_expire // -- Begin function ufs_mq_sync_burst_check_timer_expire
	.globl	ufs_mq_sync_burst_check_timer_expire
	.p2align	2
	.type	ufs_mq_sync_burst_check_timer_expire,@function
ufs_mq_sync_burst_check_timer_expire:   // @ufs_mq_sync_burst_check_timer_expire
.Lfunc_begin10:
	.loc	2 717 0                 // /mnt/disk/jenkins/workspace/chipset_10.1.0_release_5G/opensource/component_code/vendor/huawei/extra/build/build_script/kirin_kernel_release/kernel/block/hisi-blk-iosched-ufs-mq.c:717:0
	.cfi_startproc
// %bb.0:
	stp	x20, x19, [sp, #-32]!   // 16-byte Folded Spill
	stp	x29, x30, [sp, #16]     // 16-byte Folded Spill
	add	x29, sp, #16            // =16
	.cfi_def_cfa w29, 16
	.cfi_offset w30, -8
	.cfi_offset w29, -16
	.cfi_offset w19, -24
	.cfi_offset w20, -32
	//DEBUG_VALUE: ufs_mq_sync_burst_check_timer_expire:data <- $x0
	mov	x19, x0
.Ltmp283:
	//DEBUG_VALUE: ufs_mq_sync_burst_check_timer_expire:restart_timer <- 1
	//DEBUG_VALUE: ufs_mq_sync_burst_check_timer_expire:data <- $x19
	.loc	2 719 22 prologue_end   // /mnt/disk/jenkins/workspace/chipset_10.1.0_release_5G/opensource/component_code/vendor/huawei/extra/build/build_script/kirin_kernel_release/kernel/block/hisi-blk-iosched-ufs-mq.c:719:22
	bl	ktime_get
.Ltmp284:
	.loc	154 186 2               // /mnt/disk/jenkins/workspace/chipset_10.1.0_release_5G/opensource/component_code/vendor/huawei/extra/build/build_script/kirin_kernel_release/kernel/include/linux/compiler.h:186:2
	ldr	w8, [x19, #240]
.Ltmp285:
	.loc	2 723 2                 // /mnt/disk/jenkins/workspace/chipset_10.1.0_release_5G/opensource/component_code/vendor/huawei/extra/build/build_script/kirin_kernel_release/kernel/block/hisi-blk-iosched-ufs-mq.c:723:2
	sub	w8, w8, #1              // =1
	cmp	w8, #1                  // =1
.Ltmp286:
	//DEBUG_VALUE: __read_once_size:p <- [DW_OP_plus_uconst 240, DW_OP_stack_value] $x19
	//DEBUG_VALUE: __write_once_size:p <- [DW_OP_plus_uconst 240, DW_OP_stack_value] $x19
	//DEBUG_VALUE: __read_once_size:p <- [DW_OP_plus_uconst 240, DW_OP_stack_value] $x19
	//DEBUG_VALUE: __write_once_size:p <- [DW_OP_plus_uconst 240, DW_OP_stack_value] $x19
	//DEBUG_VALUE: __write_once_size:p <- [DW_OP_plus_uconst 240, DW_OP_stack_value] $x19
	//DEBUG_VALUE: __read_once_size:p <- [DW_OP_plus_uconst 240, DW_OP_stack_value] $x19
	//DEBUG_VALUE: __write_once_size:p <- [DW_OP_plus_uconst 240, DW_OP_stack_value] $x19
	//DEBUG_VALUE: __write_once_size:p <- [DW_OP_plus_uconst 240, DW_OP_stack_value] $x19
	//DEBUG_VALUE: __write_once_size:p <- [DW_OP_plus_uconst 240, DW_OP_stack_value] $x19
	//DEBUG_VALUE: __read_once_size:size <- 4
	//DEBUG_VALUE: __read_once_size:res <- undef
	//DEBUG_VALUE: ufs_mq_sync_burst_check_timer_expire:sched_ds_lld <- $x19
	//DEBUG_VALUE: busrt_mode_duration_greater_than:sched_ds_lld <- $x19
	//DEBUG_VALUE: io_submit_interval_less_than:sched_ds_lld <- $x19
	//DEBUG_VALUE: ufs_mq_burst_mode_calc_at_sync_io_continue:sched_ds_lld <- $x19
	//DEBUG_VALUE: ufs_mq_burst_mode_calc_at_sync_io_pause:sched_ds_lld <- $x19
	//DEBUG_VALUE: last_sync_io_complete_greater_than:sched_ds_lld <- $x19
	//DEBUG_VALUE: io_submit_interval_greater_than:sched_ds_lld <- $x19
	//DEBUG_VALUE: last_sync_io_complete_greater_than:sched_ds_lld <- $x19
	//DEBUG_VALUE: ufs_mq_sync_burst_check_timer_expire:now_ktime <- $x0
	//DEBUG_VALUE: busrt_mode_duration_greater_than:base <- $x0
	//DEBUG_VALUE: ktime_after:cmp1 <- $x0
	//DEBUG_VALUE: ktime_compare:cmp1 <- $x0
	//DEBUG_VALUE: io_submit_interval_less_than:base <- $x0
	//DEBUG_VALUE: ktime_before:cmp1 <- $x0
	//DEBUG_VALUE: ktime_compare:cmp1 <- $x0
	b.hi	.LBB10_3
.Ltmp287:
// %bb.1:
	//DEBUG_VALUE: ktime_compare:cmp1 <- $x0
	//DEBUG_VALUE: ktime_after:cmp1 <- $x0
	//DEBUG_VALUE: busrt_mode_duration_greater_than:base <- $x0
	//DEBUG_VALUE: ufs_mq_sync_burst_check_timer_expire:now_ktime <- $x0
	//DEBUG_VALUE: busrt_mode_duration_greater_than:sched_ds_lld <- $x19
	//DEBUG_VALUE: ufs_mq_sync_burst_check_timer_expire:sched_ds_lld <- $x19
	//DEBUG_VALUE: ufs_mq_sync_burst_check_timer_expire:data <- $x19
	//DEBUG_VALUE: busrt_mode_duration_greater_than:msec <- 5000
	.loc	2 660 36                // /mnt/disk/jenkins/workspace/chipset_10.1.0_release_5G/opensource/component_code/vendor/huawei/extra/build/build_script/kirin_kernel_release/kernel/block/hisi-blk-iosched-ufs-mq.c:660:36
	ldr	x8, [x19, #160]
	mov	x9, #61952
	movk	x9, #10757, lsl #16
	movk	x9, #1, lsl #32
.Ltmp288:
	//DEBUG_VALUE: ktime_add_ms:msec <- 5000
	//DEBUG_VALUE: ktime_add_ms:kt <- $x8
	.loc	27 200 9                // /mnt/disk/jenkins/workspace/chipset_10.1.0_release_5G/opensource/component_code/vendor/huawei/extra/build/build_script/kirin_kernel_release/kernel/include/linux/ktime.h:200:9
	add	x8, x8, x9
.Ltmp289:
	//DEBUG_VALUE: ktime_compare:cmp2 <- $x8
	//DEBUG_VALUE: ktime_after:cmp2 <- $x8
	.loc	2 726 7                 // /mnt/disk/jenkins/workspace/chipset_10.1.0_release_5G/opensource/component_code/vendor/huawei/extra/build/build_script/kirin_kernel_release/kernel/block/hisi-blk-iosched-ufs-mq.c:726:7
	cmp	x8, x0
	b.ge	.LBB10_3
.Ltmp290:
// %bb.2:
	//DEBUG_VALUE: ufs_mq_sync_burst_check_timer_expire:now_ktime <- $x0
	//DEBUG_VALUE: ufs_mq_sync_burst_check_timer_expire:sched_ds_lld <- $x19
	//DEBUG_VALUE: ufs_mq_sync_burst_check_timer_expire:data <- $x19
	//DEBUG_VALUE: __write_once_size:res <- undef
	.loc	2 0 7 is_stmt 0         // /mnt/disk/jenkins/workspace/chipset_10.1.0_release_5G/opensource/component_code/vendor/huawei/extra/build/build_script/kirin_kernel_release/kernel/block/hisi-blk-iosched-ufs-mq.c:0:7
	orr	w8, wzr, #0x3
.Ltmp291:
	//DEBUG_VALUE: __write_once_size:size <- 4
	.loc	154 212 31 is_stmt 1    // /mnt/disk/jenkins/workspace/chipset_10.1.0_release_5G/opensource/component_code/vendor/huawei/extra/build/build_script/kirin_kernel_release/kernel/include/linux/compiler.h:212:31
	str	w8, [x19, #240]
.Ltmp292:
.LBB10_3:
	//DEBUG_VALUE: ufs_mq_sync_burst_check_timer_expire:now_ktime <- $x0
	//DEBUG_VALUE: ufs_mq_sync_burst_check_timer_expire:sched_ds_lld <- $x19
	//DEBUG_VALUE: ufs_mq_sync_burst_check_timer_expire:data <- $x19
	.loc	2 628 30                // /mnt/disk/jenkins/workspace/chipset_10.1.0_release_5G/opensource/component_code/vendor/huawei/extra/build/build_script/kirin_kernel_release/kernel/block/hisi-blk-iosched-ufs-mq.c:628:30
	ldr	x9, [x19, #152]
	mov	w20, #38528
.Ltmp293:
	.loc	2 0 0 is_stmt 0         // /mnt/disk/jenkins/workspace/chipset_10.1.0_release_5G/opensource/component_code/vendor/huawei/extra/build/build_script/kirin_kernel_release/kernel/block/hisi-blk-iosched-ufs-mq.c:0:0
	ldr	w8, [x19, #240]
.Ltmp294:
	//DEBUG_VALUE: ktime_add_ms:msec <- 10
	//DEBUG_VALUE: ktime_add_ms:kt <- $x9
	movk	w20, #152, lsl #16
.Ltmp295:
	//DEBUG_VALUE: io_submit_interval_less_than:msec <- 10
	.loc	27 200 9 is_stmt 1      // /mnt/disk/jenkins/workspace/chipset_10.1.0_release_5G/opensource/component_code/vendor/huawei/extra/build/build_script/kirin_kernel_release/kernel/include/linux/ktime.h:200:9
	add	x9, x9, x20
.Ltmp296:
	//DEBUG_VALUE: ktime_compare:cmp2 <- $x9
	//DEBUG_VALUE: ktime_before:cmp2 <- $x9
	//DEBUG_VALUE: io_submit_interval_less_than:msec <- 10
	.loc	2 733 6                 // /mnt/disk/jenkins/workspace/chipset_10.1.0_release_5G/opensource/component_code/vendor/huawei/extra/build/build_script/kirin_kernel_release/kernel/block/hisi-blk-iosched-ufs-mq.c:733:6
	cmp	x9, x0
	b.le	.LBB10_7
.Ltmp297:
// %bb.4:
	//DEBUG_VALUE: ufs_mq_sync_burst_check_timer_expire:now_ktime <- $x0
	//DEBUG_VALUE: ufs_mq_sync_burst_check_timer_expire:sched_ds_lld <- $x19
	//DEBUG_VALUE: ufs_mq_sync_burst_check_timer_expire:data <- $x19
	.loc	2 667 2                 // /mnt/disk/jenkins/workspace/chipset_10.1.0_release_5G/opensource/component_code/vendor/huawei/extra/build/build_script/kirin_kernel_release/kernel/block/hisi-blk-iosched-ufs-mq.c:667:2
	cmp	w8, #3                  // =3
.Ltmp298:
	//DEBUG_VALUE: __read_once_size:size <- 4
	//DEBUG_VALUE: __read_once_size:res <- undef
	b.eq	.LBB10_11
.Ltmp299:
// %bb.5:
	//DEBUG_VALUE: ufs_mq_sync_burst_check_timer_expire:now_ktime <- $x0
	//DEBUG_VALUE: ufs_mq_sync_burst_check_timer_expire:sched_ds_lld <- $x19
	//DEBUG_VALUE: ufs_mq_sync_burst_check_timer_expire:data <- $x19
	cmp	w8, #1                  // =1
	b.ne	.LBB10_18
.Ltmp300:
// %bb.6:
	//DEBUG_VALUE: ufs_mq_sync_burst_check_timer_expire:now_ktime <- $x0
	//DEBUG_VALUE: ufs_mq_sync_burst_check_timer_expire:sched_ds_lld <- $x19
	//DEBUG_VALUE: ufs_mq_sync_burst_check_timer_expire:data <- $x19
	//DEBUG_VALUE: __write_once_size:res <- undef
	.loc	2 0 2 is_stmt 0         // /mnt/disk/jenkins/workspace/chipset_10.1.0_release_5G/opensource/component_code/vendor/huawei/extra/build/build_script/kirin_kernel_release/kernel/block/hisi-blk-iosched-ufs-mq.c:0:2
	orr	w8, wzr, #0x2
	b	.LBB10_17
.Ltmp301:
.LBB10_7:
	//DEBUG_VALUE: ufs_mq_sync_burst_check_timer_expire:now_ktime <- $x0
	//DEBUG_VALUE: ufs_mq_sync_burst_check_timer_expire:sched_ds_lld <- $x19
	//DEBUG_VALUE: ufs_mq_sync_burst_check_timer_expire:data <- $x19
	.loc	2 688 2 is_stmt 1       // /mnt/disk/jenkins/workspace/chipset_10.1.0_release_5G/opensource/component_code/vendor/huawei/extra/build/build_script/kirin_kernel_release/kernel/block/hisi-blk-iosched-ufs-mq.c:688:2
	cmp	w8, #3                  // =3
.Ltmp302:
	//DEBUG_VALUE: __read_once_size:size <- 4
	//DEBUG_VALUE: __read_once_size:res <- undef
	//DEBUG_VALUE: ufs_mq_burst_mode_calc_at_sync_io_pause:burst_mode <- 1
	b.eq	.LBB10_12
.Ltmp303:
// %bb.8:
	//DEBUG_VALUE: ufs_mq_sync_burst_check_timer_expire:now_ktime <- $x0
	//DEBUG_VALUE: ufs_mq_sync_burst_check_timer_expire:sched_ds_lld <- $x19
	//DEBUG_VALUE: ufs_mq_sync_burst_check_timer_expire:data <- $x19
	cmp	w8, #2                  // =2
	b.eq	.LBB10_15
.Ltmp304:
// %bb.9:
	//DEBUG_VALUE: ufs_mq_sync_burst_check_timer_expire:now_ktime <- $x0
	//DEBUG_VALUE: ufs_mq_sync_burst_check_timer_expire:sched_ds_lld <- $x19
	//DEBUG_VALUE: ufs_mq_sync_burst_check_timer_expire:data <- $x19
	cmp	w8, #1                  // =1
	b.ne	.LBB10_18
.Ltmp305:
// %bb.10:
	//DEBUG_VALUE: ufs_mq_sync_burst_check_timer_expire:now_ktime <- $x0
	//DEBUG_VALUE: ufs_mq_sync_burst_check_timer_expire:sched_ds_lld <- $x19
	//DEBUG_VALUE: ufs_mq_sync_burst_check_timer_expire:data <- $x19
	.loc	2 691 8                 // /mnt/disk/jenkins/workspace/chipset_10.1.0_release_5G/opensource/component_code/vendor/huawei/extra/build/build_script/kirin_kernel_release/kernel/block/hisi-blk-iosched-ufs-mq.c:691:8
	bl	ktime_get
.Ltmp306:
	//DEBUG_VALUE: last_sync_io_complete_greater_than:msec <- 30
	//DEBUG_VALUE: last_sync_io_complete_greater_than:base <- $x0
	//DEBUG_VALUE: ktime_after:cmp1 <- $x0
	//DEBUG_VALUE: ktime_compare:cmp1 <- $x0
	.loc	2 644 30                // /mnt/disk/jenkins/workspace/chipset_10.1.0_release_5G/opensource/component_code/vendor/huawei/extra/build/build_script/kirin_kernel_release/kernel/block/hisi-blk-iosched-ufs-mq.c:644:30
	ldr	x8, [x19, #168]
	mov	w9, #50048
	movk	w9, #457, lsl #16
	b	.LBB10_13
.Ltmp307:
.LBB10_11:
	//DEBUG_VALUE: ufs_mq_sync_burst_check_timer_expire:now_ktime <- $x0
	//DEBUG_VALUE: ufs_mq_sync_burst_check_timer_expire:sched_ds_lld <- $x19
	//DEBUG_VALUE: ufs_mq_sync_burst_check_timer_expire:data <- $x19
	//DEBUG_VALUE: __read_once_size:res <- undef
	//DEBUG_VALUE: __read_once_size:size <- 4
	//DEBUG_VALUE: __read_once_size:p <- [DW_OP_plus_uconst 20, DW_OP_stack_value] $x19
	.loc	154 186 2               // /mnt/disk/jenkins/workspace/chipset_10.1.0_release_5G/opensource/component_code/vendor/huawei/extra/build/build_script/kirin_kernel_release/kernel/include/linux/compiler.h:186:2
	ldr	w8, [x19, #20]
	cbnz	w8, .LBB10_18
	b	.LBB10_16
.Ltmp308:
.LBB10_12:
	//DEBUG_VALUE: ufs_mq_sync_burst_check_timer_expire:now_ktime <- $x0
	//DEBUG_VALUE: ufs_mq_sync_burst_check_timer_expire:sched_ds_lld <- $x19
	//DEBUG_VALUE: ufs_mq_sync_burst_check_timer_expire:data <- $x19
	.loc	2 705 8                 // /mnt/disk/jenkins/workspace/chipset_10.1.0_release_5G/opensource/component_code/vendor/huawei/extra/build/build_script/kirin_kernel_release/kernel/block/hisi-blk-iosched-ufs-mq.c:705:8
	bl	ktime_get
.Ltmp309:
	//DEBUG_VALUE: last_sync_io_complete_greater_than:msec <- 20
	//DEBUG_VALUE: last_sync_io_complete_greater_than:base <- $x0
	//DEBUG_VALUE: ktime_after:cmp1 <- $x0
	//DEBUG_VALUE: ktime_compare:cmp1 <- $x0
	.loc	2 644 30                // /mnt/disk/jenkins/workspace/chipset_10.1.0_release_5G/opensource/component_code/vendor/huawei/extra/build/build_script/kirin_kernel_release/kernel/block/hisi-blk-iosched-ufs-mq.c:644:30
	ldr	x8, [x19, #168]
	mov	w9, #11520
	movk	w9, #305, lsl #16
.Ltmp310:
.LBB10_13:
	//DEBUG_VALUE: ufs_mq_sync_burst_check_timer_expire:sched_ds_lld <- $x19
	//DEBUG_VALUE: ufs_mq_sync_burst_check_timer_expire:data <- $x19
	//DEBUG_VALUE: ktime_add_ms:msec <- 30
	//DEBUG_VALUE: ktime_add_ms:kt <- $x8
	.loc	2 0 0 is_stmt 0         // /mnt/disk/jenkins/workspace/chipset_10.1.0_release_5G/opensource/component_code/vendor/huawei/extra/build/build_script/kirin_kernel_release/kernel/block/hisi-blk-iosched-ufs-mq.c:0:0
	add	x8, x8, x9
.Ltmp311:
	//DEBUG_VALUE: ktime_compare:cmp2 <- $x8
	//DEBUG_VALUE: ktime_after:cmp2 <- $x8
	cmp	x8, x0
	b.ge	.LBB10_18
.Ltmp312:
// %bb.14:
	//DEBUG_VALUE: ufs_mq_sync_burst_check_timer_expire:sched_ds_lld <- $x19
	//DEBUG_VALUE: ufs_mq_sync_burst_check_timer_expire:data <- $x19
	//DEBUG_VALUE: __write_once_size:res <- undef
	//DEBUG_VALUE: __write_once_size:size <- 4
	str	wzr, [x19, #240]
.Ltmp313:
	//DEBUG_VALUE: ufs_mq_burst_mode_calc_at_sync_io_pause:burst_mode <- 0
	b	.LBB10_19
.Ltmp314:
.LBB10_15:
	//DEBUG_VALUE: ufs_mq_sync_burst_check_timer_expire:now_ktime <- $x0
	//DEBUG_VALUE: ufs_mq_sync_burst_check_timer_expire:sched_ds_lld <- $x19
	//DEBUG_VALUE: ufs_mq_sync_burst_check_timer_expire:data <- $x19
	.loc	2 698 53 is_stmt 1      // /mnt/disk/jenkins/workspace/chipset_10.1.0_release_5G/opensource/component_code/vendor/huawei/extra/build/build_script/kirin_kernel_release/kernel/block/hisi-blk-iosched-ufs-mq.c:698:53
	bl	ktime_get
.Ltmp315:
	//DEBUG_VALUE: io_submit_interval_greater_than:base <- $x0
	//DEBUG_VALUE: io_submit_interval_greater_than:msec <- 10
	//DEBUG_VALUE: ktime_after:cmp1 <- $x0
	//DEBUG_VALUE: ktime_compare:cmp1 <- $x0
	.loc	2 636 30                // /mnt/disk/jenkins/workspace/chipset_10.1.0_release_5G/opensource/component_code/vendor/huawei/extra/build/build_script/kirin_kernel_release/kernel/block/hisi-blk-iosched-ufs-mq.c:636:30
	ldr	x8, [x19, #152]
.Ltmp316:
	//DEBUG_VALUE: ktime_add_ms:kt <- $x8
	//DEBUG_VALUE: ktime_add_ms:msec <- 10
	.loc	27 200 9                // /mnt/disk/jenkins/workspace/chipset_10.1.0_release_5G/opensource/component_code/vendor/huawei/extra/build/build_script/kirin_kernel_release/kernel/include/linux/ktime.h:200:9
	add	x8, x8, x20
.Ltmp317:
	//DEBUG_VALUE: ktime_compare:cmp2 <- $x8
	//DEBUG_VALUE: ktime_after:cmp2 <- $x8
	.loc	2 698 7                 // /mnt/disk/jenkins/workspace/chipset_10.1.0_release_5G/opensource/component_code/vendor/huawei/extra/build/build_script/kirin_kernel_release/kernel/block/hisi-blk-iosched-ufs-mq.c:698:7
	cmp	x8, x0
	b.ge	.LBB10_18
.Ltmp318:
.LBB10_16:
	//DEBUG_VALUE: ufs_mq_sync_burst_check_timer_expire:sched_ds_lld <- $x19
	//DEBUG_VALUE: ufs_mq_sync_burst_check_timer_expire:data <- $x19
	//DEBUG_VALUE: __write_once_size:res <- undef
	.loc	2 0 7 is_stmt 0         // /mnt/disk/jenkins/workspace/chipset_10.1.0_release_5G/opensource/component_code/vendor/huawei/extra/build/build_script/kirin_kernel_release/kernel/block/hisi-blk-iosched-ufs-mq.c:0:7
	orr	w8, wzr, #0x1
.Ltmp319:
.LBB10_17:
	//DEBUG_VALUE: ufs_mq_sync_burst_check_timer_expire:sched_ds_lld <- $x19
	//DEBUG_VALUE: ufs_mq_sync_burst_check_timer_expire:data <- $x19
	//DEBUG_VALUE: __write_once_size:size <- 4
	str	w8, [x19, #240]
.Ltmp320:
.LBB10_18:
	//DEBUG_VALUE: ufs_mq_sync_burst_check_timer_expire:sched_ds_lld <- $x19
	//DEBUG_VALUE: ufs_mq_sync_burst_check_timer_expire:data <- $x19
	.loc	2 743 4 is_stmt 1       // /mnt/disk/jenkins/workspace/chipset_10.1.0_release_5G/opensource/component_code/vendor/huawei/extra/build/build_script/kirin_kernel_release/kernel/block/hisi-blk-iosched-ufs-mq.c:743:4
	adrp	x8, jiffies
	ldr	x20, [x8, :lo12:jiffies]
.Ltmp321:
	.file	155 "/mnt/disk/jenkins/workspace/chipset_10.1.0_release_5G/opensource/component_code/vendor/huawei/extra/build/build_script/kirin_kernel_release/kernel/include/linux/jiffies.h"
	.loc	155 370 10              // /mnt/disk/jenkins/workspace/chipset_10.1.0_release_5G/opensource/component_code/vendor/huawei/extra/build/build_script/kirin_kernel_release/kernel/include/linux/jiffies.h:370:10
	mov	w0, #10
.Ltmp322:
	.loc	2 742 28                // /mnt/disk/jenkins/workspace/chipset_10.1.0_release_5G/opensource/component_code/vendor/huawei/extra/build/build_script/kirin_kernel_release/kernel/block/hisi-blk-iosched-ufs-mq.c:742:28
	add	x19, x19, #192          // =192
.Ltmp323:
	//DEBUG_VALUE: msecs_to_jiffies:m <- 10
	.loc	155 370 10              // /mnt/disk/jenkins/workspace/chipset_10.1.0_release_5G/opensource/component_code/vendor/huawei/extra/build/build_script/kirin_kernel_release/kernel/include/linux/jiffies.h:370:10
	bl	__msecs_to_jiffies
.Ltmp324:
	.loc	2 743 12                // /mnt/disk/jenkins/workspace/chipset_10.1.0_release_5G/opensource/component_code/vendor/huawei/extra/build/build_script/kirin_kernel_release/kernel/block/hisi-blk-iosched-ufs-mq.c:743:12
	add	x1, x0, x20
	.loc	2 742 3                 // /mnt/disk/jenkins/workspace/chipset_10.1.0_release_5G/opensource/component_code/vendor/huawei/extra/build/build_script/kirin_kernel_release/kernel/block/hisi-blk-iosched-ufs-mq.c:742:3
	mov	x0, x19
	bl	mod_timer
.Ltmp325:
.LBB10_19:
	.loc	2 745 1                 // /mnt/disk/jenkins/workspace/chipset_10.1.0_release_5G/opensource/component_code/vendor/huawei/extra/build/build_script/kirin_kernel_release/kernel/block/hisi-blk-iosched-ufs-mq.c:745:1
	ldp	x29, x30, [sp, #16]     // 16-byte Folded Reload
	ldp	x20, x19, [sp], #32     // 16-byte Folded Reload
	ret
.Ltmp326:
.Lfunc_end10:
	.size	ufs_mq_sync_burst_check_timer_expire, .Lfunc_end10-ufs_mq_sync_burst_check_timer_expire
	.cfi_endproc
                                        // -- End function
	.section	.text.hisi_blk_bio_is_cp,"ax",@progbits
	.hidden	hisi_blk_bio_is_cp      // -- Begin function hisi_blk_bio_is_cp
	.globl	hisi_blk_bio_is_cp
	.p2align	2
	.type	hisi_blk_bio_is_cp,@function
hisi_blk_bio_is_cp:                     // @hisi_blk_bio_is_cp
.Lfunc_begin11:
	.loc	2 784 0                 // /mnt/disk/jenkins/workspace/chipset_10.1.0_release_5G/opensource/component_code/vendor/huawei/extra/build/build_script/kirin_kernel_release/kernel/block/hisi-blk-iosched-ufs-mq.c:784:0
	.cfi_startproc
// %bb.0:
	//DEBUG_VALUE: hisi_blk_bio_is_cp:bio <- $x0
	//DEBUG_VALUE: hisi_blk_bio_is_cp:bio <- $x0
	.loc	2 785 11 prologue_end   // /mnt/disk/jenkins/workspace/chipset_10.1.0_release_5G/opensource/component_code/vendor/huawei/extra/build/build_script/kirin_kernel_release/kernel/block/hisi-blk-iosched-ufs-mq.c:785:11
	ldr	w8, [x0, #16]
	mov	w9, #4096
	movk	w9, #64, lsl #16
	.loc	2 785 18 is_stmt 0      // /mnt/disk/jenkins/workspace/chipset_10.1.0_release_5G/opensource/component_code/vendor/huawei/extra/build/build_script/kirin_kernel_release/kernel/block/hisi-blk-iosched-ufs-mq.c:785:18
	tst	w8, w9
	cset	w0, ne
.Ltmp327:
	.loc	2 789 1 is_stmt 1       // /mnt/disk/jenkins/workspace/chipset_10.1.0_release_5G/opensource/component_code/vendor/huawei/extra/build/build_script/kirin_kernel_release/kernel/block/hisi-blk-iosched-ufs-mq.c:789:1
	ret
.Ltmp328:
.Lfunc_end11:
	.size	hisi_blk_bio_is_cp, .Lfunc_end11-hisi_blk_bio_is_cp
	.cfi_endproc
                                        // -- End function
	.section	.text.ufs_mq_merge_queue_io,"ax",@progbits
	.hidden	ufs_mq_merge_queue_io   // -- Begin function ufs_mq_merge_queue_io
	.globl	ufs_mq_merge_queue_io
	.p2align	2
	.type	ufs_mq_merge_queue_io,@function
ufs_mq_merge_queue_io:                  // @ufs_mq_merge_queue_io
.Lfunc_begin12:
	.loc	2 1290 0                // /mnt/disk/jenkins/workspace/chipset_10.1.0_release_5G/opensource/component_code/vendor/huawei/extra/build/build_script/kirin_kernel_release/kernel/block/hisi-blk-iosched-ufs-mq.c:1290:0
	.cfi_startproc
// %bb.0:
	str	x25, [sp, #-80]!        // 8-byte Folded Spill
	stp	x24, x23, [sp, #16]     // 16-byte Folded Spill
	stp	x22, x21, [sp, #32]     // 16-byte Folded Spill
	stp	x20, x19, [sp, #48]     // 16-byte Folded Spill
	stp	x29, x30, [sp, #64]     // 16-byte Folded Spill
	add	x29, sp, #64            // =64
	.cfi_def_cfa w29, 16
	.cfi_offset w30, -8
	.cfi_offset w29, -16
	.cfi_offset w19, -24
	.cfi_offset w20, -32
	.cfi_offset w21, -40
	.cfi_offset w22, -48
	.cfi_offset w23, -56
	.cfi_offset w24, -64
	.cfi_offset w25, -80
	//DEBUG_VALUE: ufs_mq_merge_queue_io:hctx <- $x0
	//DEBUG_VALUE: ufs_mq_merge_queue_io:ctx <- $x1
	//DEBUG_VALUE: ufs_mq_merge_queue_io:rq <- $x2
	//DEBUG_VALUE: ufs_mq_merge_queue_io:bio <- $x3
.Ltmp329:
	//DEBUG_VALUE: bio_mergeable:bio <- $x3
	//DEBUG_VALUE: blk_rq_is_scsi:rq <- $x2
	//DEBUG_VALUE: spin_lock:lock <- $x1
	//DEBUG_VALUE: ufs_mq_attempt_merge:bio <- $x3
	//DEBUG_VALUE: spin_unlock:lock <- $x1
	//DEBUG_VALUE: ufs_mq_bio_to_request:rq <- $x2
	//DEBUG_VALUE: ufs_mq_bio_to_request:bio <- $x3
	//DEBUG_VALUE: ufs_mq_bio_to_request:rq <- $x2
	//DEBUG_VALUE: ufs_mq_bio_to_request:bio <- $x3
	//DEBUG_VALUE: spin_lock:lock <- $x1
	.loc	129 104 11 prologue_end // /mnt/disk/jenkins/workspace/chipset_10.1.0_release_5G/opensource/component_code/vendor/huawei/extra/build/build_script/kirin_kernel_release/kernel/include/linux/bio.h:104:11
	ldr	w8, [x3, #16]
	mov	w9, #16384
	movk	w9, #12, lsl #16
	mov	x22, x3
.Ltmp330:
	//DEBUG_VALUE: ufs_mq_bio_to_request:bio <- $x22
	//DEBUG_VALUE: ufs_mq_bio_to_request:bio <- $x22
	//DEBUG_VALUE: ufs_mq_attempt_merge:bio <- $x22
	.loc	129 0 11 is_stmt 0      // /mnt/disk/jenkins/workspace/chipset_10.1.0_release_5G/opensource/component_code/vendor/huawei/extra/build/build_script/kirin_kernel_release/kernel/include/linux/bio.h:0:11
	mov	x20, x2
.Ltmp331:
	//DEBUG_VALUE: ufs_mq_bio_to_request:rq <- $x20
	//DEBUG_VALUE: ufs_mq_bio_to_request:rq <- $x20
	//DEBUG_VALUE: blk_rq_is_scsi:rq <- $x20
	mov	x19, x1
.Ltmp332:
	//DEBUG_VALUE: spin_lock:lock <- $x19
	//DEBUG_VALUE: spin_unlock:lock <- $x19
	//DEBUG_VALUE: spin_lock:lock <- $x19
	//DEBUG_VALUE: bio_mergeable:bio <- $x22
	//DEBUG_VALUE: ufs_mq_merge_queue_io:bio <- $x22
	//DEBUG_VALUE: ufs_mq_merge_queue_io:rq <- $x20
	//DEBUG_VALUE: ufs_mq_merge_queue_io:ctx <- $x19
	.loc	129 104 18              // /mnt/disk/jenkins/workspace/chipset_10.1.0_release_5G/opensource/component_code/vendor/huawei/extra/build/build_script/kirin_kernel_release/kernel/include/linux/bio.h:104:18
	tst	w8, w9
	mov	x21, x0
.Ltmp333:
	//DEBUG_VALUE: ufs_mq_merge_queue_io:hctx <- $x21
	.loc	2 1293 26 is_stmt 1     // /mnt/disk/jenkins/workspace/chipset_10.1.0_release_5G/opensource/component_code/vendor/huawei/extra/build/build_script/kirin_kernel_release/kernel/block/hisi-blk-iosched-ufs-mq.c:1293:26
	b.ne	.LBB12_2
.Ltmp334:
// %bb.1:
	//DEBUG_VALUE: ufs_mq_merge_queue_io:hctx <- $x21
	//DEBUG_VALUE: ufs_mq_merge_queue_io:ctx <- $x19
	//DEBUG_VALUE: ufs_mq_merge_queue_io:rq <- $x20
	//DEBUG_VALUE: ufs_mq_merge_queue_io:bio <- $x22
	//DEBUG_VALUE: blk_rq_is_scsi:rq <- $x20
	.loc	3 350 24                // /mnt/disk/jenkins/workspace/chipset_10.1.0_release_5G/opensource/component_code/vendor/huawei/extra/build/build_script/kirin_kernel_release/kernel/include/linux/blkdev.h:350:24
	ldr	w8, [x20, #84]
	and	w8, w8, #0xfe
.Ltmp335:
	//DEBUG_VALUE: blk_op_is_scsi:op <- $w8
	.loc	3 340 30                // /mnt/disk/jenkins/workspace/chipset_10.1.0_release_5G/opensource/component_code/vendor/huawei/extra/build/build_script/kirin_kernel_release/kernel/include/linux/blkdev.h:340:30
	orr	w8, w8, #0x1
.Ltmp336:
	.loc	2 1293 6                // /mnt/disk/jenkins/workspace/chipset_10.1.0_release_5G/opensource/component_code/vendor/huawei/extra/build/build_script/kirin_kernel_release/kernel/block/hisi-blk-iosched-ufs-mq.c:1293:6
	cmp	w8, #33                 // =33
	b.ne	.LBB12_5
.Ltmp337:
.LBB12_2:
	//DEBUG_VALUE: ufs_mq_merge_queue_io:hctx <- $x21
	//DEBUG_VALUE: ufs_mq_merge_queue_io:ctx <- $x19
	//DEBUG_VALUE: ufs_mq_merge_queue_io:rq <- $x20
	//DEBUG_VALUE: ufs_mq_merge_queue_io:bio <- $x22
	.loc	2 1252 2                // /mnt/disk/jenkins/workspace/chipset_10.1.0_release_5G/opensource/component_code/vendor/huawei/extra/build/build_script/kirin_kernel_release/kernel/block/hisi-blk-iosched-ufs-mq.c:1252:2
	mov	x0, x20
	mov	x1, x22
	bl	blk_init_request_from_bio
	.loc	2 1253 2                // /mnt/disk/jenkins/workspace/chipset_10.1.0_release_5G/opensource/component_code/vendor/huawei/extra/build/build_script/kirin_kernel_release/kernel/block/hisi-blk-iosched-ufs-mq.c:1253:2
	orr	w1, wzr, #0x1
	mov	x0, x20
	bl	blk_account_io_start
.Ltmp338:
	.file	156 "/mnt/disk/jenkins/workspace/chipset_10.1.0_release_5G/opensource/component_code/vendor/huawei/extra/build/build_script/kirin_kernel_release/kernel/include/linux/spinlock.h"
	.loc	156 317 2               // /mnt/disk/jenkins/workspace/chipset_10.1.0_release_5G/opensource/component_code/vendor/huawei/extra/build/build_script/kirin_kernel_release/kernel/include/linux/spinlock.h:317:2
	mov	x0, x19
	bl	_raw_spin_lock
.Ltmp339:
.LBB12_3:
	//DEBUG_VALUE: ufs_mq_merge_queue_io:hctx <- $x21
	//DEBUG_VALUE: ufs_mq_merge_queue_io:ctx <- $x19
	//DEBUG_VALUE: ufs_mq_merge_queue_io:rq <- $x20
	//DEBUG_VALUE: ufs_mq_merge_queue_io:bio <- $x22
	.loc	2 1297 35               // /mnt/disk/jenkins/workspace/chipset_10.1.0_release_5G/opensource/component_code/vendor/huawei/extra/build/build_script/kirin_kernel_release/kernel/block/hisi-blk-iosched-ufs-mq.c:1297:35
	ldr	x1, [x21, #192]
	.loc	2 1297 7 is_stmt 0      // /mnt/disk/jenkins/workspace/chipset_10.1.0_release_5G/opensource/component_code/vendor/huawei/extra/build/build_script/kirin_kernel_release/kernel/block/hisi-blk-iosched-ufs-mq.c:1297:7
	mov	x0, x20
	mov	w2, wzr
	bl	ufs_mq_req_insert
.Ltmp340:
	.loc	156 357 2 is_stmt 1     // /mnt/disk/jenkins/workspace/chipset_10.1.0_release_5G/opensource/component_code/vendor/huawei/extra/build/build_script/kirin_kernel_release/kernel/include/linux/spinlock.h:357:2
	mov	x0, x19
	bl	_raw_spin_unlock
.Ltmp341:
	.loc	2 0 0 is_stmt 0         // /mnt/disk/jenkins/workspace/chipset_10.1.0_release_5G/opensource/component_code/vendor/huawei/extra/build/build_script/kirin_kernel_release/kernel/block/hisi-blk-iosched-ufs-mq.c:0:0
	mov	w0, wzr
.Ltmp342:
.LBB12_4:
	//DEBUG_VALUE: ufs_mq_merge_queue_io:hctx <- $x21
	//DEBUG_VALUE: ufs_mq_merge_queue_io:ctx <- $x19
	//DEBUG_VALUE: ufs_mq_merge_queue_io:rq <- $x20
	//DEBUG_VALUE: ufs_mq_merge_queue_io:bio <- $x22
	.loc	2 1312 1 is_stmt 1      // /mnt/disk/jenkins/workspace/chipset_10.1.0_release_5G/opensource/component_code/vendor/huawei/extra/build/build_script/kirin_kernel_release/kernel/block/hisi-blk-iosched-ufs-mq.c:1312:1
	ldp	x29, x30, [sp, #64]     // 16-byte Folded Reload
	ldp	x20, x19, [sp, #48]     // 16-byte Folded Reload
.Ltmp343:
	ldp	x22, x21, [sp, #32]     // 16-byte Folded Reload
.Ltmp344:
	ldp	x24, x23, [sp, #16]     // 16-byte Folded Reload
	ldr	x25, [sp], #80          // 8-byte Folded Reload
	ret
.LBB12_5:
.Ltmp345:
	//DEBUG_VALUE: ufs_mq_merge_queue_io:hctx <- $x21
	//DEBUG_VALUE: ufs_mq_merge_queue_io:ctx <- $x19
	//DEBUG_VALUE: ufs_mq_merge_queue_io:rq <- $x20
	//DEBUG_VALUE: ufs_mq_merge_queue_io:bio <- $x22
	.loc	2 0 0 is_stmt 0         // /mnt/disk/jenkins/workspace/chipset_10.1.0_release_5G/opensource/component_code/vendor/huawei/extra/build/build_script/kirin_kernel_release/kernel/block/hisi-blk-iosched-ufs-mq.c:0:0
	ldr	x23, [x21, #192]
.Ltmp346:
	//DEBUG_VALUE: ufs_mq_merge_queue_io:q <- $x23
	.loc	156 317 2 is_stmt 1     // /mnt/disk/jenkins/workspace/chipset_10.1.0_release_5G/opensource/component_code/vendor/huawei/extra/build/build_script/kirin_kernel_release/kernel/include/linux/spinlock.h:317:2
	mov	x0, x19
	bl	_raw_spin_lock
.Ltmp347:
	//DEBUG_VALUE: ufs_mq_attempt_merge:merged <- 0
	//DEBUG_VALUE: ufs_mq_attempt_merge:q <- $x23
	.loc	2 1265 6                // /mnt/disk/jenkins/workspace/chipset_10.1.0_release_5G/opensource/component_code/vendor/huawei/extra/build/build_script/kirin_kernel_release/kernel/block/hisi-blk-iosched-ufs-mq.c:1265:6
	ldrb	w8, [x22, #17]
	tbnz	w8, #3, .LBB12_11
.Ltmp348:
// %bb.6:
	//DEBUG_VALUE: ufs_mq_attempt_merge:q <- $x23
	//DEBUG_VALUE: ufs_mq_merge_queue_io:q <- $x23
	//DEBUG_VALUE: ufs_mq_merge_queue_io:hctx <- $x21
	//DEBUG_VALUE: ufs_mq_merge_queue_io:ctx <- $x19
	//DEBUG_VALUE: ufs_mq_merge_queue_io:rq <- $x20
	//DEBUG_VALUE: ufs_mq_merge_queue_io:bio <- $x22
	.loc	2 1268 6                // /mnt/disk/jenkins/workspace/chipset_10.1.0_release_5G/opensource/component_code/vendor/huawei/extra/build/build_script/kirin_kernel_release/kernel/block/hisi-blk-iosched-ufs-mq.c:1268:6
	ldr	x8, [x23, #1800]
	cbz	x8, .LBB12_11
.Ltmp349:
// %bb.7:
	//DEBUG_VALUE: ufs_mq_attempt_merge:q <- $x23
	//DEBUG_VALUE: ufs_mq_merge_queue_io:q <- $x23
	//DEBUG_VALUE: ufs_mq_merge_queue_io:hctx <- $x21
	//DEBUG_VALUE: ufs_mq_merge_queue_io:ctx <- $x19
	//DEBUG_VALUE: ufs_mq_merge_queue_io:rq <- $x20
	//DEBUG_VALUE: ufs_mq_merge_queue_io:bio <- $x22
	ldr	x25, [x8, #200]
.Ltmp350:
	//DEBUG_VALUE: priv <- $x25
	.loc	2 1268 6 is_stmt 0      // /mnt/disk/jenkins/workspace/chipset_10.1.0_release_5G/opensource/component_code/vendor/huawei/extra/build/build_script/kirin_kernel_release/kernel/block/hisi-blk-iosched-ufs-mq.c:1268:6
	cbz	x25, .LBB12_11
.Ltmp351:
// %bb.8:
	//DEBUG_VALUE: priv <- $x25
	//DEBUG_VALUE: ufs_mq_attempt_merge:q <- $x23
	//DEBUG_VALUE: ufs_mq_merge_queue_io:q <- $x23
	//DEBUG_VALUE: ufs_mq_merge_queue_io:hctx <- $x21
	//DEBUG_VALUE: ufs_mq_merge_queue_io:ctx <- $x19
	//DEBUG_VALUE: ufs_mq_merge_queue_io:rq <- $x20
	//DEBUG_VALUE: ufs_mq_merge_queue_io:bio <- $x22
	.loc	2 1273 13 is_stmt 1     // /mnt/disk/jenkins/workspace/chipset_10.1.0_release_5G/opensource/component_code/vendor/huawei/extra/build/build_script/kirin_kernel_release/kernel/block/hisi-blk-iosched-ufs-mq.c:1273:13
	ldr	x8, [x25]
	.loc	2 1274 7                // /mnt/disk/jenkins/workspace/chipset_10.1.0_release_5G/opensource/component_code/vendor/huawei/extra/build/build_script/kirin_kernel_release/kernel/block/hisi-blk-iosched-ufs-mq.c:1274:7
	ldr	x8, [x8, #40]
.Ltmp352:
	.loc	2 1273 7                // /mnt/disk/jenkins/workspace/chipset_10.1.0_release_5G/opensource/component_code/vendor/huawei/extra/build/build_script/kirin_kernel_release/kernel/block/hisi-blk-iosched-ufs-mq.c:1273:7
	cbz	x8, .LBB12_11
.Ltmp353:
// %bb.9:
	//DEBUG_VALUE: priv <- $x25
	//DEBUG_VALUE: ufs_mq_attempt_merge:q <- $x23
	//DEBUG_VALUE: ufs_mq_merge_queue_io:q <- $x23
	//DEBUG_VALUE: ufs_mq_merge_queue_io:hctx <- $x21
	//DEBUG_VALUE: ufs_mq_merge_queue_io:ctx <- $x19
	//DEBUG_VALUE: ufs_mq_merge_queue_io:rq <- $x20
	//DEBUG_VALUE: ufs_mq_merge_queue_io:bio <- $x22
	.loc	2 0 0 is_stmt 0         // /mnt/disk/jenkins/workspace/chipset_10.1.0_release_5G/opensource/component_code/vendor/huawei/extra/build/build_script/kirin_kernel_release/kernel/block/hisi-blk-iosched-ufs-mq.c:0:0
	ldr	x8, [x23, #1792]
.Ltmp354:
	//DEBUG_VALUE: ufs_mq_attempt_merge:sched_ds <- $x8
	ldr	x8, [x8, #280]
.Ltmp355:
	//DEBUG_VALUE: ufs_mq_attempt_merge:sched_ds_lld <- $x8
	//DEBUG_VALUE: spinlock_check:lock <- [DW_OP_plus_uconst 120, DW_OP_stack_value] $x8
	//DEBUG_VALUE: spin_unlock_irqrestore:lock <- [DW_OP_plus_uconst 120, DW_OP_stack_value] $x8
	.loc	156 306 16 is_stmt 1    // /mnt/disk/jenkins/workspace/chipset_10.1.0_release_5G/opensource/component_code/vendor/huawei/extra/build/build_script/kirin_kernel_release/kernel/include/linux/spinlock.h:306:16
	add	x24, x8, #120           // =120
.Ltmp356:
	.loc	2 1275 4                // /mnt/disk/jenkins/workspace/chipset_10.1.0_release_5G/opensource/component_code/vendor/huawei/extra/build/build_script/kirin_kernel_release/kernel/block/hisi-blk-iosched-ufs-mq.c:1275:4
	mov	x0, x24
	bl	_raw_spin_lock_irqsave
.Ltmp357:
	.loc	2 1277 19               // /mnt/disk/jenkins/workspace/chipset_10.1.0_release_5G/opensource/component_code/vendor/huawei/extra/build/build_script/kirin_kernel_release/kernel/block/hisi-blk-iosched-ufs-mq.c:1277:19
	ldr	x8, [x25]
.Ltmp358:
	.loc	2 1275 4                // /mnt/disk/jenkins/workspace/chipset_10.1.0_release_5G/opensource/component_code/vendor/huawei/extra/build/build_script/kirin_kernel_release/kernel/block/hisi-blk-iosched-ufs-mq.c:1275:4
	mov	x25, x0
.Ltmp359:
	//DEBUG_VALUE: ufs_mq_attempt_merge:flags <- $x25
	.loc	2 1277 13               // /mnt/disk/jenkins/workspace/chipset_10.1.0_release_5G/opensource/component_code/vendor/huawei/extra/build/build_script/kirin_kernel_release/kernel/block/hisi-blk-iosched-ufs-mq.c:1277:13
	mov	x0, x22
	mov	x1, x23
	.loc	2 1278 9                // /mnt/disk/jenkins/workspace/chipset_10.1.0_release_5G/opensource/component_code/vendor/huawei/extra/build/build_script/kirin_kernel_release/kernel/block/hisi-blk-iosched-ufs-mq.c:1278:9
	ldr	x8, [x8, #40]
	.loc	2 1277 13               // /mnt/disk/jenkins/workspace/chipset_10.1.0_release_5G/opensource/component_code/vendor/huawei/extra/build/build_script/kirin_kernel_release/kernel/block/hisi-blk-iosched-ufs-mq.c:1277:13
	blr	x8
	mov	w23, w0
.Ltmp360:
	//DEBUG_VALUE: spin_unlock_irqrestore:flags <- $x25
	.loc	156 372 2               // /mnt/disk/jenkins/workspace/chipset_10.1.0_release_5G/opensource/component_code/vendor/huawei/extra/build/build_script/kirin_kernel_release/kernel/include/linux/spinlock.h:372:2
	mov	x0, x24
	mov	x1, x25
	bl	_raw_spin_unlock_irqrestore
.Ltmp361:
	.loc	2 1304 6                // /mnt/disk/jenkins/workspace/chipset_10.1.0_release_5G/opensource/component_code/vendor/huawei/extra/build/build_script/kirin_kernel_release/kernel/block/hisi-blk-iosched-ufs-mq.c:1304:6
	tbz	w23, #0, .LBB12_11
.Ltmp362:
// %bb.10:
	//DEBUG_VALUE: ufs_mq_merge_queue_io:hctx <- $x21
	//DEBUG_VALUE: ufs_mq_merge_queue_io:ctx <- $x19
	//DEBUG_VALUE: ufs_mq_merge_queue_io:rq <- $x20
	//DEBUG_VALUE: ufs_mq_merge_queue_io:bio <- $x22
	.loc	156 357 2               // /mnt/disk/jenkins/workspace/chipset_10.1.0_release_5G/opensource/component_code/vendor/huawei/extra/build/build_script/kirin_kernel_release/kernel/include/linux/spinlock.h:357:2
	mov	x0, x19
	bl	_raw_spin_unlock
.Ltmp363:
	.loc	2 1310 2                // /mnt/disk/jenkins/workspace/chipset_10.1.0_release_5G/opensource/component_code/vendor/huawei/extra/build/build_script/kirin_kernel_release/kernel/block/hisi-blk-iosched-ufs-mq.c:1310:2
	mov	x0, x20
	bl	blk_mq_free_request
	orr	w0, wzr, #0x1
	b	.LBB12_4
.Ltmp364:
.LBB12_11:
	//DEBUG_VALUE: ufs_mq_merge_queue_io:hctx <- $x21
	//DEBUG_VALUE: ufs_mq_merge_queue_io:ctx <- $x19
	//DEBUG_VALUE: ufs_mq_merge_queue_io:rq <- $x20
	//DEBUG_VALUE: ufs_mq_merge_queue_io:bio <- $x22
	.loc	2 1252 2                // /mnt/disk/jenkins/workspace/chipset_10.1.0_release_5G/opensource/component_code/vendor/huawei/extra/build/build_script/kirin_kernel_release/kernel/block/hisi-blk-iosched-ufs-mq.c:1252:2
	mov	x0, x20
	mov	x1, x22
	bl	blk_init_request_from_bio
	.loc	2 1253 2                // /mnt/disk/jenkins/workspace/chipset_10.1.0_release_5G/opensource/component_code/vendor/huawei/extra/build/build_script/kirin_kernel_release/kernel/block/hisi-blk-iosched-ufs-mq.c:1253:2
	orr	w1, wzr, #0x1
	mov	x0, x20
	bl	blk_account_io_start
	b	.LBB12_3
.Ltmp365:
.Lfunc_end12:
	.size	ufs_mq_merge_queue_io, .Lfunc_end12-ufs_mq_merge_queue_io
	.cfi_endproc
                                        // -- End function
	.section	.text.ufs_mq_req_insert,"ax",@progbits
	.hidden	ufs_mq_req_insert       // -- Begin function ufs_mq_req_insert
	.globl	ufs_mq_req_insert
	.p2align	2
	.type	ufs_mq_req_insert,@function
ufs_mq_req_insert:                      // @ufs_mq_req_insert
.Lfunc_begin13:
	.loc	2 2325 0                // /mnt/disk/jenkins/workspace/chipset_10.1.0_release_5G/opensource/component_code/vendor/huawei/extra/build/build_script/kirin_kernel_release/kernel/block/hisi-blk-iosched-ufs-mq.c:2325:0
	.cfi_startproc
// %bb.0:
	stp	x22, x21, [sp, #-48]!   // 16-byte Folded Spill
	stp	x20, x19, [sp, #16]     // 16-byte Folded Spill
	stp	x29, x30, [sp, #32]     // 16-byte Folded Spill
	add	x29, sp, #32            // =32
	.cfi_def_cfa w29, 16
	.cfi_offset w30, -8
	.cfi_offset w29, -16
	.cfi_offset w19, -24
	.cfi_offset w20, -32
	.cfi_offset w21, -40
	.cfi_offset w22, -48
	//DEBUG_VALUE: ufs_mq_req_insert:req <- $x0
	//DEBUG_VALUE: ufs_mq_req_insert:q <- $x1
.Ltmp366:
	//DEBUG_VALUE: ufs_mq_insert_async_list:q <- $x1
	//DEBUG_VALUE: blk_rq_is_passthrough:rq <- $x0
	//DEBUG_VALUE: blk_rq_is_scsi:rq <- $x0
	//DEBUG_VALUE: ufs_mq_insert_async_list:rq <- $x0
	.loc	2 2326 6 prologue_end   // /mnt/disk/jenkins/workspace/chipset_10.1.0_release_5G/opensource/component_code/vendor/huawei/extra/build/build_script/kirin_kernel_release/kernel/block/hisi-blk-iosched-ufs-mq.c:2326:6
	ldr	w8, [x0, #84]
	//DEBUG_VALUE: ufs_mq_insert_async_list:q <- $x1
	//DEBUG_VALUE: ufs_mq_req_insert:q <- $x1
	mov	x19, x0
	//DEBUG_VALUE: ufs_mq_req_insert:run_list <- undef
.Ltmp367:
	//DEBUG_VALUE: ufs_mq_insert_async_list:rq <- $x19
	//DEBUG_VALUE: blk_rq_is_scsi:rq <- $x19
	//DEBUG_VALUE: blk_rq_is_passthrough:rq <- $x19
	//DEBUG_VALUE: ufs_mq_req_insert:req <- $x19
	tbnz	w8, #11, .LBB13_2
.Ltmp368:
// %bb.1:
	//DEBUG_VALUE: ufs_mq_req_insert:req <- $x19
	//DEBUG_VALUE: blk_rq_is_passthrough:rq <- $x19
	//DEBUG_VALUE: blk_rq_is_scsi:rq <- $x19
	//DEBUG_VALUE: ufs_mq_req_insert:q <- $x1
	.loc	3 350 24                // /mnt/disk/jenkins/workspace/chipset_10.1.0_release_5G/opensource/component_code/vendor/huawei/extra/build/build_script/kirin_kernel_release/kernel/include/linux/blkdev.h:350:24
	and	w8, w8, #0xfc
.Ltmp369:
	.loc	3 360 28                // /mnt/disk/jenkins/workspace/chipset_10.1.0_release_5G/opensource/component_code/vendor/huawei/extra/build/build_script/kirin_kernel_release/kernel/include/linux/blkdev.h:360:28
	orr	w8, w8, #0x3
.Ltmp370:
	.loc	2 2326 6                // /mnt/disk/jenkins/workspace/chipset_10.1.0_release_5G/opensource/component_code/vendor/huawei/extra/build/build_script/kirin_kernel_release/kernel/block/hisi-blk-iosched-ufs-mq.c:2326:6
	cmp	w8, #35                 // =35
	b.ne	.LBB13_4
.Ltmp371:
.LBB13_2:
	//DEBUG_VALUE: ufs_mq_req_insert:req <- $x19
	//DEBUG_VALUE: ufs_mq_req_insert:q <- $x1
	.loc	2 2327 3                // /mnt/disk/jenkins/workspace/chipset_10.1.0_release_5G/opensource/component_code/vendor/huawei/extra/build/build_script/kirin_kernel_release/kernel/block/hisi-blk-iosched-ufs-mq.c:2327:3
	mov	x0, x19
	bl	ufs_mq_insert_sync_list
.Ltmp372:
.LBB13_3:
	//DEBUG_VALUE: ufs_mq_req_insert:req <- $x19
	.loc	2 2330 2                // /mnt/disk/jenkins/workspace/chipset_10.1.0_release_5G/opensource/component_code/vendor/huawei/extra/build/build_script/kirin_kernel_release/kernel/block/hisi-blk-iosched-ufs-mq.c:2330:2
	ldp	x29, x30, [sp, #32]     // 16-byte Folded Reload
	ldp	x20, x19, [sp, #16]     // 16-byte Folded Reload
.Ltmp373:
	mov	w0, wzr
	ldp	x22, x21, [sp], #48     // 16-byte Folded Reload
	ret
.LBB13_4:
.Ltmp374:
	//DEBUG_VALUE: ufs_mq_req_insert:req <- $x19
	//DEBUG_VALUE: ufs_mq_req_insert:q <- $x1
	.loc	2 1862 46               // /mnt/disk/jenkins/workspace/chipset_10.1.0_release_5G/opensource/component_code/vendor/huawei/extra/build/build_script/kirin_kernel_release/kernel/block/hisi-blk-iosched-ufs-mq.c:1862:46
	ldr	x8, [x1, #1792]
.Ltmp375:
	//DEBUG_VALUE: ufs_mq_insert_async_list:sched_ds <- $x8
	.loc	2 0 46 is_stmt 0        // /mnt/disk/jenkins/workspace/chipset_10.1.0_release_5G/opensource/component_code/vendor/huawei/extra/build/build_script/kirin_kernel_release/kernel/block/hisi-blk-iosched-ufs-mq.c:0:46
	mov	x21, x1
	.loc	2 1865 2 is_stmt 1      // /mnt/disk/jenkins/workspace/chipset_10.1.0_release_5G/opensource/component_code/vendor/huawei/extra/build/build_script/kirin_kernel_release/kernel/block/hisi-blk-iosched-ufs-mq.c:1865:2
	mov	w1, #9
.Ltmp376:
	mov	x0, x19
	.loc	2 1863 57               // /mnt/disk/jenkins/workspace/chipset_10.1.0_release_5G/opensource/component_code/vendor/huawei/extra/build/build_script/kirin_kernel_release/kernel/block/hisi-blk-iosched-ufs-mq.c:1863:57
	ldr	x20, [x8, #280]
.Ltmp377:
	//DEBUG_VALUE: ufs_mq_insert_async_list:sched_ds_lld <- $x20
	//DEBUG_VALUE: spinlock_check:lock <- [DW_OP_plus_uconst 120, DW_OP_stack_value] $x20
	//DEBUG_VALUE: spin_unlock_irqrestore:lock <- [DW_OP_plus_uconst 120, DW_OP_stack_value] $x20
	.loc	2 1865 2                // /mnt/disk/jenkins/workspace/chipset_10.1.0_release_5G/opensource/component_code/vendor/huawei/extra/build/build_script/kirin_kernel_release/kernel/block/hisi-blk-iosched-ufs-mq.c:1865:2
	bl	hisi_blk_latency_req_check
.Ltmp378:
	.loc	2 1866 6                // /mnt/disk/jenkins/workspace/chipset_10.1.0_release_5G/opensource/component_code/vendor/huawei/extra/build/build_script/kirin_kernel_release/kernel/block/hisi-blk-iosched-ufs-mq.c:1866:6
	ldr	x8, [x21, #1800]
	cbz	x8, .LBB13_3
.Ltmp379:
// %bb.5:
	//DEBUG_VALUE: ufs_mq_insert_async_list:sched_ds_lld <- $x20
	//DEBUG_VALUE: ufs_mq_req_insert:req <- $x19
	ldr	x22, [x8, #200]
.Ltmp380:
	//DEBUG_VALUE: priv <- $x22
	.loc	2 1866 6 is_stmt 0      // /mnt/disk/jenkins/workspace/chipset_10.1.0_release_5G/opensource/component_code/vendor/huawei/extra/build/build_script/kirin_kernel_release/kernel/block/hisi-blk-iosched-ufs-mq.c:1866:6
	cbz	x22, .LBB13_3
.Ltmp381:
// %bb.6:
	//DEBUG_VALUE: priv <- $x22
	//DEBUG_VALUE: ufs_mq_insert_async_list:sched_ds_lld <- $x20
	//DEBUG_VALUE: ufs_mq_req_insert:req <- $x19
	.loc	2 1871 13 is_stmt 1     // /mnt/disk/jenkins/workspace/chipset_10.1.0_release_5G/opensource/component_code/vendor/huawei/extra/build/build_script/kirin_kernel_release/kernel/block/hisi-blk-iosched-ufs-mq.c:1871:13
	ldr	x8, [x22]
	.loc	2 1872 7                // /mnt/disk/jenkins/workspace/chipset_10.1.0_release_5G/opensource/component_code/vendor/huawei/extra/build/build_script/kirin_kernel_release/kernel/block/hisi-blk-iosched-ufs-mq.c:1872:7
	ldr	x8, [x8, #16]
.Ltmp382:
	.loc	2 1871 7                // /mnt/disk/jenkins/workspace/chipset_10.1.0_release_5G/opensource/component_code/vendor/huawei/extra/build/build_script/kirin_kernel_release/kernel/block/hisi-blk-iosched-ufs-mq.c:1871:7
	cbz	x8, .LBB13_3
.Ltmp383:
// %bb.7:
	//DEBUG_VALUE: priv <- $x22
	//DEBUG_VALUE: ufs_mq_insert_async_list:sched_ds_lld <- $x20
	//DEBUG_VALUE: ufs_mq_req_insert:req <- $x19
	.loc	156 306 16              // /mnt/disk/jenkins/workspace/chipset_10.1.0_release_5G/opensource/component_code/vendor/huawei/extra/build/build_script/kirin_kernel_release/kernel/include/linux/spinlock.h:306:16
	add	x21, x20, #120          // =120
.Ltmp384:
	.loc	2 1873 4                // /mnt/disk/jenkins/workspace/chipset_10.1.0_release_5G/opensource/component_code/vendor/huawei/extra/build/build_script/kirin_kernel_release/kernel/block/hisi-blk-iosched-ufs-mq.c:1873:4
	mov	x0, x21
	bl	_raw_spin_lock_irqsave
.Ltmp385:
	.loc	2 1875 10               // /mnt/disk/jenkins/workspace/chipset_10.1.0_release_5G/opensource/component_code/vendor/huawei/extra/build/build_script/kirin_kernel_release/kernel/block/hisi-blk-iosched-ufs-mq.c:1875:10
	ldr	x8, [x22]
.Ltmp386:
	.loc	2 1873 4                // /mnt/disk/jenkins/workspace/chipset_10.1.0_release_5G/opensource/component_code/vendor/huawei/extra/build/build_script/kirin_kernel_release/kernel/block/hisi-blk-iosched-ufs-mq.c:1873:4
	mov	x22, x0
.Ltmp387:
	//DEBUG_VALUE: ufs_mq_insert_async_list:flags <- $x22
	.loc	2 1875 4                // /mnt/disk/jenkins/workspace/chipset_10.1.0_release_5G/opensource/component_code/vendor/huawei/extra/build/build_script/kirin_kernel_release/kernel/block/hisi-blk-iosched-ufs-mq.c:1875:4
	mov	x0, x19
	mov	x1, x20
	.loc	2 1876 7                // /mnt/disk/jenkins/workspace/chipset_10.1.0_release_5G/opensource/component_code/vendor/huawei/extra/build/build_script/kirin_kernel_release/kernel/block/hisi-blk-iosched-ufs-mq.c:1876:7
	ldr	x8, [x8, #16]
	.loc	2 1875 4                // /mnt/disk/jenkins/workspace/chipset_10.1.0_release_5G/opensource/component_code/vendor/huawei/extra/build/build_script/kirin_kernel_release/kernel/block/hisi-blk-iosched-ufs-mq.c:1875:4
	blr	x8
.Ltmp388:
	//DEBUG_VALUE: spin_unlock_irqrestore:flags <- $x22
	.loc	156 372 2               // /mnt/disk/jenkins/workspace/chipset_10.1.0_release_5G/opensource/component_code/vendor/huawei/extra/build/build_script/kirin_kernel_release/kernel/include/linux/spinlock.h:372:2
	mov	x0, x21
	mov	x1, x22
	bl	_raw_spin_unlock_irqrestore
	b	.LBB13_3
.Ltmp389:
.Lfunc_end13:
	.size	ufs_mq_req_insert, .Lfunc_end13-ufs_mq_req_insert
	.cfi_endproc
                                        // -- End function
	.section	.text.ufs_mq_flush_plug_list,"ax",@progbits
	.hidden	ufs_mq_flush_plug_list  // -- Begin function ufs_mq_flush_plug_list
	.globl	ufs_mq_flush_plug_list
	.p2align	2
	.type	ufs_mq_flush_plug_list,@function
ufs_mq_flush_plug_list:                 // @ufs_mq_flush_plug_list
.Lfunc_begin14:
	.loc	2 1355 0                // /mnt/disk/jenkins/workspace/chipset_10.1.0_release_5G/opensource/component_code/vendor/huawei/extra/build/build_script/kirin_kernel_release/kernel/block/hisi-blk-iosched-ufs-mq.c:1355:0
	.cfi_startproc
// %bb.0:
	sub	sp, sp, #176            // =176
	stp	x28, x27, [sp, #80]     // 16-byte Folded Spill
	stp	x26, x25, [sp, #96]     // 16-byte Folded Spill
	stp	x24, x23, [sp, #112]    // 16-byte Folded Spill
	stp	x22, x21, [sp, #128]    // 16-byte Folded Spill
	stp	x20, x19, [sp, #144]    // 16-byte Folded Spill
	stp	x29, x30, [sp, #160]    // 16-byte Folded Spill
	add	x29, sp, #160           // =160
	.cfi_def_cfa w29, 16
	.cfi_offset w30, -8
	.cfi_offset w29, -16
	.cfi_offset w19, -24
	.cfi_offset w20, -32
	.cfi_offset w21, -40
	.cfi_offset w22, -48
	.cfi_offset w23, -56
	.cfi_offset w24, -64
	.cfi_offset w25, -72
	.cfi_offset w26, -80
	.cfi_offset w27, -88
	.cfi_offset w28, -96
	//DEBUG_VALUE: ufs_mq_flush_plug_list:plug <- $x0
	//DEBUG_VALUE: ufs_mq_flush_plug_list:from_schedule <- $w1
.Ltmp390:
	.loc	2 1360 27 prologue_end  // /mnt/disk/jenkins/workspace/chipset_10.1.0_release_5G/opensource/component_code/vendor/huawei/extra/build/build_script/kirin_kernel_release/kernel/block/hisi-blk-iosched-ufs-mq.c:1360:27
	adrp	x8, .Lufs_mq_flush_plug_list.bd
	adrp	x9, __stack_chk_guard
	add	x8, x8, :lo12:.Lufs_mq_flush_plug_list.bd
	ldr	x9, [x9, :lo12:__stack_chk_guard]
	//DEBUG_VALUE: ufs_mq_flush_plug_list:plug <- $x0
	ldp	x10, x11, [x8]
	add	x8, sp, #40             // =40
.Ltmp391:
	//DEBUG_VALUE: ufs_mq_flush_plug_list:list <- [DW_OP_plus_uconst 40, DW_OP_deref] $sp
	.loc	2 0 27 is_stmt 0        // /mnt/disk/jenkins/workspace/chipset_10.1.0_release_5G/opensource/component_code/vendor/huawei/extra/build/build_script/kirin_kernel_release/kernel/block/hisi-blk-iosched-ufs-mq.c:0:27
	str	x9, [sp, #72]
	.loc	2 1362 2 is_stmt 1      // /mnt/disk/jenkins/workspace/chipset_10.1.0_release_5G/opensource/component_code/vendor/huawei/extra/build/build_script/kirin_kernel_release/kernel/block/hisi-blk-iosched-ufs-mq.c:1362:2
	stp	x8, x8, [sp, #40]
	.loc	2 1360 27               // /mnt/disk/jenkins/workspace/chipset_10.1.0_release_5G/opensource/component_code/vendor/huawei/extra/build/build_script/kirin_kernel_release/kernel/block/hisi-blk-iosched-ufs-mq.c:1360:27
	stp	x10, x11, [sp, #56]
.Ltmp392:
	//DEBUG_VALUE: __read_once_size:p <- undef
	//DEBUG_VALUE: __write_once_size:p <- undef
	//DEBUG_VALUE: list_splice_init:list <- undef
	//DEBUG_VALUE: list_empty:head <- undef
	//DEBUG_VALUE: __list_splice:list <- undef
	//DEBUG_VALUE: INIT_LIST_HEAD:list <- undef
	//DEBUG_VALUE: __read_once_size:size <- 8
	//DEBUG_VALUE: __read_once_size:res <- undef
	//DEBUG_VALUE: list_splice_init:head <- [DW_OP_plus_uconst 40] $sp
	.loc	154 186 2               // /mnt/disk/jenkins/workspace/chipset_10.1.0_release_5G/opensource/component_code/vendor/huawei/extra/build/build_script/kirin_kernel_release/kernel/include/linux/compiler.h:186:2
	mov	x9, x0
	ldr	x10, [x9, #48]!
.Ltmp393:
	//DEBUG_VALUE: __list_splice:first <- $x10
	.file	157 "/mnt/disk/jenkins/workspace/chipset_10.1.0_release_5G/opensource/component_code/vendor/huawei/extra/build/build_script/kirin_kernel_release/kernel/include/linux/list.h"
	.loc	157 336 6               // /mnt/disk/jenkins/workspace/chipset_10.1.0_release_5G/opensource/component_code/vendor/huawei/extra/build/build_script/kirin_kernel_release/kernel/include/linux/list.h:336:6
	cmp	x9, x10
	b.eq	.LBB14_2
.Ltmp394:
// %bb.1:
	//DEBUG_VALUE: __list_splice:first <- $x10
	//DEBUG_VALUE: list_splice_init:head <- [DW_OP_plus_uconst 40] $sp
	//DEBUG_VALUE: ufs_mq_flush_plug_list:list <- [DW_OP_plus_uconst 40, DW_OP_deref] $sp
	//DEBUG_VALUE: ufs_mq_flush_plug_list:from_schedule <- $w1
	//DEBUG_VALUE: ufs_mq_flush_plug_list:plug <- $x0
	.loc	157 293 33              // /mnt/disk/jenkins/workspace/chipset_10.1.0_release_5G/opensource/component_code/vendor/huawei/extra/build/build_script/kirin_kernel_release/kernel/include/linux/list.h:293:33
	ldr	x11, [x0, #56]
.Ltmp395:
	//DEBUG_VALUE: __list_splice:next <- [DW_OP_plus_uconst 40] $sp
	//DEBUG_VALUE: __list_splice:prev <- [DW_OP_plus_uconst 40] $sp
	//DEBUG_VALUE: __list_splice:last <- $x11
	.loc	157 295 14              // /mnt/disk/jenkins/workspace/chipset_10.1.0_release_5G/opensource/component_code/vendor/huawei/extra/build/build_script/kirin_kernel_release/kernel/include/linux/list.h:295:14
	str	x8, [x10, #8]
	.loc	157 296 13              // /mnt/disk/jenkins/workspace/chipset_10.1.0_release_5G/opensource/component_code/vendor/huawei/extra/build/build_script/kirin_kernel_release/kernel/include/linux/list.h:296:13
	str	x10, [sp, #40]
	.loc	157 298 13              // /mnt/disk/jenkins/workspace/chipset_10.1.0_release_5G/opensource/component_code/vendor/huawei/extra/build/build_script/kirin_kernel_release/kernel/include/linux/list.h:298:13
	str	x8, [x11]
	.loc	157 299 13              // /mnt/disk/jenkins/workspace/chipset_10.1.0_release_5G/opensource/component_code/vendor/huawei/extra/build/build_script/kirin_kernel_release/kernel/include/linux/list.h:299:13
	str	x11, [sp, #48]
.Ltmp396:
	//DEBUG_VALUE: __write_once_size:size <- 8
	//DEBUG_VALUE: __write_once_size:res <- undef
	.loc	154 213 31              // /mnt/disk/jenkins/workspace/chipset_10.1.0_release_5G/opensource/component_code/vendor/huawei/extra/build/build_script/kirin_kernel_release/kernel/include/linux/compiler.h:213:31
	str	x9, [x0, #48]
.Ltmp397:
	.loc	157 29 13               // /mnt/disk/jenkins/workspace/chipset_10.1.0_release_5G/opensource/component_code/vendor/huawei/extra/build/build_script/kirin_kernel_release/kernel/include/linux/list.h:29:13
	str	x9, [x0, #56]
.Ltmp398:
	.loc	2 1366 8                // /mnt/disk/jenkins/workspace/chipset_10.1.0_release_5G/opensource/component_code/vendor/huawei/extra/build/build_script/kirin_kernel_release/kernel/block/hisi-blk-iosched-ufs-mq.c:1366:8
	ldr	x19, [sp, #40]
	b	.LBB14_3
.Ltmp399:
.LBB14_2:
	//DEBUG_VALUE: __list_splice:first <- $x10
	//DEBUG_VALUE: list_splice_init:head <- [DW_OP_plus_uconst 40] $sp
	//DEBUG_VALUE: ufs_mq_flush_plug_list:list <- [DW_OP_plus_uconst 40, DW_OP_deref] $sp
	//DEBUG_VALUE: ufs_mq_flush_plug_list:from_schedule <- $w1
	//DEBUG_VALUE: ufs_mq_flush_plug_list:plug <- $x0
	.loc	2 0 8 is_stmt 0         // /mnt/disk/jenkins/workspace/chipset_10.1.0_release_5G/opensource/component_code/vendor/huawei/extra/build/build_script/kirin_kernel_release/kernel/block/hisi-blk-iosched-ufs-mq.c:0:8
	add	x19, sp, #40            // =40
.Ltmp400:
.LBB14_3:
	//DEBUG_VALUE: ufs_mq_flush_plug_list:list <- [DW_OP_plus_uconst 40, DW_OP_deref] $sp
	//DEBUG_VALUE: ufs_mq_flush_plug_list:from_schedule <- $w1
	//DEBUG_VALUE: ufs_mq_flush_plug_list:plug <- $x0
	mov	w24, #4096
	adrp	x26, cpu_number
	adrp	x27, __per_cpu_offset
	movk	w24, #64, lsl #16
	add	x26, x26, :lo12:cpu_number
	add	x27, x27, :lo12:__per_cpu_offset
	add	x23, sp, #40            // =40
	orr	w28, wzr, #0x3
.Ltmp401:
	.file	158 "/mnt/disk/jenkins/workspace/chipset_10.1.0_release_5G/opensource/component_code/vendor/huawei/extra/build/build_script/kirin_kernel_release/kernel/arch/arm64/include/asm/current.h"
	.loc	158 19 2 is_stmt 1      // /mnt/disk/jenkins/workspace/chipset_10.1.0_release_5G/opensource/component_code/vendor/huawei/extra/build/build_script/kirin_kernel_release/kernel/arch/arm64/include/asm/current.h:19:2
	//APP
	mrs x25, sp_el0
	//NO_APP
.Ltmp402:
	//DEBUG_VALUE: get_current:sp_el0 <- $x25
	//DEBUG_VALUE: get_current:sp_el0 <- $x25
	//DEBUG_VALUE: get_current:sp_el0 <- $x25
	//DEBUG_VALUE: test_ti_thread_flag:ti <- $x25
	//DEBUG_VALUE: test_bit:addr <- $x25
	.loc	158 0 2 is_stmt 0       // /mnt/disk/jenkins/workspace/chipset_10.1.0_release_5G/opensource/component_code/vendor/huawei/extra/build/build_script/kirin_kernel_release/kernel/arch/arm64/include/asm/current.h:0:2
	//APP
	//NO_APP
	b	.LBB14_35
.Ltmp403:
.LBB14_4:                               //   in Loop: Header=BB14_35 Depth=1
	//DEBUG_VALUE: ufs_mq_flush_plug_list:hctx <- $x21
	//DEBUG_VALUE: __ufs_mq_queue_rq:q <- $x20
	//DEBUG_VALUE: ufs_mq_fs_io_limit:q <- $x20
	//DEBUG_VALUE: __ufs_mq_queue_rq:rq <- $x19
	//DEBUG_VALUE: ufs_mq_fs_io_limit:rq <- $x19
	//DEBUG_VALUE: atomic_add_return:v <- [DW_OP_plus_uconst 36, DW_OP_stack_value] $x22
	//DEBUG_VALUE: ufs_mq_fs_io_limit:sched_ds_lld <- $x22
	//DEBUG_VALUE: __ufs_mq_queue_rq:sched_ds_lld <- $x22
	//DEBUG_VALUE: ufs_mq_flush_plug_list:sched_ds <- $x10
	//DEBUG_VALUE: ufs_mq_flush_plug_list:q <- $x20
	//DEBUG_VALUE: ufs_mq_flush_plug_list:rq <- $x19
	//DEBUG_VALUE: ufs_mq_flush_plug_list:list <- [DW_OP_plus_uconst 40, DW_OP_deref] $sp
	//DEBUG_VALUE: ufs_mq_flush_plug_list:from_schedule <- $w1
	//DEBUG_VALUE: ufs_mq_flush_plug_list:plug <- $x0
	//DEBUG_VALUE: atomic_add_return:i <- 1
	.loc	152 113 1 is_stmt 1     // /mnt/disk/jenkins/workspace/chipset_10.1.0_release_5G/opensource/component_code/vendor/huawei/extra/build/build_script/kirin_kernel_release/kernel/arch/arm64/include/asm/atomic_ll_sc.h:113:1
	add	x8, x22, #36            // =36
	//APP
	// atomic_add_return
	prfm	pstl1strm, [x8]
1:	ldxr	w9, [x8]
	add	w9, w9, #1
	stlxr	w10, w9, [x8]
	cbnz	w10, 1b
	dmb ish
	//NO_APP
.Ltmp404:
	//DEBUG_VALUE: atomic_add_return:result <- $w9
	.loc	2 1042 7                // /mnt/disk/jenkins/workspace/chipset_10.1.0_release_5G/opensource/component_code/vendor/huawei/extra/build/build_script/kirin_kernel_release/kernel/block/hisi-blk-iosched-ufs-mq.c:1042:7
	ldr	w8, [x22, #148]
.Ltmp405:
	.loc	2 0 0 is_stmt 0         // /mnt/disk/jenkins/workspace/chipset_10.1.0_release_5G/opensource/component_code/vendor/huawei/extra/build/build_script/kirin_kernel_release/kernel/block/hisi-blk-iosched-ufs-mq.c:0:0
	cmp	w9, w8
	b.le	.LBB14_38
.Ltmp406:
.LBB14_5:                               //   in Loop: Header=BB14_35 Depth=1
	//DEBUG_VALUE: ufs_mq_flush_plug_list:hctx <- $x21
	//DEBUG_VALUE: __ufs_mq_queue_rq:q <- $x20
	//DEBUG_VALUE: ufs_mq_fs_io_limit:q <- $x20
	//DEBUG_VALUE: __ufs_mq_queue_rq:rq <- $x19
	//DEBUG_VALUE: ufs_mq_fs_io_limit:rq <- $x19
	//DEBUG_VALUE: ufs_mq_fs_io_limit:sched_ds_lld <- $x22
	//DEBUG_VALUE: __ufs_mq_queue_rq:sched_ds_lld <- $x22
	//DEBUG_VALUE: ufs_mq_flush_plug_list:q <- $x20
	//DEBUG_VALUE: ufs_mq_flush_plug_list:rq <- $x19
	//DEBUG_VALUE: ufs_mq_flush_plug_list:list <- [DW_OP_plus_uconst 40, DW_OP_deref] $sp
	//DEBUG_VALUE: ufs_mq_flush_plug_list:from_schedule <- $w1
	//DEBUG_VALUE: ufs_mq_flush_plug_list:plug <- $x0
	//DEBUG_VALUE: ufs_mq_fs_io_limit:ret <- 9
	orr	w8, wzr, #0x2
	str	w8, [x19, #276]
.Ltmp407:
.LBB14_6:                               //   in Loop: Header=BB14_35 Depth=1
	//DEBUG_VALUE: ufs_mq_flush_plug_list:hctx <- $x21
	//DEBUG_VALUE: __ufs_mq_queue_rq:q <- $x20
	//DEBUG_VALUE: __ufs_mq_queue_rq:rq <- $x19
	//DEBUG_VALUE: __ufs_mq_queue_rq:sched_ds_lld <- $x22
	//DEBUG_VALUE: ufs_mq_flush_plug_list:q <- $x20
	//DEBUG_VALUE: ufs_mq_flush_plug_list:rq <- $x19
	//DEBUG_VALUE: ufs_mq_flush_plug_list:list <- [DW_OP_plus_uconst 40, DW_OP_deref] $sp
	mov	w21, #9
.Ltmp408:
	//DEBUG_VALUE: __ufs_mq_queue_rq:ret <- $w21
	//DEBUG_VALUE: ufs_mq_rq_inflight_update:update_complete_time <- 0
	.loc	2 1077 6 is_stmt 1      // /mnt/disk/jenkins/workspace/chipset_10.1.0_release_5G/opensource/component_code/vendor/huawei/extra/build/build_script/kirin_kernel_release/kernel/block/hisi-blk-iosched-ufs-mq.c:1077:6
	ldr	w8, [x19, #84]
	tbnz	w8, #11, .LBB14_23
.Ltmp409:
.LBB14_7:                               //   in Loop: Header=BB14_35 Depth=1
	//DEBUG_VALUE: __ufs_mq_queue_rq:q <- $x20
	//DEBUG_VALUE: __ufs_mq_queue_rq:rq <- $x19
	//DEBUG_VALUE: __ufs_mq_queue_rq:sched_ds_lld <- $x22
	//DEBUG_VALUE: ufs_mq_flush_plug_list:q <- $x20
	//DEBUG_VALUE: ufs_mq_flush_plug_list:rq <- $x19
	//DEBUG_VALUE: __ufs_mq_queue_rq:ret <- $w21
	//DEBUG_VALUE: ufs_mq_flush_plug_list:list <- [DW_OP_plus_uconst 40, DW_OP_deref] $sp
	//DEBUG_VALUE: atomic_sub:i <- 1
	.loc	152 114 1               // /mnt/disk/jenkins/workspace/chipset_10.1.0_release_5G/opensource/component_code/vendor/huawei/extra/build/build_script/kirin_kernel_release/kernel/arch/arm64/include/asm/atomic_ll_sc.h:114:1
	add	x8, x22, #36            // =36
	//APP
	// atomic_sub
	prfm	pstl1strm, [x8]
1:	ldxr	w9, [x8]
	sub	w9, w9, #1
	stxr	w10, w9, [x8]
	cbnz	w10, 1b
	//NO_APP
	b	.LBB14_39
.Ltmp410:
.LBB14_8:                               //   in Loop: Header=BB14_35 Depth=1
	//DEBUG_VALUE: ufs_mq_flush_plug_list:hctx <- $x21
	//DEBUG_VALUE: __ufs_mq_queue_rq:q <- $x20
	//DEBUG_VALUE: ufs_mq_fs_io_limit:q <- $x20
	//DEBUG_VALUE: __ufs_mq_queue_rq:rq <- $x19
	//DEBUG_VALUE: ufs_mq_fs_io_limit:rq <- $x19
	//DEBUG_VALUE: ufs_mq_fs_io_limit:sched_ds_lld <- $x22
	//DEBUG_VALUE: __ufs_mq_queue_rq:sched_ds_lld <- $x22
	//DEBUG_VALUE: ufs_mq_flush_plug_list:sched_ds <- $x10
	//DEBUG_VALUE: ufs_mq_flush_plug_list:q <- $x20
	//DEBUG_VALUE: ufs_mq_flush_plug_list:rq <- $x19
	//DEBUG_VALUE: ufs_mq_flush_plug_list:list <- [DW_OP_plus_uconst 40, DW_OP_deref] $sp
	//DEBUG_VALUE: ufs_mq_flush_plug_list:from_schedule <- $w1
	//DEBUG_VALUE: ufs_mq_flush_plug_list:plug <- $x0
	//DEBUG_VALUE: atomic_add:i <- 1
	.loc	152 113 1               // /mnt/disk/jenkins/workspace/chipset_10.1.0_release_5G/opensource/component_code/vendor/huawei/extra/build/build_script/kirin_kernel_release/kernel/arch/arm64/include/asm/atomic_ll_sc.h:113:1
	add	x8, x22, #28            // =28
	//APP
	// atomic_add
	prfm	pstl1strm, [x8]
1:	ldxr	w9, [x8]
	add	w9, w9, #1
	stxr	w10, w9, [x8]
	cbnz	w10, 1b
	//NO_APP
.Ltmp411:
	.loc	2 993 13                // /mnt/disk/jenkins/workspace/chipset_10.1.0_release_5G/opensource/component_code/vendor/huawei/extra/build/build_script/kirin_kernel_release/kernel/block/hisi-blk-iosched-ufs-mq.c:993:13
	ldr	w8, [x19, #84]
	.loc	2 993 23 is_stmt 0      // /mnt/disk/jenkins/workspace/chipset_10.1.0_release_5G/opensource/component_code/vendor/huawei/extra/build/build_script/kirin_kernel_release/kernel/block/hisi-blk-iosched-ufs-mq.c:993:23
	tst	w8, w24
	.loc	2 993 46                // /mnt/disk/jenkins/workspace/chipset_10.1.0_release_5G/opensource/component_code/vendor/huawei/extra/build/build_script/kirin_kernel_release/kernel/block/hisi-blk-iosched-ufs-mq.c:993:46
	b.eq	.LBB14_38
.Ltmp412:
// %bb.9:                               //   in Loop: Header=BB14_35 Depth=1
	//DEBUG_VALUE: ufs_mq_flush_plug_list:hctx <- $x21
	//DEBUG_VALUE: __ufs_mq_queue_rq:q <- $x20
	//DEBUG_VALUE: ufs_mq_fs_io_limit:q <- $x20
	//DEBUG_VALUE: __ufs_mq_queue_rq:rq <- $x19
	//DEBUG_VALUE: ufs_mq_fs_io_limit:rq <- $x19
	//DEBUG_VALUE: ufs_mq_fs_io_limit:sched_ds_lld <- $x22
	//DEBUG_VALUE: __ufs_mq_queue_rq:sched_ds_lld <- $x22
	//DEBUG_VALUE: ufs_mq_flush_plug_list:q <- $x20
	//DEBUG_VALUE: ufs_mq_flush_plug_list:rq <- $x19
	//DEBUG_VALUE: ufs_mq_flush_plug_list:list <- [DW_OP_plus_uconst 40, DW_OP_deref] $sp
	//DEBUG_VALUE: ufs_mq_flush_plug_list:from_schedule <- $w1
	//DEBUG_VALUE: ufs_mq_flush_plug_list:plug <- $x0
	.loc	2 975 28 is_stmt 1      // /mnt/disk/jenkins/workspace/chipset_10.1.0_release_5G/opensource/component_code/vendor/huawei/extra/build/build_script/kirin_kernel_release/kernel/block/hisi-blk-iosched-ufs-mq.c:975:28
	mov	x0, x20
.Ltmp413:
	bl	hisi_blk_get_lld
.Ltmp414:
	//DEBUG_VALUE: hisi_cp_enabled:lld <- $x0
	.loc	2 993 8                 // /mnt/disk/jenkins/workspace/chipset_10.1.0_release_5G/opensource/component_code/vendor/huawei/extra/build/build_script/kirin_kernel_release/kernel/block/hisi-blk-iosched-ufs-mq.c:993:8
	ldrb	w8, [x0, #24]
	tbz	w8, #7, .LBB14_38
.Ltmp415:
// %bb.10:                              //   in Loop: Header=BB14_35 Depth=1
	//DEBUG_VALUE: ufs_mq_flush_plug_list:hctx <- $x21
	//DEBUG_VALUE: __ufs_mq_queue_rq:q <- $x20
	//DEBUG_VALUE: ufs_mq_fs_io_limit:q <- $x20
	//DEBUG_VALUE: __ufs_mq_queue_rq:rq <- $x19
	//DEBUG_VALUE: ufs_mq_fs_io_limit:rq <- $x19
	//DEBUG_VALUE: ufs_mq_fs_io_limit:sched_ds_lld <- $x22
	//DEBUG_VALUE: __ufs_mq_queue_rq:sched_ds_lld <- $x22
	//DEBUG_VALUE: ufs_mq_flush_plug_list:q <- $x20
	//DEBUG_VALUE: ufs_mq_flush_plug_list:rq <- $x19
	//DEBUG_VALUE: ufs_mq_flush_plug_list:list <- [DW_OP_plus_uconst 40, DW_OP_deref] $sp
	.loc	2 919 28                // /mnt/disk/jenkins/workspace/chipset_10.1.0_release_5G/opensource/component_code/vendor/huawei/extra/build/build_script/kirin_kernel_release/kernel/block/hisi-blk-iosched-ufs-mq.c:919:28
	mov	x0, x20
	bl	hisi_blk_get_lld
.Ltmp416:
	.loc	154 186 2               // /mnt/disk/jenkins/workspace/chipset_10.1.0_release_5G/opensource/component_code/vendor/huawei/extra/build/build_script/kirin_kernel_release/kernel/include/linux/compiler.h:186:2
	ldr	w8, [x22, #32]
.Ltmp417:
	//DEBUG_VALUE: __read_once_size:size <- 4
	//DEBUG_VALUE: __read_once_size:res <- undef
	//DEBUG_VALUE: __read_once_size:p <- [DW_OP_plus_uconst 32, DW_OP_stack_value] $x22
	//DEBUG_VALUE: ufs_mq_could_add_cp_flag:oldest_bio_ktime <- 0
	//DEBUG_VALUE: ufs_mq_could_add_cp_flag:lld <- $x0
	//DEBUG_VALUE: spinlock_check:lock <- [DW_OP_plus_uconst 448, DW_OP_stack_value] $x0
	//DEBUG_VALUE: spin_unlock_irqrestore:lock <- [DW_OP_plus_uconst 448, DW_OP_stack_value] $x0
	.loc	2 925 58                // /mnt/disk/jenkins/workspace/chipset_10.1.0_release_5G/opensource/component_code/vendor/huawei/extra/build/build_script/kirin_kernel_release/kernel/block/hisi-blk-iosched-ufs-mq.c:925:58
	cbnz	w8, .LBB14_12
.Ltmp418:
// %bb.11:                              //   in Loop: Header=BB14_35 Depth=1
	//DEBUG_VALUE: ufs_mq_flush_plug_list:hctx <- $x21
	//DEBUG_VALUE: __ufs_mq_queue_rq:q <- $x20
	//DEBUG_VALUE: ufs_mq_fs_io_limit:q <- $x20
	//DEBUG_VALUE: __ufs_mq_queue_rq:rq <- $x19
	//DEBUG_VALUE: ufs_mq_fs_io_limit:rq <- $x19
	//DEBUG_VALUE: ufs_mq_fs_io_limit:sched_ds_lld <- $x22
	//DEBUG_VALUE: __ufs_mq_queue_rq:sched_ds_lld <- $x22
	//DEBUG_VALUE: ufs_mq_flush_plug_list:q <- $x20
	//DEBUG_VALUE: ufs_mq_flush_plug_list:rq <- $x19
	//DEBUG_VALUE: ufs_mq_could_add_cp_flag:lld <- $x0
	//DEBUG_VALUE: ufs_mq_flush_plug_list:list <- [DW_OP_plus_uconst 40, DW_OP_deref] $sp
	//DEBUG_VALUE: __read_once_size:res <- undef
	//DEBUG_VALUE: __read_once_size:size <- 4
	//DEBUG_VALUE: __read_once_size:p <- [DW_OP_plus_uconst 36, DW_OP_stack_value] $x22
	.loc	154 186 2               // /mnt/disk/jenkins/workspace/chipset_10.1.0_release_5G/opensource/component_code/vendor/huawei/extra/build/build_script/kirin_kernel_release/kernel/include/linux/compiler.h:186:2
	ldr	w8, [x22, #36]
.Ltmp419:
	.loc	2 925 6                 // /mnt/disk/jenkins/workspace/chipset_10.1.0_release_5G/opensource/component_code/vendor/huawei/extra/build/build_script/kirin_kernel_release/kernel/block/hisi-blk-iosched-ufs-mq.c:925:6
	cbz	w8, .LBB14_29
.Ltmp420:
.LBB14_12:                              //   in Loop: Header=BB14_35 Depth=1
	//DEBUG_VALUE: ufs_mq_flush_plug_list:hctx <- $x21
	//DEBUG_VALUE: __ufs_mq_queue_rq:q <- $x20
	//DEBUG_VALUE: ufs_mq_fs_io_limit:q <- $x20
	//DEBUG_VALUE: __ufs_mq_queue_rq:rq <- $x19
	//DEBUG_VALUE: ufs_mq_fs_io_limit:rq <- $x19
	//DEBUG_VALUE: ufs_mq_fs_io_limit:sched_ds_lld <- $x22
	//DEBUG_VALUE: __ufs_mq_queue_rq:sched_ds_lld <- $x22
	//DEBUG_VALUE: ufs_mq_flush_plug_list:q <- $x20
	//DEBUG_VALUE: ufs_mq_flush_plug_list:rq <- $x19
	//DEBUG_VALUE: ufs_mq_could_add_cp_flag:lld <- $x0
	//DEBUG_VALUE: ufs_mq_flush_plug_list:list <- [DW_OP_plus_uconst 40, DW_OP_deref] $sp
	//DEBUG_VALUE: __read_once_size:res <- undef
	//DEBUG_VALUE: __read_once_size:size <- 4
	//DEBUG_VALUE: __read_once_size:p <- undef
	//DEBUG_VALUE: __read_once_size:p <- undef
	.loc	154 186 2               // /mnt/disk/jenkins/workspace/chipset_10.1.0_release_5G/opensource/component_code/vendor/huawei/extra/build/build_script/kirin_kernel_release/kernel/include/linux/compiler.h:186:2
	mov	x10, x22
	ldr	w8, [x10, #12]!
.Ltmp421:
	.loc	2 930 6                 // /mnt/disk/jenkins/workspace/chipset_10.1.0_release_5G/opensource/component_code/vendor/huawei/extra/build/build_script/kirin_kernel_release/kernel/block/hisi-blk-iosched-ufs-mq.c:930:6
	cbz	w8, .LBB14_32
.Ltmp422:
// %bb.13:                              //   in Loop: Header=BB14_35 Depth=1
	//DEBUG_VALUE: ufs_mq_flush_plug_list:hctx <- $x21
	//DEBUG_VALUE: __ufs_mq_queue_rq:q <- $x20
	//DEBUG_VALUE: ufs_mq_fs_io_limit:q <- $x20
	//DEBUG_VALUE: __ufs_mq_queue_rq:rq <- $x19
	//DEBUG_VALUE: ufs_mq_fs_io_limit:rq <- $x19
	//DEBUG_VALUE: ufs_mq_fs_io_limit:sched_ds_lld <- $x22
	//DEBUG_VALUE: __ufs_mq_queue_rq:sched_ds_lld <- $x22
	//DEBUG_VALUE: ufs_mq_flush_plug_list:q <- $x20
	//DEBUG_VALUE: ufs_mq_flush_plug_list:rq <- $x19
	//DEBUG_VALUE: ufs_mq_could_add_cp_flag:lld <- $x0
	//DEBUG_VALUE: ufs_mq_flush_plug_list:list <- [DW_OP_plus_uconst 40, DW_OP_deref] $sp
	.loc	154 186 2               // /mnt/disk/jenkins/workspace/chipset_10.1.0_release_5G/opensource/component_code/vendor/huawei/extra/build/build_script/kirin_kernel_release/kernel/include/linux/compiler.h:186:2
	ldr	x8, [x0, #416]
.Ltmp423:
	.loc	2 933 33                // /mnt/disk/jenkins/workspace/chipset_10.1.0_release_5G/opensource/component_code/vendor/huawei/extra/build/build_script/kirin_kernel_release/kernel/block/hisi-blk-iosched-ufs-mq.c:933:33
	add	x9, x0, #416            // =416
.Ltmp424:
	//DEBUG_VALUE: __read_once_size:p <- $x9
	//DEBUG_VALUE: __read_once_size:p <- $x9
	//DEBUG_VALUE: __read_once_size:size <- 8
	//DEBUG_VALUE: __read_once_size:res <- undef
	//DEBUG_VALUE: list_empty:head <- $x9
	//DEBUG_VALUE: list_empty:head <- $x9
	.loc	2 933 6 is_stmt 0       // /mnt/disk/jenkins/workspace/chipset_10.1.0_release_5G/opensource/component_code/vendor/huawei/extra/build/build_script/kirin_kernel_release/kernel/block/hisi-blk-iosched-ufs-mq.c:933:6
	cmp	x9, x8
	b.eq	.LBB14_32
.Ltmp425:
// %bb.14:                              //   in Loop: Header=BB14_35 Depth=1
	//DEBUG_VALUE: ufs_mq_flush_plug_list:hctx <- $x21
	//DEBUG_VALUE: __ufs_mq_queue_rq:q <- $x20
	//DEBUG_VALUE: ufs_mq_fs_io_limit:q <- $x20
	//DEBUG_VALUE: __ufs_mq_queue_rq:rq <- $x19
	//DEBUG_VALUE: ufs_mq_fs_io_limit:rq <- $x19
	//DEBUG_VALUE: ufs_mq_fs_io_limit:sched_ds_lld <- $x22
	//DEBUG_VALUE: __ufs_mq_queue_rq:sched_ds_lld <- $x22
	//DEBUG_VALUE: ufs_mq_flush_plug_list:q <- $x20
	//DEBUG_VALUE: ufs_mq_flush_plug_list:rq <- $x19
	//DEBUG_VALUE: list_empty:head <- $x9
	//DEBUG_VALUE: __read_once_size:p <- $x9
	//DEBUG_VALUE: ufs_mq_could_add_cp_flag:lld <- $x0
	//DEBUG_VALUE: ufs_mq_flush_plug_list:list <- [DW_OP_plus_uconst 40, DW_OP_deref] $sp
	.loc	156 306 16 is_stmt 1    // /mnt/disk/jenkins/workspace/chipset_10.1.0_release_5G/opensource/component_code/vendor/huawei/extra/build/build_script/kirin_kernel_release/kernel/include/linux/spinlock.h:306:16
	add	x8, x0, #448            // =448
	stp	x0, x8, [sp, #24]       // 16-byte Folded Spill
.Ltmp426:
	.loc	2 934 3                 // /mnt/disk/jenkins/workspace/chipset_10.1.0_release_5G/opensource/component_code/vendor/huawei/extra/build/build_script/kirin_kernel_release/kernel/block/hisi-blk-iosched-ufs-mq.c:934:3
	mov	x0, x8
.Ltmp427:
	.loc	2 0 3 is_stmt 0         // /mnt/disk/jenkins/workspace/chipset_10.1.0_release_5G/opensource/component_code/vendor/huawei/extra/build/build_script/kirin_kernel_release/kernel/block/hisi-blk-iosched-ufs-mq.c:0:3
	stp	x10, x9, [sp, #8]       // 16-byte Folded Spill
	.loc	2 934 3                 // /mnt/disk/jenkins/workspace/chipset_10.1.0_release_5G/opensource/component_code/vendor/huawei/extra/build/build_script/kirin_kernel_release/kernel/block/hisi-blk-iosched-ufs-mq.c:934:3
	bl	_raw_spin_lock_irqsave
.Ltmp428:
	.loc	2 0 3                   // /mnt/disk/jenkins/workspace/chipset_10.1.0_release_5G/opensource/component_code/vendor/huawei/extra/build/build_script/kirin_kernel_release/kernel/block/hisi-blk-iosched-ufs-mq.c:0:3
	ldp	x9, x8, [sp, #16]       // 16-byte Folded Reload
	.loc	2 934 3                 // /mnt/disk/jenkins/workspace/chipset_10.1.0_release_5G/opensource/component_code/vendor/huawei/extra/build/build_script/kirin_kernel_release/kernel/block/hisi-blk-iosched-ufs-mq.c:934:3
	mov	x1, x0
.Ltmp429:
	//DEBUG_VALUE: __read_once_size:size <- 8
	//DEBUG_VALUE: __read_once_size:res <- undef
	//DEBUG_VALUE: ufs_mq_could_add_cp_flag:flags <- $x1
	//DEBUG_VALUE: spin_unlock_irqrestore:flags <- $x1
	.loc	154 186 2 is_stmt 1     // /mnt/disk/jenkins/workspace/chipset_10.1.0_release_5G/opensource/component_code/vendor/huawei/extra/build/build_script/kirin_kernel_release/kernel/include/linux/compiler.h:186:2
	ldr	x8, [x8, #416]
.Ltmp430:
	.loc	2 935 7                 // /mnt/disk/jenkins/workspace/chipset_10.1.0_release_5G/opensource/component_code/vendor/huawei/extra/build/build_script/kirin_kernel_release/kernel/block/hisi-blk-iosched-ufs-mq.c:935:7
	cmp	x9, x8
	b.eq	.LBB14_30
.Ltmp431:
// %bb.15:                              //   in Loop: Header=BB14_35 Depth=1
	//DEBUG_VALUE: ufs_mq_flush_plug_list:hctx <- $x21
	//DEBUG_VALUE: __ufs_mq_queue_rq:q <- $x20
	//DEBUG_VALUE: ufs_mq_fs_io_limit:q <- $x20
	//DEBUG_VALUE: __ufs_mq_queue_rq:rq <- $x19
	//DEBUG_VALUE: ufs_mq_fs_io_limit:rq <- $x19
	//DEBUG_VALUE: ufs_mq_fs_io_limit:sched_ds_lld <- $x22
	//DEBUG_VALUE: __ufs_mq_queue_rq:sched_ds_lld <- $x22
	//DEBUG_VALUE: ufs_mq_flush_plug_list:q <- $x20
	//DEBUG_VALUE: ufs_mq_flush_plug_list:rq <- $x19
	//DEBUG_VALUE: spin_unlock_irqrestore:flags <- $x1
	//DEBUG_VALUE: ufs_mq_could_add_cp_flag:flags <- $x1
	//DEBUG_VALUE: ufs_mq_flush_plug_list:list <- [DW_OP_plus_uconst 40, DW_OP_deref] $sp
	//DEBUG_VALUE: ufs_mq_could_add_cp_flag:oldest_bio <- [DW_OP_constu 280, DW_OP_minus, DW_OP_stack_value] $x8
	.loc	2 940 5                 // /mnt/disk/jenkins/workspace/chipset_10.1.0_release_5G/opensource/component_code/vendor/huawei/extra/build/build_script/kirin_kernel_release/kernel/block/hisi-blk-iosched-ufs-mq.c:940:5
	ldur	x8, [x8, #-136]
.Ltmp432:
	//DEBUG_VALUE: ktime_add_ms:kt <- [DW_OP_plus_uconst 24] [$sp+0]
	//DEBUG_VALUE: ktime_add_ms:kt <- [DW_OP_plus_uconst 24] [$sp+0]
	//DEBUG_VALUE: ufs_mq_could_add_cp_flag:oldest_bio_ktime <- [DW_OP_plus_uconst 24] [$sp+0]
	.loc	2 0 5 is_stmt 0         // /mnt/disk/jenkins/workspace/chipset_10.1.0_release_5G/opensource/component_code/vendor/huawei/extra/build/build_script/kirin_kernel_release/kernel/block/hisi-blk-iosched-ufs-mq.c:0:5
	ldr	x0, [sp, #32]           // 8-byte Folded Reload
	str	x8, [sp, #24]           // 8-byte Folded Spill
.Ltmp433:
	.loc	156 372 2 is_stmt 1     // /mnt/disk/jenkins/workspace/chipset_10.1.0_release_5G/opensource/component_code/vendor/huawei/extra/build/build_script/kirin_kernel_release/kernel/include/linux/spinlock.h:372:2
	bl	_raw_spin_unlock_irqrestore
.Ltmp434:
	//DEBUG_VALUE: ktime_add_ms:kt <- [DW_OP_plus_uconst 24] [$sp+0]
	//DEBUG_VALUE: ktime_add_ms:kt <- undef
	//DEBUG_VALUE: ktime_add_ms:kt <- [DW_OP_plus_uconst 24] [$sp+0]
	//DEBUG_VALUE: ktime_add_ms:kt <- undef
	//DEBUG_VALUE: ufs_mq_could_add_cp_flag:oldest_bio_ktime <- [DW_OP_plus_uconst 24] [$sp+0]
	//DEBUG_VALUE: ufs_mq_could_add_cp_flag:oldest_bio_ktime <- undef
	.loc	156 0 2 is_stmt 0       // /mnt/disk/jenkins/workspace/chipset_10.1.0_release_5G/opensource/component_code/vendor/huawei/extra/build/build_script/kirin_kernel_release/kernel/include/linux/spinlock.h:0:2
	ldr	x8, [sp, #24]           // 8-byte Folded Reload
.Ltmp435:
	.loc	2 946 6 is_stmt 1       // /mnt/disk/jenkins/workspace/chipset_10.1.0_release_5G/opensource/component_code/vendor/huawei/extra/build/build_script/kirin_kernel_release/kernel/block/hisi-blk-iosched-ufs-mq.c:946:6
	cbz	x8, .LBB14_31
.Ltmp436:
// %bb.16:                              //   in Loop: Header=BB14_35 Depth=1
	//DEBUG_VALUE: ufs_mq_flush_plug_list:hctx <- $x21
	//DEBUG_VALUE: __ufs_mq_queue_rq:q <- $x20
	//DEBUG_VALUE: ufs_mq_fs_io_limit:q <- $x20
	//DEBUG_VALUE: __ufs_mq_queue_rq:rq <- $x19
	//DEBUG_VALUE: ufs_mq_fs_io_limit:rq <- $x19
	//DEBUG_VALUE: ufs_mq_fs_io_limit:sched_ds_lld <- $x22
	//DEBUG_VALUE: __ufs_mq_queue_rq:sched_ds_lld <- $x22
	//DEBUG_VALUE: ufs_mq_flush_plug_list:q <- $x20
	//DEBUG_VALUE: ufs_mq_flush_plug_list:rq <- $x19
	//DEBUG_VALUE: ufs_mq_flush_plug_list:list <- [DW_OP_plus_uconst 40, DW_OP_deref] $sp
	.loc	2 949 14                // /mnt/disk/jenkins/workspace/chipset_10.1.0_release_5G/opensource/component_code/vendor/huawei/extra/build/build_script/kirin_kernel_release/kernel/block/hisi-blk-iosched-ufs-mq.c:949:14
	bl	ktime_get
.Ltmp437:
	//DEBUG_VALUE: ufs_mq_could_add_cp_flag:now_ktime <- $x0
	//DEBUG_VALUE: ktime_before:cmp1 <- $x0
	//DEBUG_VALUE: ktime_compare:cmp1 <- $x0
	//DEBUG_VALUE: ktime_before:cmp1 <- $x0
	//DEBUG_VALUE: ktime_compare:cmp1 <- $x0
	.loc	2 0 14 is_stmt 0        // /mnt/disk/jenkins/workspace/chipset_10.1.0_release_5G/opensource/component_code/vendor/huawei/extra/build/build_script/kirin_kernel_release/kernel/block/hisi-blk-iosched-ufs-mq.c:0:14
	ldr	x9, [sp, #24]           // 8-byte Folded Reload
.Ltmp438:
	//DEBUG_VALUE: ktime_add_ms:msec <- 100
	.loc	27 200 9 is_stmt 1      // /mnt/disk/jenkins/workspace/chipset_10.1.0_release_5G/opensource/component_code/vendor/huawei/extra/build/build_script/kirin_kernel_release/kernel/include/linux/ktime.h:200:9
	mov	w8, #57600
	movk	w8, #1525, lsl #16
	add	x8, x9, x8
.Ltmp439:
	//DEBUG_VALUE: ktime_compare:cmp2 <- $x8
	//DEBUG_VALUE: ktime_before:cmp2 <- $x8
	.loc	2 950 6                 // /mnt/disk/jenkins/workspace/chipset_10.1.0_release_5G/opensource/component_code/vendor/huawei/extra/build/build_script/kirin_kernel_release/kernel/block/hisi-blk-iosched-ufs-mq.c:950:6
	cmp	x0, x8
	b.lt	.LBB14_31
.Ltmp440:
// %bb.17:                              //   in Loop: Header=BB14_35 Depth=1
	//DEBUG_VALUE: ufs_mq_flush_plug_list:hctx <- $x21
	//DEBUG_VALUE: __ufs_mq_queue_rq:q <- $x20
	//DEBUG_VALUE: ufs_mq_fs_io_limit:q <- $x20
	//DEBUG_VALUE: __ufs_mq_queue_rq:rq <- $x19
	//DEBUG_VALUE: ufs_mq_fs_io_limit:rq <- $x19
	//DEBUG_VALUE: ufs_mq_fs_io_limit:sched_ds_lld <- $x22
	//DEBUG_VALUE: __ufs_mq_queue_rq:sched_ds_lld <- $x22
	//DEBUG_VALUE: ufs_mq_flush_plug_list:q <- $x20
	//DEBUG_VALUE: ufs_mq_flush_plug_list:rq <- $x19
	//DEBUG_VALUE: ktime_compare:cmp1 <- $x0
	//DEBUG_VALUE: ktime_before:cmp1 <- $x0
	//DEBUG_VALUE: ufs_mq_could_add_cp_flag:now_ktime <- $x0
	//DEBUG_VALUE: ufs_mq_flush_plug_list:list <- [DW_OP_plus_uconst 40, DW_OP_deref] $sp
	.loc	2 0 6 is_stmt 0         // /mnt/disk/jenkins/workspace/chipset_10.1.0_release_5G/opensource/component_code/vendor/huawei/extra/build/build_script/kirin_kernel_release/kernel/block/hisi-blk-iosched-ufs-mq.c:0:6
	ldr	x9, [sp, #24]           // 8-byte Folded Reload
.Ltmp441:
	//DEBUG_VALUE: ktime_add_ms:msec <- 500
	.loc	27 200 9 is_stmt 1      // /mnt/disk/jenkins/workspace/chipset_10.1.0_release_5G/opensource/component_code/vendor/huawei/extra/build/build_script/kirin_kernel_release/kernel/include/linux/ktime.h:200:9
	mov	w8, #25856
	ldr	x10, [sp, #8]           // 8-byte Folded Reload
	movk	w8, #7629, lsl #16
	add	x8, x9, x8
.Ltmp442:
	//DEBUG_VALUE: ktime_compare:cmp2 <- $x8
	//DEBUG_VALUE: ktime_before:cmp2 <- $x8
	.loc	2 954 58                // /mnt/disk/jenkins/workspace/chipset_10.1.0_release_5G/opensource/component_code/vendor/huawei/extra/build/build_script/kirin_kernel_release/kernel/block/hisi-blk-iosched-ufs-mq.c:954:58
	cmp	x0, x8
	b.ge	.LBB14_19
.Ltmp443:
// %bb.18:                              //   in Loop: Header=BB14_35 Depth=1
	//DEBUG_VALUE: ufs_mq_flush_plug_list:hctx <- $x21
	//DEBUG_VALUE: __ufs_mq_queue_rq:q <- $x20
	//DEBUG_VALUE: ufs_mq_fs_io_limit:q <- $x20
	//DEBUG_VALUE: __ufs_mq_queue_rq:rq <- $x19
	//DEBUG_VALUE: ufs_mq_fs_io_limit:rq <- $x19
	//DEBUG_VALUE: ufs_mq_fs_io_limit:sched_ds_lld <- $x22
	//DEBUG_VALUE: __ufs_mq_queue_rq:sched_ds_lld <- $x22
	//DEBUG_VALUE: ufs_mq_flush_plug_list:q <- $x20
	//DEBUG_VALUE: ufs_mq_flush_plug_list:rq <- $x19
	//DEBUG_VALUE: ufs_mq_could_add_cp_flag:now_ktime <- $x0
	//DEBUG_VALUE: ufs_mq_flush_plug_list:list <- [DW_OP_plus_uconst 40, DW_OP_deref] $sp
	//DEBUG_VALUE: __read_once_size:res <- undef
	//DEBUG_VALUE: __read_once_size:size <- 4
	.loc	154 186 2               // /mnt/disk/jenkins/workspace/chipset_10.1.0_release_5G/opensource/component_code/vendor/huawei/extra/build/build_script/kirin_kernel_release/kernel/include/linux/compiler.h:186:2
	ldr	w8, [x22, #12]
.Ltmp444:
	.loc	2 957 19                // /mnt/disk/jenkins/workspace/chipset_10.1.0_release_5G/opensource/component_code/vendor/huawei/extra/build/build_script/kirin_kernel_release/kernel/block/hisi-blk-iosched-ufs-mq.c:957:19
	ldr	w9, [x22, #8]
.Ltmp445:
	.loc	2 953 11                // /mnt/disk/jenkins/workspace/chipset_10.1.0_release_5G/opensource/component_code/vendor/huawei/extra/build/build_script/kirin_kernel_release/kernel/block/hisi-blk-iosched-ufs-mq.c:953:11
	cmp	w8, w9
	b.lo	.LBB14_32
.Ltmp446:
.LBB14_19:                              //   in Loop: Header=BB14_35 Depth=1
	//DEBUG_VALUE: ufs_mq_flush_plug_list:hctx <- $x21
	//DEBUG_VALUE: __ufs_mq_queue_rq:q <- $x20
	//DEBUG_VALUE: ufs_mq_fs_io_limit:q <- $x20
	//DEBUG_VALUE: __ufs_mq_queue_rq:rq <- $x19
	//DEBUG_VALUE: ufs_mq_fs_io_limit:rq <- $x19
	//DEBUG_VALUE: ufs_mq_fs_io_limit:sched_ds_lld <- $x22
	//DEBUG_VALUE: __ufs_mq_queue_rq:sched_ds_lld <- $x22
	//DEBUG_VALUE: ufs_mq_flush_plug_list:q <- $x20
	//DEBUG_VALUE: ufs_mq_flush_plug_list:rq <- $x19
	//DEBUG_VALUE: ufs_mq_flush_plug_list:list <- [DW_OP_plus_uconst 40, DW_OP_deref] $sp
	//DEBUG_VALUE: ufs_mq_fs_io_limit:ret <- 9
	.loc	2 1016 34               // /mnt/disk/jenkins/workspace/chipset_10.1.0_release_5G/opensource/component_code/vendor/huawei/extra/build/build_script/kirin_kernel_release/kernel/block/hisi-blk-iosched-ufs-mq.c:1016:34
	str	w28, [x19, #276]
	b	.LBB14_6
.Ltmp447:
.LBB14_20:                              //   in Loop: Header=BB14_35 Depth=1
	//DEBUG_VALUE: __ufs_mq_queue_rq:q <- $x20
	//DEBUG_VALUE: __ufs_mq_queue_rq:rq <- $x19
	//DEBUG_VALUE: __ufs_mq_queue_rq:sched_ds_lld <- $x22
	//DEBUG_VALUE: ufs_mq_flush_plug_list:q <- $x20
	//DEBUG_VALUE: ufs_mq_flush_plug_list:rq <- $x19
	//DEBUG_VALUE: __ufs_mq_queue_rq:ret <- $w21
	//DEBUG_VALUE: ufs_mq_flush_plug_list:list <- [DW_OP_plus_uconst 40, DW_OP_deref] $sp
	.loc	2 1145 30               // /mnt/disk/jenkins/workspace/chipset_10.1.0_release_5G/opensource/component_code/vendor/huawei/extra/build/build_script/kirin_kernel_release/kernel/block/hisi-blk-iosched-ufs-mq.c:1145:30
	orr	w8, wzr, #0x1
	str	w8, [x19, #276]
.Ltmp448:
	//DEBUG_VALUE: __read_once_size:size <- 4
	//DEBUG_VALUE: __read_once_size:res <- undef
	//DEBUG_VALUE: __read_once_size:p <- [DW_OP_plus_uconst 28, DW_OP_stack_value] $x22
	.loc	154 186 2               // /mnt/disk/jenkins/workspace/chipset_10.1.0_release_5G/opensource/component_code/vendor/huawei/extra/build/build_script/kirin_kernel_release/kernel/include/linux/compiler.h:186:2
	ldr	w8, [x22, #28]
.Ltmp449:
	//DEBUG_VALUE: __read_once_size:p <- [DW_OP_plus_uconst 32, DW_OP_stack_value] $x22
	//DEBUG_VALUE: __read_once_size:size <- 4
	//DEBUG_VALUE: __read_once_size:res <- undef
	.loc	154 186 2 is_stmt 0     // /mnt/disk/jenkins/workspace/chipset_10.1.0_release_5G/opensource/component_code/vendor/huawei/extra/build/build_script/kirin_kernel_release/kernel/include/linux/compiler.h:186:2
	ldr	w9, [x22, #32]
.Ltmp450:
	.loc	154 186 2               // /mnt/disk/jenkins/workspace/chipset_10.1.0_release_5G/opensource/component_code/vendor/huawei/extra/build/build_script/kirin_kernel_release/kernel/include/linux/compiler.h:186:2
	ldr	w10, [x22, #36]
.Ltmp451:
	.loc	2 1147 67 is_stmt 1     // /mnt/disk/jenkins/workspace/chipset_10.1.0_release_5G/opensource/component_code/vendor/huawei/extra/build/build_script/kirin_kernel_release/kernel/block/hisi-blk-iosched-ufs-mq.c:1147:67
	add	w8, w9, w8
.Ltmp452:
	//DEBUG_VALUE: __read_once_size:p <- [DW_OP_plus_uconst 36, DW_OP_stack_value] $x22
	//DEBUG_VALUE: __read_once_size:size <- 4
	//DEBUG_VALUE: __read_once_size:res <- undef
	.loc	2 1148 55               // /mnt/disk/jenkins/workspace/chipset_10.1.0_release_5G/opensource/component_code/vendor/huawei/extra/build/build_script/kirin_kernel_release/kernel/block/hisi-blk-iosched-ufs-mq.c:1148:55
	add	w8, w8, w10
.Ltmp453:
	.loc	2 1147 6                // /mnt/disk/jenkins/workspace/chipset_10.1.0_release_5G/opensource/component_code/vendor/huawei/extra/build/build_script/kirin_kernel_release/kernel/block/hisi-blk-iosched-ufs-mq.c:1147:6
	cmp	w8, #8                  // =8
	b.gt	.LBB14_22
.Ltmp454:
// %bb.21:                              //   in Loop: Header=BB14_35 Depth=1
	//DEBUG_VALUE: __ufs_mq_queue_rq:q <- $x20
	//DEBUG_VALUE: __ufs_mq_queue_rq:rq <- $x19
	//DEBUG_VALUE: __ufs_mq_queue_rq:sched_ds_lld <- $x22
	//DEBUG_VALUE: ufs_mq_flush_plug_list:q <- $x20
	//DEBUG_VALUE: ufs_mq_flush_plug_list:rq <- $x19
	//DEBUG_VALUE: __ufs_mq_queue_rq:ret <- $w21
	//DEBUG_VALUE: ufs_mq_flush_plug_list:list <- [DW_OP_plus_uconst 40, DW_OP_deref] $sp
	.loc	2 1151 31               // /mnt/disk/jenkins/workspace/chipset_10.1.0_release_5G/opensource/component_code/vendor/huawei/extra/build/build_script/kirin_kernel_release/kernel/block/hisi-blk-iosched-ufs-mq.c:1151:31
	orr	w8, wzr, #0x4
	str	w8, [x19, #276]
.Ltmp455:
.LBB14_22:                              //   in Loop: Header=BB14_35 Depth=1
	//DEBUG_VALUE: __ufs_mq_queue_rq:q <- $x20
	//DEBUG_VALUE: __ufs_mq_queue_rq:rq <- $x19
	//DEBUG_VALUE: __ufs_mq_queue_rq:sched_ds_lld <- $x22
	//DEBUG_VALUE: ufs_mq_flush_plug_list:q <- $x20
	//DEBUG_VALUE: ufs_mq_flush_plug_list:rq <- $x19
	//DEBUG_VALUE: __ufs_mq_queue_rq:ret <- $w21
	//DEBUG_VALUE: ufs_mq_flush_plug_list:list <- [DW_OP_plus_uconst 40, DW_OP_deref] $sp
	//DEBUG_VALUE: __ufs_mq_queue_rq:ret <- $w21
	//DEBUG_VALUE: ufs_mq_rq_inflight_update:update_complete_time <- 0
	.loc	2 1077 6                // /mnt/disk/jenkins/workspace/chipset_10.1.0_release_5G/opensource/component_code/vendor/huawei/extra/build/build_script/kirin_kernel_release/kernel/block/hisi-blk-iosched-ufs-mq.c:1077:6
	ldr	w8, [x19, #84]
	tbz	w8, #11, .LBB14_7
.Ltmp456:
.LBB14_23:                              //   in Loop: Header=BB14_35 Depth=1
	//DEBUG_VALUE: __ufs_mq_queue_rq:q <- $x20
	//DEBUG_VALUE: __ufs_mq_queue_rq:rq <- $x19
	//DEBUG_VALUE: __ufs_mq_queue_rq:sched_ds_lld <- $x22
	//DEBUG_VALUE: ufs_mq_flush_plug_list:q <- $x20
	//DEBUG_VALUE: ufs_mq_flush_plug_list:rq <- $x19
	//DEBUG_VALUE: __ufs_mq_queue_rq:ret <- $w21
	//DEBUG_VALUE: ufs_mq_flush_plug_list:list <- [DW_OP_plus_uconst 40, DW_OP_deref] $sp
	//DEBUG_VALUE: atomic_sub:i <- 1
	//DEBUG_VALUE: atomic_sub:i <- 1
	.loc	2 1078 7                // /mnt/disk/jenkins/workspace/chipset_10.1.0_release_5G/opensource/component_code/vendor/huawei/extra/build/build_script/kirin_kernel_release/kernel/block/hisi-blk-iosched-ufs-mq.c:1078:7
	tst	w8, w24
	b.ne	.LBB14_33
.Ltmp457:
// %bb.24:                              //   in Loop: Header=BB14_35 Depth=1
	//DEBUG_VALUE: __ufs_mq_queue_rq:q <- $x20
	//DEBUG_VALUE: __ufs_mq_queue_rq:rq <- $x19
	//DEBUG_VALUE: __ufs_mq_queue_rq:sched_ds_lld <- $x22
	//DEBUG_VALUE: ufs_mq_flush_plug_list:q <- $x20
	//DEBUG_VALUE: ufs_mq_flush_plug_list:rq <- $x19
	//DEBUG_VALUE: __ufs_mq_queue_rq:ret <- $w21
	//DEBUG_VALUE: ufs_mq_flush_plug_list:list <- [DW_OP_plus_uconst 40, DW_OP_deref] $sp
	.loc	152 114 1               // /mnt/disk/jenkins/workspace/chipset_10.1.0_release_5G/opensource/component_code/vendor/huawei/extra/build/build_script/kirin_kernel_release/kernel/arch/arm64/include/asm/atomic_ll_sc.h:114:1
	add	x8, x22, #32            // =32
	//APP
	// atomic_sub
	prfm	pstl1strm, [x8]
1:	ldxr	w9, [x8]
	sub	w9, w9, #1
	stxr	w10, w9, [x8]
	cbnz	w10, 1b
	//NO_APP
	b	.LBB14_39
.Ltmp458:
.LBB14_25:                              //   in Loop: Header=BB14_35 Depth=1
	//DEBUG_VALUE: blk_mq_put_ctx:ctx <- $x0
	//DEBUG_VALUE: ufs_mq_flush_plug_list:ret <- $w21
	//DEBUG_VALUE: ufs_mq_flush_plug_list:q <- $x20
	//DEBUG_VALUE: ufs_mq_flush_plug_list:rq <- $x19
	//DEBUG_VALUE: ufs_mq_flush_plug_list:list <- [DW_OP_plus_uconst 40, DW_OP_deref] $sp
	.loc	10 114 3 is_stmt 0      // /mnt/disk/jenkins/workspace/chipset_10.1.0_release_5G/opensource/component_code/vendor/huawei/extra/build/build_script/kirin_kernel_release/kernel/block/blk-mq.h:114:3
	bl	preempt_schedule
.Ltmp459:
	.loc	2 1378 7 is_stmt 1      // /mnt/disk/jenkins/workspace/chipset_10.1.0_release_5G/opensource/component_code/vendor/huawei/extra/build/build_script/kirin_kernel_release/kernel/block/hisi-blk-iosched-ufs-mq.c:1378:7
	cbz	w21, .LBB14_45
.Ltmp460:
.LBB14_26:                              //   in Loop: Header=BB14_35 Depth=1
	//DEBUG_VALUE: ufs_mq_flush_plug_list:ret <- $w21
	//DEBUG_VALUE: ufs_mq_flush_plug_list:q <- $x20
	//DEBUG_VALUE: ufs_mq_flush_plug_list:rq <- $x19
	//DEBUG_VALUE: ufs_mq_flush_plug_list:list <- [DW_OP_plus_uconst 40, DW_OP_deref] $sp
	cmp	w21, #9                 // =9
	b.ne	.LBB14_28
.Ltmp461:
// %bb.27:                              //   in Loop: Header=BB14_35 Depth=1
	//DEBUG_VALUE: ufs_mq_flush_plug_list:ret <- $w21
	//DEBUG_VALUE: ufs_mq_flush_plug_list:q <- $x20
	//DEBUG_VALUE: ufs_mq_flush_plug_list:rq <- $x19
	//DEBUG_VALUE: ufs_mq_flush_plug_list:list <- [DW_OP_plus_uconst 40, DW_OP_deref] $sp
	.loc	2 1380 5                // /mnt/disk/jenkins/workspace/chipset_10.1.0_release_5G/opensource/component_code/vendor/huawei/extra/build/build_script/kirin_kernel_release/kernel/block/hisi-blk-iosched-ufs-mq.c:1380:5
	mov	x0, x19
	bl	__blk_mq_requeue_request
	.loc	2 1381 5                // /mnt/disk/jenkins/workspace/chipset_10.1.0_release_5G/opensource/component_code/vendor/huawei/extra/build/build_script/kirin_kernel_release/kernel/block/hisi-blk-iosched-ufs-mq.c:1381:5
	mov	x0, x19
	mov	x1, x20
	bl	ufs_mq_insert_sync_list
.Ltmp462:
	//DEBUG_VALUE: ufs_mq_run_delay_sync_list:delay_jiffies <- 0
	.loc	2 1172 46               // /mnt/disk/jenkins/workspace/chipset_10.1.0_release_5G/opensource/component_code/vendor/huawei/extra/build/build_script/kirin_kernel_release/kernel/block/hisi-blk-iosched-ufs-mq.c:1172:46
	ldr	x19, [x20, #1792]
.Ltmp463:
	//DEBUG_VALUE: ufs_mq_run_delay_sync_list:sched_ds <- $x19
	.loc	2 1174 21               // /mnt/disk/jenkins/workspace/chipset_10.1.0_release_5G/opensource/component_code/vendor/huawei/extra/build/build_script/kirin_kernel_release/kernel/block/hisi-blk-iosched-ufs-mq.c:1174:21
	adrp	x8, hisi_blk_mq_sync_dispatch_workqueue
	ldr	x1, [x8, :lo12:hisi_blk_mq_sync_dispatch_workqueue]
.Ltmp464:
	.loc	78 506 9                // /mnt/disk/jenkins/workspace/chipset_10.1.0_release_5G/opensource/component_code/vendor/huawei/extra/build/build_script/kirin_kernel_release/kernel/include/linux/workqueue.h:506:9
	orr	w0, wzr, #0x8
.Ltmp465:
	.loc	2 1175 36               // /mnt/disk/jenkins/workspace/chipset_10.1.0_release_5G/opensource/component_code/vendor/huawei/extra/build/build_script/kirin_kernel_release/kernel/block/hisi-blk-iosched-ufs-mq.c:1175:36
	add	x2, x19, #32            // =32
.Ltmp466:
	//DEBUG_VALUE: queue_delayed_work:dwork <- $x2
	//DEBUG_VALUE: queue_delayed_work:delay <- 0
	//DEBUG_VALUE: queue_delayed_work:wq <- $x1
	.loc	78 506 9                // /mnt/disk/jenkins/workspace/chipset_10.1.0_release_5G/opensource/component_code/vendor/huawei/extra/build/build_script/kirin_kernel_release/kernel/include/linux/workqueue.h:506:9
	mov	x3, xzr
	bl	queue_delayed_work_on
.Ltmp467:
	.loc	2 1177 52               // /mnt/disk/jenkins/workspace/chipset_10.1.0_release_5G/opensource/component_code/vendor/huawei/extra/build/build_script/kirin_kernel_release/kernel/block/hisi-blk-iosched-ufs-mq.c:1177:52
	bl	ktime_get
	.loc	2 1177 50 is_stmt 0     // /mnt/disk/jenkins/workspace/chipset_10.1.0_release_5G/opensource/component_code/vendor/huawei/extra/build/build_script/kirin_kernel_release/kernel/block/hisi-blk-iosched-ufs-mq.c:1177:50
	str	x0, [x19, #8]
	b	.LBB14_45
.Ltmp468:
.LBB14_28:                              //   in Loop: Header=BB14_35 Depth=1
	//DEBUG_VALUE: ufs_mq_flush_plug_list:ret <- $w21
	//DEBUG_VALUE: ufs_mq_flush_plug_list:q <- $x20
	//DEBUG_VALUE: ufs_mq_flush_plug_list:rq <- $x19
	//DEBUG_VALUE: ufs_mq_flush_plug_list:list <- [DW_OP_plus_uconst 40, DW_OP_deref] $sp
	.loc	2 1384 5 is_stmt 1      // /mnt/disk/jenkins/workspace/chipset_10.1.0_release_5G/opensource/component_code/vendor/huawei/extra/build/build_script/kirin_kernel_release/kernel/block/hisi-blk-iosched-ufs-mq.c:1384:5
	mov	w1, #10
	mov	x0, x19
	bl	blk_mq_end_request
	b	.LBB14_45
.Ltmp469:
.LBB14_29:                              //   in Loop: Header=BB14_35 Depth=1
	//DEBUG_VALUE: ufs_mq_flush_plug_list:hctx <- $x21
	//DEBUG_VALUE: __ufs_mq_queue_rq:q <- $x20
	//DEBUG_VALUE: ufs_mq_fs_io_limit:q <- $x20
	//DEBUG_VALUE: __ufs_mq_queue_rq:rq <- $x19
	//DEBUG_VALUE: ufs_mq_fs_io_limit:rq <- $x19
	//DEBUG_VALUE: ufs_mq_fs_io_limit:sched_ds_lld <- $x22
	//DEBUG_VALUE: __ufs_mq_queue_rq:sched_ds_lld <- $x22
	//DEBUG_VALUE: ufs_mq_flush_plug_list:q <- $x20
	//DEBUG_VALUE: ufs_mq_flush_plug_list:rq <- $x19
	//DEBUG_VALUE: ufs_mq_flush_plug_list:list <- [DW_OP_plus_uconst 40, DW_OP_deref] $sp
	.loc	152 113 1               // /mnt/disk/jenkins/workspace/chipset_10.1.0_release_5G/opensource/component_code/vendor/huawei/extra/build/build_script/kirin_kernel_release/kernel/arch/arm64/include/asm/atomic_ll_sc.h:113:1
	add	x10, x22, #12           // =12
	b	.LBB14_32
.Ltmp470:
.LBB14_30:                              //   in Loop: Header=BB14_35 Depth=1
	//DEBUG_VALUE: ufs_mq_flush_plug_list:hctx <- $x21
	//DEBUG_VALUE: __ufs_mq_queue_rq:q <- $x20
	//DEBUG_VALUE: ufs_mq_fs_io_limit:q <- $x20
	//DEBUG_VALUE: __ufs_mq_queue_rq:rq <- $x19
	//DEBUG_VALUE: ufs_mq_fs_io_limit:rq <- $x19
	//DEBUG_VALUE: ufs_mq_fs_io_limit:sched_ds_lld <- $x22
	//DEBUG_VALUE: __ufs_mq_queue_rq:sched_ds_lld <- $x22
	//DEBUG_VALUE: ufs_mq_flush_plug_list:q <- $x20
	//DEBUG_VALUE: ufs_mq_flush_plug_list:rq <- $x19
