	.text
	.file	"hisi-blk-busy-idle-notify.c"
                                        // Start of file scope inline assembly
	.section "___kcrctab+blk_busy_idle_event_subscriber", "a"	
	.weak	__crc_blk_busy_idle_event_subscriber	
	.long	__crc_blk_busy_idle_event_subscriber	
	.previous					
	.section "___kcrctab+blk_queue_busy_idle_event_subscriber", "a"	
	.weak	__crc_blk_queue_busy_idle_event_subscriber	
	.long	__crc_blk_queue_busy_idle_event_subscriber	
	.previous					
	.section "___kcrctab+blk_lld_busy_idle_event_subscriber", "a"	
	.weak	__crc_blk_lld_busy_idle_event_subscriber	
	.long	__crc_blk_lld_busy_idle_event_subscriber	
	.previous					
	.section "___kcrctab+blk_busy_idle_event_unsubscriber", "a"	
	.weak	__crc_blk_busy_idle_event_unsubscriber	
	.long	__crc_blk_busy_idle_event_unsubscriber	
	.previous					
	.section "___kcrctab+blk_queue_busy_idle_event_unsubscriber", "a"	
	.weak	__crc_blk_queue_busy_idle_event_unsubscriber	
	.long	__crc_blk_queue_busy_idle_event_unsubscriber	
	.previous					
	.section "___kcrctab+blk_queue_busy_idle_enable", "a"	
	.weak	__crc_blk_queue_busy_idle_enable	
	.long	__crc_blk_queue_busy_idle_enable	
	.previous					
	.section "___kcrctab+blk_mq_tagset_busy_idle_enable", "a"	
	.weak	__crc_blk_mq_tagset_busy_idle_enable	
	.long	__crc_blk_mq_tagset_busy_idle_enable	
	.previous					
	.section "___kcrctab+blk_mq_tagset_hw_idle_notify_enable", "a"	
	.weak	__crc_blk_mq_tagset_hw_idle_notify_enable	
	.long	__crc_blk_mq_tagset_hw_idle_notify_enable	
	.previous					

                                        // End of file scope inline assembly
	.file	1 "/mnt/disk/jenkins/workspace/chipset_10.1.0_release_5G/opensource/component_code/vendor/huawei/extra/build/build_script/kirin_kernel_release/kernel/include/linux/lockdep.h"
	.file	2 "/mnt/disk/jenkins/workspace/chipset_10.1.0_release_5G/opensource/component_code/vendor/huawei/extra/build/build_script/kirin_kernel_release/kernel/block/hisi-blk-busy-idle-notify.c"
	.file	3 "/mnt/disk/jenkins/workspace/chipset_10.1.0_release_5G/opensource/component_code/vendor/huawei/extra/build/build_script/kirin_kernel_release/kernel/include/linux/export.h"
	.file	4 "/mnt/disk/jenkins/workspace/chipset_10.1.0_release_5G/opensource/component_code/vendor/huawei/extra/build/build_script/kirin_kernel_release/kernel/include/linux/blkdev.h"
	.file	5 "/mnt/disk/jenkins/workspace/chipset_10.1.0_release_5G/opensource/component_code/vendor/huawei/extra/build/build_script/kirin_kernel_release/kernel/include/linux/kobject_ns.h"
	.file	6 "/mnt/disk/jenkins/workspace/chipset_10.1.0_release_5G/opensource/component_code/vendor/huawei/extra/build/build_script/kirin_kernel_release/kernel/include/linux/hrtimer.h"
	.file	7 "/mnt/disk/jenkins/workspace/chipset_10.1.0_release_5G/opensource/component_code/vendor/huawei/extra/build/build_script/kirin_kernel_release/kernel/include/linux/module.h"
	.file	8 "/mnt/disk/jenkins/workspace/chipset_10.1.0_release_5G/opensource/component_code/vendor/huawei/extra/build/build_script/kirin_kernel_release/kernel/include/linux/quota.h"
	.file	9 "/mnt/disk/jenkins/workspace/chipset_10.1.0_release_5G/opensource/component_code/vendor/huawei/extra/build/build_script/kirin_kernel_release/kernel/include/linux/fs.h"
	.file	10 "/mnt/disk/jenkins/workspace/chipset_10.1.0_release_5G/opensource/component_code/vendor/huawei/extra/build/build_script/kirin_kernel_release/kernel/include/linux/pid.h"
	.file	11 "/mnt/disk/jenkins/workspace/chipset_10.1.0_release_5G/opensource/component_code/vendor/huawei/extra/build/build_script/kirin_kernel_release/kernel/include/linux/device.h"
	.file	12 "/mnt/disk/jenkins/workspace/chipset_10.1.0_release_5G/opensource/component_code/vendor/huawei/extra/build/build_script/kirin_kernel_release/kernel/include/linux/pm.h"
	.file	13 "/mnt/disk/jenkins/workspace/chipset_10.1.0_release_5G/opensource/component_code/vendor/huawei/extra/build/build_script/kirin_kernel_release/kernel/include/linux/rcu_sync.h"
	.file	14 "/mnt/disk/jenkins/workspace/chipset_10.1.0_release_5G/opensource/component_code/vendor/huawei/extra/build/build_script/kirin_kernel_release/kernel/include/linux/migrate_mode.h"
	.file	15 "/mnt/disk/jenkins/workspace/chipset_10.1.0_release_5G/opensource/component_code/vendor/huawei/extra/build/build_script/kirin_kernel_release/kernel/include/linux/memremap.h"
	.file	16 "/mnt/disk/jenkins/workspace/chipset_10.1.0_release_5G/opensource/component_code/vendor/huawei/extra/build/build_script/kirin_kernel_release/kernel/include/linux/mm.h"
	.file	17 "/mnt/disk/jenkins/workspace/chipset_10.1.0_release_5G/opensource/component_code/vendor/huawei/extra/build/build_script/kirin_kernel_release/kernel/include/linux/restart_block.h"
	.file	18 "/mnt/disk/jenkins/workspace/chipset_10.1.0_release_5G/opensource/component_code/vendor/huawei/extra/build/build_script/kirin_kernel_release/kernel/include/linux/elevator.h"
	.file	19 "/mnt/disk/jenkins/workspace/chipset_10.1.0_release_5G/opensource/component_code/vendor/huawei/extra/build/build_script/kirin_kernel_release/kernel/block/hisi-blk.h"
	.file	20 "/mnt/disk/jenkins/workspace/chipset_10.1.0_release_5G/opensource/component_code/vendor/huawei/extra/build/build_script/kirin_kernel_release/kernel/include/linux/stddef.h"
	.file	21 "/mnt/disk/jenkins/workspace/chipset_10.1.0_release_5G/opensource/component_code/vendor/huawei/extra/build/build_script/kirin_kernel_release/kernel/include/linux/workqueue.h"
	.file	22 "/mnt/disk/jenkins/workspace/chipset_10.1.0_release_5G/opensource/component_code/vendor/huawei/extra/build/build_script/kirin_kernel_release/kernel/include/linux/types.h"
	.file	23 "/mnt/disk/jenkins/workspace/chipset_10.1.0_release_5G/opensource/component_code/vendor/huawei/extra/build/build_script/kirin_kernel_release/kernel/block/hisi-blk-busy-idle-notify.h"
	.file	24 "/mnt/disk/jenkins/workspace/chipset_10.1.0_release_5G/opensource/component_code/vendor/huawei/extra/build/build_script/kirin_kernel_release/kernel/include/linux/llist.h"
	.file	25 "/mnt/disk/jenkins/workspace/chipset_10.1.0_release_5G/opensource/component_code/vendor/huawei/extra/build/build_script/kirin_kernel_release/kernel/include/linux/smp.h"
	.file	26 "/mnt/disk/jenkins/workspace/chipset_10.1.0_release_5G/opensource/component_code/vendor/huawei/extra/build/build_script/kirin_kernel_release/kernel/include/asm-generic/int-ll64.h"
	.file	27 "/mnt/disk/jenkins/workspace/chipset_10.1.0_release_5G/opensource/component_code/vendor/huawei/extra/build/build_script/kirin_kernel_release/kernel/arch/arm64/include/asm/spinlock_types.h"
	.file	28 "/mnt/disk/jenkins/workspace/chipset_10.1.0_release_5G/opensource/component_code/vendor/huawei/extra/build/build_script/kirin_kernel_release/kernel/include/linux/spinlock_types.h"
	.file	29 "/mnt/disk/jenkins/workspace/chipset_10.1.0_release_5G/opensource/component_code/vendor/huawei/extra/build/build_script/kirin_kernel_release/kernel/block/blk-mq.h"
	.file	30 "/mnt/disk/jenkins/workspace/chipset_10.1.0_release_5G/opensource/component_code/vendor/huawei/extra/build/build_script/kirin_kernel_release/kernel/include/linux/kobject.h"
	.file	31 "/mnt/disk/jenkins/workspace/chipset_10.1.0_release_5G/opensource/component_code/vendor/huawei/extra/build/build_script/kirin_kernel_release/kernel/include/uapi/asm-generic/posix_types.h"
	.file	32 "/mnt/disk/jenkins/workspace/chipset_10.1.0_release_5G/opensource/component_code/vendor/huawei/extra/build/build_script/kirin_kernel_release/kernel/include/linux/sysfs.h"
	.file	33 "/mnt/disk/jenkins/workspace/chipset_10.1.0_release_5G/opensource/component_code/vendor/huawei/extra/build/build_script/kirin_kernel_release/kernel/include/linux/kernfs.h"
	.file	34 "/mnt/disk/jenkins/workspace/chipset_10.1.0_release_5G/opensource/component_code/vendor/huawei/extra/build/build_script/kirin_kernel_release/kernel/include/linux/rbtree.h"
	.file	35 "/mnt/disk/jenkins/workspace/chipset_10.1.0_release_5G/opensource/component_code/vendor/huawei/extra/build/build_script/kirin_kernel_release/kernel/include/linux/radix-tree.h"
	.file	36 "/mnt/disk/jenkins/workspace/chipset_10.1.0_release_5G/opensource/component_code/vendor/huawei/extra/build/build_script/kirin_kernel_release/kernel/include/linux/idr.h"
	.file	37 "/mnt/disk/jenkins/workspace/chipset_10.1.0_release_5G/opensource/component_code/vendor/huawei/extra/build/build_script/kirin_kernel_release/kernel/include/linux/seq_file.h"
	.file	38 "/mnt/disk/jenkins/workspace/chipset_10.1.0_release_5G/opensource/component_code/vendor/huawei/extra/build/build_script/kirin_kernel_release/kernel/include/asm-generic/atomic-long.h"
	.file	39 "/mnt/disk/jenkins/workspace/chipset_10.1.0_release_5G/opensource/component_code/vendor/huawei/extra/build/build_script/kirin_kernel_release/kernel/include/linux/mutex.h"
	.file	40 "/mnt/disk/jenkins/workspace/chipset_10.1.0_release_5G/opensource/component_code/vendor/huawei/extra/build/build_script/kirin_kernel_release/kernel/include/linux/osq_lock.h"
	.file	41 "/mnt/disk/jenkins/workspace/chipset_10.1.0_release_5G/opensource/component_code/vendor/huawei/extra/build/build_script/kirin_kernel_release/kernel/arch/arm64/include/asm/thread_info.h"
	.file	42 "/mnt/disk/jenkins/workspace/chipset_10.1.0_release_5G/opensource/component_code/vendor/huawei/extra/build/build_script/kirin_kernel_release/kernel/include/linux/sched.h"
	.file	43 "/mnt/disk/jenkins/workspace/chipset_10.1.0_release_5G/opensource/component_code/vendor/huawei/extra/build/build_script/kirin_kernel_release/kernel/include/linux/cpumask.h"
	.file	44 "/mnt/disk/jenkins/workspace/chipset_10.1.0_release_5G/opensource/component_code/vendor/huawei/extra/build/build_script/kirin_kernel_release/kernel/include/linux/timerqueue.h"
	.file	45 "/mnt/disk/jenkins/workspace/chipset_10.1.0_release_5G/opensource/component_code/vendor/huawei/extra/build/build_script/kirin_kernel_release/kernel/include/linux/ktime.h"
	.file	46 "/mnt/disk/jenkins/workspace/chipset_10.1.0_release_5G/opensource/component_code/vendor/huawei/extra/build/build_script/kirin_kernel_release/kernel/include/linux/seqlock.h"
	.file	47 "/mnt/disk/jenkins/workspace/chipset_10.1.0_release_5G/opensource/component_code/vendor/huawei/extra/build/build_script/kirin_kernel_release/kernel/include/linux/plist.h"
	.file	48 "/mnt/disk/jenkins/workspace/chipset_10.1.0_release_5G/opensource/component_code/vendor/huawei/extra/build/build_script/kirin_kernel_release/kernel/include/linux/mm_types.h"
	.file	49 "/mnt/disk/jenkins/workspace/chipset_10.1.0_release_5G/opensource/component_code/vendor/huawei/extra/build/build_script/kirin_kernel_release/kernel/arch/arm64/include/asm/pgtable-types.h"
	.file	50 "/mnt/disk/jenkins/workspace/chipset_10.1.0_release_5G/opensource/component_code/vendor/huawei/extra/build/build_script/kirin_kernel_release/kernel/include/asm-generic/pgtable-nop4d-hack.h"
	.file	51 "/mnt/disk/jenkins/workspace/chipset_10.1.0_release_5G/opensource/component_code/vendor/huawei/extra/build/build_script/kirin_kernel_release/kernel/include/linux/uidgid.h"
	.file	52 "/mnt/disk/jenkins/workspace/chipset_10.1.0_release_5G/opensource/component_code/vendor/huawei/extra/build/build_script/kirin_kernel_release/kernel/include/linux/dcache.h"
	.file	53 "/mnt/disk/jenkins/workspace/chipset_10.1.0_release_5G/opensource/component_code/vendor/huawei/extra/build/build_script/kirin_kernel_release/kernel/include/linux/list_bl.h"
	.file	54 "/mnt/disk/jenkins/workspace/chipset_10.1.0_release_5G/opensource/component_code/vendor/huawei/extra/build/build_script/kirin_kernel_release/kernel/include/linux/lockref.h"
	.file	55 "/mnt/disk/jenkins/workspace/chipset_10.1.0_release_5G/opensource/component_code/vendor/huawei/extra/build/build_script/kirin_kernel_release/kernel/include/linux/path.h"
	.file	56 "/mnt/disk/jenkins/workspace/chipset_10.1.0_release_5G/opensource/component_code/vendor/huawei/extra/build/build_script/kirin_kernel_release/kernel/include/uapi/asm-generic/int-ll64.h"
	.file	57 "/mnt/disk/jenkins/workspace/chipset_10.1.0_release_5G/opensource/component_code/vendor/huawei/extra/build/build_script/kirin_kernel_release/kernel/include/linux/completion.h"
	.file	58 "/mnt/disk/jenkins/workspace/chipset_10.1.0_release_5G/opensource/component_code/vendor/huawei/extra/build/build_script/kirin_kernel_release/kernel/include/linux/wait.h"
	.file	59 "/mnt/disk/jenkins/workspace/chipset_10.1.0_release_5G/opensource/component_code/vendor/huawei/extra/build/build_script/kirin_kernel_release/kernel/include/linux/cfi.h"
	.file	60 "/mnt/disk/jenkins/workspace/chipset_10.1.0_release_5G/opensource/component_code/vendor/huawei/extra/build/build_script/kirin_kernel_release/kernel/include/linux/moduleparam.h"
	.file	61 "/mnt/disk/jenkins/workspace/chipset_10.1.0_release_5G/opensource/component_code/vendor/huawei/extra/build/build_script/kirin_kernel_release/kernel/arch/arm64/include/asm/extable.h"
	.file	62 "/mnt/disk/jenkins/workspace/chipset_10.1.0_release_5G/opensource/component_code/vendor/huawei/extra/build/build_script/kirin_kernel_release/kernel/include/linux/rbtree_latch.h"
	.file	63 "/mnt/disk/jenkins/workspace/chipset_10.1.0_release_5G/opensource/component_code/vendor/huawei/extra/build/build_script/kirin_kernel_release/kernel/include/uapi/linux/elf.h"
	.file	64 "/mnt/disk/jenkins/workspace/chipset_10.1.0_release_5G/opensource/component_code/vendor/huawei/extra/build/build_script/kirin_kernel_release/kernel/arch/arm64/include/asm/module.h"
	.file	65 "/mnt/disk/jenkins/workspace/chipset_10.1.0_release_5G/opensource/component_code/vendor/huawei/extra/build/build_script/kirin_kernel_release/kernel/include/uapi/linux/types.h"
	.file	66 "/mnt/disk/jenkins/workspace/chipset_10.1.0_release_5G/opensource/component_code/vendor/huawei/extra/build/build_script/kirin_kernel_release/kernel/include/asm-generic/bug.h"
	.file	67 "/mnt/disk/jenkins/workspace/chipset_10.1.0_release_5G/opensource/component_code/vendor/huawei/extra/build/build_script/kirin_kernel_release/kernel/include/linux/tracepoint-defs.h"
	.file	68 "/mnt/disk/jenkins/workspace/chipset_10.1.0_release_5G/opensource/component_code/vendor/huawei/extra/build/build_script/kirin_kernel_release/kernel/include/linux/jump_label.h"
	.file	69 "/mnt/disk/jenkins/workspace/chipset_10.1.0_release_5G/opensource/component_code/vendor/huawei/extra/build/build_script/kirin_kernel_release/kernel/include/linux/tracepoint.h"
	.file	70 "/mnt/disk/jenkins/workspace/chipset_10.1.0_release_5G/opensource/component_code/vendor/huawei/extra/build/build_script/kirin_kernel_release/kernel/include/linux/projid.h"
	.file	71 "/mnt/disk/jenkins/workspace/chipset_10.1.0_release_5G/opensource/component_code/vendor/huawei/extra/build/build_script/kirin_kernel_release/kernel/include/linux/time64.h"
	.file	72 "/mnt/disk/jenkins/workspace/chipset_10.1.0_release_5G/opensource/component_code/vendor/huawei/extra/build/build_script/kirin_kernel_release/kernel/include/linux/shrinker.h"
	.file	73 "/mnt/disk/jenkins/workspace/chipset_10.1.0_release_5G/opensource/component_code/vendor/huawei/extra/build/build_script/kirin_kernel_release/kernel/include/linux/rwsem.h"
	.file	74 "/mnt/disk/jenkins/workspace/chipset_10.1.0_release_5G/opensource/component_code/vendor/huawei/extra/build/build_script/kirin_kernel_release/kernel/include/linux/genhd.h"
	.file	75 "/mnt/disk/jenkins/workspace/chipset_10.1.0_release_5G/opensource/component_code/vendor/huawei/extra/build/build_script/kirin_kernel_release/kernel/include/linux/uio.h"
	.file	76 "/mnt/disk/jenkins/workspace/chipset_10.1.0_release_5G/opensource/component_code/vendor/huawei/extra/build/build_script/kirin_kernel_release/kernel/include/uapi/linux/uio.h"
	.file	77 "/mnt/disk/jenkins/workspace/chipset_10.1.0_release_5G/opensource/component_code/vendor/huawei/extra/build/build_script/kirin_kernel_release/kernel/include/linux/bvec.h"
	.file	78 "/mnt/disk/jenkins/workspace/chipset_10.1.0_release_5G/opensource/component_code/vendor/huawei/extra/build/build_script/kirin_kernel_release/kernel/include/linux/poll.h"
	.file	79 "/mnt/disk/jenkins/workspace/chipset_10.1.0_release_5G/opensource/component_code/vendor/huawei/extra/build/build_script/kirin_kernel_release/kernel/include/linux/nfs_fs_i.h"
	.file	80 "/mnt/disk/jenkins/workspace/chipset_10.1.0_release_5G/opensource/component_code/vendor/huawei/extra/build/build_script/kirin_kernel_release/kernel/include/linux/rwlock_types.h"
	.file	81 "/mnt/disk/jenkins/workspace/chipset_10.1.0_release_5G/opensource/component_code/vendor/huawei/extra/build/build_script/kirin_kernel_release/kernel/include/linux/cred.h"
	.file	82 "/mnt/disk/jenkins/workspace/chipset_10.1.0_release_5G/opensource/component_code/vendor/huawei/extra/build/build_script/kirin_kernel_release/kernel/include/linux/capability.h"
	.file	83 "/mnt/disk/jenkins/workspace/chipset_10.1.0_release_5G/opensource/component_code/vendor/huawei/extra/build/build_script/kirin_kernel_release/kernel/include/linux/refcount.h"
	.file	84 "/mnt/disk/jenkins/workspace/chipset_10.1.0_release_5G/opensource/component_code/vendor/huawei/extra/build/build_script/kirin_kernel_release/kernel/include/linux/key.h"
	.file	85 "/mnt/disk/jenkins/workspace/chipset_10.1.0_release_5G/opensource/component_code/vendor/huawei/extra/build/build_script/kirin_kernel_release/kernel/include/linux/assoc_array.h"
	.file	86 "/mnt/disk/jenkins/workspace/chipset_10.1.0_release_5G/opensource/component_code/vendor/huawei/extra/build/build_script/kirin_kernel_release/kernel/include/linux/sched/user.h"
	.file	87 "/mnt/disk/jenkins/workspace/chipset_10.1.0_release_5G/opensource/component_code/vendor/huawei/extra/build/build_script/kirin_kernel_release/kernel/include/linux/errseq.h"
	.file	88 "/mnt/disk/jenkins/workspace/chipset_10.1.0_release_5G/opensource/component_code/vendor/huawei/extra/build/build_script/kirin_kernel_release/kernel/include/linux/pm_wakeup.h"
	.file	89 "/mnt/disk/jenkins/workspace/chipset_10.1.0_release_5G/opensource/component_code/vendor/huawei/extra/build/build_script/kirin_kernel_release/kernel/include/linux/timer.h"
	.file	90 "/mnt/disk/jenkins/workspace/chipset_10.1.0_release_5G/opensource/component_code/vendor/huawei/extra/build/build_script/kirin_kernel_release/kernel/include/linux/pinctrl/devinfo.h"
	.file	91 "/mnt/disk/jenkins/workspace/chipset_10.1.0_release_5G/opensource/component_code/vendor/huawei/extra/build/build_script/kirin_kernel_release/kernel/arch/arm64/include/asm/device.h"
	.file	92 "/mnt/disk/jenkins/workspace/chipset_10.1.0_release_5G/opensource/component_code/vendor/huawei/extra/build/build_script/kirin_kernel_release/kernel/include/linux/klist.h"
	.file	93 "/mnt/disk/jenkins/workspace/chipset_10.1.0_release_5G/opensource/component_code/vendor/huawei/extra/build/build_script/kirin_kernel_release/kernel/include/linux/kref.h"
	.file	94 "/mnt/disk/jenkins/workspace/chipset_10.1.0_release_5G/opensource/component_code/vendor/huawei/extra/build/build_script/kirin_kernel_release/kernel/include/linux/percpu-refcount.h"
	.file	95 "/mnt/disk/jenkins/workspace/chipset_10.1.0_release_5G/opensource/component_code/vendor/huawei/extra/build/build_script/kirin_kernel_release/kernel/include/linux/backing-dev-defs.h"
	.file	96 "/mnt/disk/jenkins/workspace/chipset_10.1.0_release_5G/opensource/component_code/vendor/huawei/extra/build/build_script/kirin_kernel_release/kernel/include/linux/percpu_counter.h"
	.file	97 "/mnt/disk/jenkins/workspace/chipset_10.1.0_release_5G/opensource/component_code/vendor/huawei/extra/build/build_script/kirin_kernel_release/kernel/include/linux/flex_proportions.h"
	.file	98 "/mnt/disk/jenkins/workspace/chipset_10.1.0_release_5G/opensource/component_code/vendor/huawei/extra/build/build_script/kirin_kernel_release/kernel/include/linux/percpu-rwsem.h"
	.file	99 "/mnt/disk/jenkins/workspace/chipset_10.1.0_release_5G/opensource/component_code/vendor/huawei/extra/build/build_script/kirin_kernel_release/kernel/include/linux/rcuwait.h"
	.file	100 "/mnt/disk/jenkins/workspace/chipset_10.1.0_release_5G/opensource/component_code/vendor/huawei/extra/build/build_script/kirin_kernel_release/kernel/include/linux/uuid.h"
	.file	101 "/mnt/disk/jenkins/workspace/chipset_10.1.0_release_5G/opensource/component_code/vendor/huawei/extra/build/build_script/kirin_kernel_release/kernel/include/linux/list_lru.h"
	.file	102 "/mnt/disk/jenkins/workspace/chipset_10.1.0_release_5G/opensource/component_code/vendor/huawei/extra/build/build_script/kirin_kernel_release/kernel/include/linux/delayed_call.h"
	.file	103 "/mnt/disk/jenkins/workspace/chipset_10.1.0_release_5G/opensource/component_code/vendor/huawei/extra/build/build_script/kirin_kernel_release/kernel/include/uapi/linux/time.h"
	.file	104 "/mnt/disk/jenkins/workspace/chipset_10.1.0_release_5G/opensource/component_code/vendor/huawei/extra/build/build_script/kirin_kernel_release/kernel/include/linux/stat.h"
	.file	105 "/mnt/disk/jenkins/workspace/chipset_10.1.0_release_5G/opensource/component_code/vendor/huawei/extra/build/build_script/kirin_kernel_release/kernel/include/uapi/linux/fiemap.h"
	.file	106 "/mnt/disk/jenkins/workspace/chipset_10.1.0_release_5G/opensource/component_code/vendor/huawei/extra/build/build_script/kirin_kernel_release/kernel/include/linux/mmzone.h"
	.file	107 "/mnt/disk/jenkins/workspace/chipset_10.1.0_release_5G/opensource/component_code/vendor/huawei/extra/build/build_script/kirin_kernel_release/kernel/include/linux/ioport.h"
	.file	108 "/mnt/disk/jenkins/workspace/chipset_10.1.0_release_5G/opensource/component_code/vendor/huawei/extra/build/build_script/kirin_kernel_release/kernel/arch/arm64/include/asm/page.h"
	.file	109 "/mnt/disk/jenkins/workspace/chipset_10.1.0_release_5G/opensource/component_code/vendor/huawei/extra/build/build_script/kirin_kernel_release/kernel/include/linux/mm_types_task.h"
	.file	110 "/mnt/disk/jenkins/workspace/chipset_10.1.0_release_5G/opensource/component_code/vendor/huawei/extra/build/build_script/kirin_kernel_release/kernel/arch/arm64/include/asm/mmu.h"
	.file	111 "/mnt/disk/jenkins/workspace/chipset_10.1.0_release_5G/opensource/component_code/vendor/huawei/extra/build/build_script/kirin_kernel_release/kernel/include/linux/uprobes.h"
	.file	112 "/mnt/disk/jenkins/workspace/chipset_10.1.0_release_5G/opensource/component_code/vendor/huawei/extra/build/build_script/kirin_kernel_release/kernel/arch/arm64/include/asm/compat.h"
	.file	113 "/mnt/disk/jenkins/workspace/chipset_10.1.0_release_5G/opensource/component_code/vendor/huawei/extra/build/build_script/kirin_kernel_release/kernel/include/uapi/asm-generic/poll.h"
	.file	114 "/mnt/disk/jenkins/workspace/chipset_10.1.0_release_5G/opensource/component_code/vendor/huawei/extra/build/build_script/kirin_kernel_release/kernel/include/uapi/asm-generic/signal.h"
	.file	115 "/mnt/disk/jenkins/workspace/chipset_10.1.0_release_5G/opensource/component_code/vendor/huawei/extra/build/build_script/kirin_kernel_release/kernel/include/linux/signal_types.h"
	.file	116 "/mnt/disk/jenkins/workspace/chipset_10.1.0_release_5G/opensource/component_code/vendor/huawei/extra/build/build_script/kirin_kernel_release/kernel/include/linux/seccomp.h"
	.file	117 "/mnt/disk/jenkins/workspace/chipset_10.1.0_release_5G/opensource/component_code/vendor/huawei/extra/build/build_script/kirin_kernel_release/kernel/include/linux/blk_types.h"
	.file	118 "/mnt/disk/jenkins/workspace/chipset_10.1.0_release_5G/opensource/component_code/vendor/huawei/extra/build/build_script/kirin_kernel_release/kernel/include/linux/iocontext.h"
	.file	119 "/mnt/disk/jenkins/workspace/chipset_10.1.0_release_5G/opensource/component_code/vendor/huawei/extra/build/build_script/kirin_kernel_release/kernel/include/linux/bio.h"
	.file	120 "/mnt/disk/jenkins/workspace/chipset_10.1.0_release_5G/opensource/component_code/vendor/huawei/extra/build/build_script/kirin_kernel_release/kernel/include/linux/mempool.h"
	.file	121 "/mnt/disk/jenkins/workspace/chipset_10.1.0_release_5G/opensource/component_code/vendor/huawei/extra/build/build_script/kirin_kernel_release/kernel/include/uapi/asm-generic/siginfo.h"
	.file	122 "/mnt/disk/jenkins/workspace/chipset_10.1.0_release_5G/opensource/component_code/vendor/huawei/extra/build/build_script/kirin_kernel_release/kernel/include/linux/task_io_accounting.h"
	.file	123 "/mnt/disk/jenkins/workspace/chipset_10.1.0_release_5G/opensource/component_code/vendor/huawei/extra/build/build_script/kirin_kernel_release/kernel/include/linux/nodemask.h"
	.file	124 "/mnt/disk/jenkins/workspace/chipset_10.1.0_release_5G/opensource/component_code/vendor/huawei/extra/build/build_script/kirin_kernel_release/kernel/include/linux/compat.h"
	.file	125 "/mnt/disk/jenkins/workspace/chipset_10.1.0_release_5G/opensource/component_code/vendor/huawei/extra/build/build_script/kirin_kernel_release/kernel/arch/arm64/include/asm/processor.h"
	.file	126 "/mnt/disk/jenkins/workspace/chipset_10.1.0_release_5G/opensource/component_code/vendor/huawei/extra/build/build_script/kirin_kernel_release/kernel/arch/arm64/include/uapi/asm/ptrace.h"
	.file	127 "/mnt/disk/jenkins/workspace/chipset_10.1.0_release_5G/opensource/component_code/vendor/huawei/extra/build/build_script/kirin_kernel_release/kernel/arch/arm64/include/asm/fpsimd.h"
	.file	128 "/mnt/disk/jenkins/workspace/chipset_10.1.0_release_5G/opensource/component_code/vendor/huawei/extra/build/build_script/kirin_kernel_release/kernel/include/linux/blk-mq.h"
	.file	129 "/mnt/disk/jenkins/workspace/chipset_10.1.0_release_5G/opensource/component_code/vendor/huawei/extra/build/build_script/kirin_kernel_release/kernel/block/blk.h"
	.file	130 "/mnt/disk/jenkins/workspace/chipset_10.1.0_release_5G/opensource/component_code/vendor/huawei/extra/build/build_script/kirin_kernel_release/kernel/include/linux/sbitmap.h"
	.file	131 "/mnt/disk/jenkins/workspace/chipset_10.1.0_release_5G/opensource/component_code/vendor/huawei/extra/build/build_script/kirin_kernel_release/kernel/include/linux/srcutree.h"
	.file	132 "/mnt/disk/jenkins/workspace/chipset_10.1.0_release_5G/opensource/component_code/vendor/huawei/extra/build/build_script/kirin_kernel_release/kernel/include/linux/rcu_segcblist.h"
	.file	133 "/mnt/disk/jenkins/workspace/chipset_10.1.0_release_5G/opensource/component_code/vendor/huawei/extra/build/build_script/kirin_kernel_release/kernel/block/blk-stat.h"
	.file	134 "/mnt/disk/jenkins/workspace/chipset_10.1.0_release_5G/opensource/component_code/vendor/huawei/extra/build/build_script/kirin_kernel_release/kernel/include/linux/bsg.h"
	.file	135 "/mnt/disk/jenkins/workspace/chipset_10.1.0_release_5G/opensource/component_code/vendor/huawei/extra/build/build_script/kirin_kernel_release/kernel/include/linux/notifier.h"
	.section	.text.hisi_blk_busy_idle_handler_latency_check_timer_expire,"ax",@progbits
	.hidden	hisi_blk_busy_idle_handler_latency_check_timer_expire // -- Begin function hisi_blk_busy_idle_handler_latency_check_timer_expire
	.globl	hisi_blk_busy_idle_handler_latency_check_timer_expire
	.p2align	2
	.type	hisi_blk_busy_idle_handler_latency_check_timer_expire,@function
hisi_blk_busy_idle_handler_latency_check_timer_expire: // @hisi_blk_busy_idle_handler_latency_check_timer_expire
.Lfunc_begin0:
	.loc	2 22 0                  // /mnt/disk/jenkins/workspace/chipset_10.1.0_release_5G/opensource/component_code/vendor/huawei/extra/build/build_script/kirin_kernel_release/kernel/block/hisi-blk-busy-idle-notify.c:22:0
	.cfi_sections .debug_frame
	.cfi_startproc
// %bb.0:
	stp	x29, x30, [sp, #-16]!   // 16-byte Folded Spill
	mov	x29, sp
	.cfi_def_cfa w29, 16
	.cfi_offset w30, -8
	.cfi_offset w29, -16
	//DEBUG_VALUE: hisi_blk_busy_idle_handler_latency_check_timer_expire:data <- $x0
	//DEBUG_VALUE: hisi_blk_busy_idle_handler_latency_check_timer_expire:data <- $x0
.Ltmp0:
	//DEBUG_VALUE: hisi_blk_busy_idle_handler_latency_check_timer_expire:notify_nb <- $x0
	.loc	2 26 2 prologue_end     // /mnt/disk/jenkins/workspace/chipset_10.1.0_release_5G/opensource/component_code/vendor/huawei/extra/build/build_script/kirin_kernel_release/kernel/block/hisi-blk-busy-idle-notify.c:26:2
	add	x2, x0, #96             // =96
	adrp	x0, .L.str
.Ltmp1:
	adrp	x1, .L__func__.hisi_blk_busy_idle_handler_latency_check_timer_expire
	add	x0, x0, :lo12:.L.str
	add	x1, x1, :lo12:.L__func__.hisi_blk_busy_idle_handler_latency_check_timer_expire
	mov	w3, #1000
	bl	printk
	.loc	2 29 1                  // /mnt/disk/jenkins/workspace/chipset_10.1.0_release_5G/opensource/component_code/vendor/huawei/extra/build/build_script/kirin_kernel_release/kernel/block/hisi-blk-busy-idle-notify.c:29:1
	ldp	x29, x30, [sp], #16     // 16-byte Folded Reload
	ret
.Ltmp2:
.Lfunc_end0:
	.size	hisi_blk_busy_idle_handler_latency_check_timer_expire, .Lfunc_end0-hisi_blk_busy_idle_handler_latency_check_timer_expire
	.cfi_endproc
                                        // -- End function
	.section	.text.hisi_blk_busy_idle_notify_handler,"ax",@progbits
	.hidden	hisi_blk_busy_idle_notify_handler // -- Begin function hisi_blk_busy_idle_notify_handler
	.globl	hisi_blk_busy_idle_notify_handler
	.p2align	2
	.type	hisi_blk_busy_idle_notify_handler,@function
hisi_blk_busy_idle_notify_handler:      // @hisi_blk_busy_idle_notify_handler
.Lfunc_begin1:
	.loc	2 33 0                  // /mnt/disk/jenkins/workspace/chipset_10.1.0_release_5G/opensource/component_code/vendor/huawei/extra/build/build_script/kirin_kernel_release/kernel/block/hisi-blk-busy-idle-notify.c:33:0
	.cfi_startproc
// %bb.0:
	stp	x24, x23, [sp, #-64]!   // 16-byte Folded Spill
	stp	x22, x21, [sp, #16]     // 16-byte Folded Spill
	stp	x20, x19, [sp, #32]     // 16-byte Folded Spill
	stp	x29, x30, [sp, #48]     // 16-byte Folded Spill
	add	x29, sp, #48            // =48
	.cfi_def_cfa w29, 16
	.cfi_offset w30, -8
	.cfi_offset w29, -16
	.cfi_offset w19, -24
	.cfi_offset w20, -32
	.cfi_offset w21, -40
	.cfi_offset w22, -48
	.cfi_offset w23, -56
	.cfi_offset w24, -64
	//DEBUG_VALUE: hisi_blk_busy_idle_notify_handler:nb <- $x0
	//DEBUG_VALUE: hisi_blk_busy_idle_notify_handler:val <- $x1
	//DEBUG_VALUE: hisi_blk_busy_idle_notify_handler:v <- $x2
.Ltmp3:
	//DEBUG_VALUE: hisi_blk_busy_idle_notify_handler:notify_nb <- [DW_OP_constu 72, DW_OP_minus, DW_OP_stack_value] $x0
	//DEBUG_VALUE: hisi_blk_busy_idle_notify_handler:handler_result <- 0
	//DEBUG_VALUE: hisi_blk_busy_idle_notify_handler:ret <- 0
	.loc	2 42 6 prologue_end     // /mnt/disk/jenkins/workspace/chipset_10.1.0_release_5G/opensource/component_code/vendor/huawei/extra/build/build_script/kirin_kernel_release/kernel/block/hisi-blk-busy-idle-notify.c:42:6
	ldr	x8, [x0, #56]
.Ltmp4:
	.loc	2 40 61                 // /mnt/disk/jenkins/workspace/chipset_10.1.0_release_5G/opensource/component_code/vendor/huawei/extra/build/build_script/kirin_kernel_release/kernel/block/hisi-blk-busy-idle-notify.c:40:61
	add	x19, x0, #24            // =24
.Ltmp5:
	//DEBUG_VALUE: hisi_blk_busy_idle_notify_handler:event_node <- $x19
	.loc	2 42 6                  // /mnt/disk/jenkins/workspace/chipset_10.1.0_release_5G/opensource/component_code/vendor/huawei/extra/build/build_script/kirin_kernel_release/kernel/block/hisi-blk-busy-idle-notify.c:42:6
	cbz	x8, .LBB1_14
.Ltmp6:
// %bb.1:
	//DEBUG_VALUE: hisi_blk_busy_idle_notify_handler:event_node <- $x19
	//DEBUG_VALUE: hisi_blk_busy_idle_notify_handler:notify_nb <- [DW_OP_constu 72, DW_OP_minus, DW_OP_stack_value] $x0
	//DEBUG_VALUE: hisi_blk_busy_idle_notify_handler:v <- $x2
	//DEBUG_VALUE: hisi_blk_busy_idle_notify_handler:val <- $x1
	//DEBUG_VALUE: hisi_blk_busy_idle_notify_handler:nb <- $x0
	.loc	2 0 6 is_stmt 0         // /mnt/disk/jenkins/workspace/chipset_10.1.0_release_5G/opensource/component_code/vendor/huawei/extra/build/build_script/kirin_kernel_release/kernel/block/hisi-blk-busy-idle-notify.c:0:6
	mov	x22, x1
.Ltmp7:
	//DEBUG_VALUE: hisi_blk_busy_idle_notify_handler:val <- $x22
	mov	x23, x0
.Ltmp8:
	//DEBUG_VALUE: hisi_blk_busy_idle_notify_handler:nb <- $x23
	//DEBUG_VALUE: hisi_blk_busy_idle_notify_handler:notify_nb <- [DW_OP_constu 72, DW_OP_minus, DW_OP_stack_value] $x23
	.loc	2 52 23 is_stmt 1       // /mnt/disk/jenkins/workspace/chipset_10.1.0_release_5G/opensource/component_code/vendor/huawei/extra/build/build_script/kirin_kernel_release/kernel/block/hisi-blk-busy-idle-notify.c:52:23
	bl	ktime_get
.Ltmp9:
	.loc	2 54 3                  // /mnt/disk/jenkins/workspace/chipset_10.1.0_release_5G/opensource/component_code/vendor/huawei/extra/build/build_script/kirin_kernel_release/kernel/block/hisi-blk-busy-idle-notify.c:54:3
	adrp	x8, jiffies
	ldr	x24, [x8, :lo12:jiffies]
	.loc	2 52 23                 // /mnt/disk/jenkins/workspace/chipset_10.1.0_release_5G/opensource/component_code/vendor/huawei/extra/build/build_script/kirin_kernel_release/kernel/block/hisi-blk-busy-idle-notify.c:52:23
	mov	x20, x0
.Ltmp10:
	//DEBUG_VALUE: hisi_blk_busy_idle_notify_handler:notify_start_ktime <- $x20
	//DEBUG_VALUE: ktime_add_ms:kt <- $x20
	.file	136 "/mnt/disk/jenkins/workspace/chipset_10.1.0_release_5G/opensource/component_code/vendor/huawei/extra/build/build_script/kirin_kernel_release/kernel/include/linux/jiffies.h"
	.loc	136 370 10              // /mnt/disk/jenkins/workspace/chipset_10.1.0_release_5G/opensource/component_code/vendor/huawei/extra/build/build_script/kirin_kernel_release/kernel/include/linux/jiffies.h:370:10
	mov	w0, #1000
.Ltmp11:
	.loc	2 53 24                 // /mnt/disk/jenkins/workspace/chipset_10.1.0_release_5G/opensource/component_code/vendor/huawei/extra/build/build_script/kirin_kernel_release/kernel/block/hisi-blk-busy-idle-notify.c:53:24
	sub	x21, x23, #48           // =48
.Ltmp12:
	//DEBUG_VALUE: msecs_to_jiffies:m <- 1000
	.loc	136 370 10              // /mnt/disk/jenkins/workspace/chipset_10.1.0_release_5G/opensource/component_code/vendor/huawei/extra/build/build_script/kirin_kernel_release/kernel/include/linux/jiffies.h:370:10
	bl	__msecs_to_jiffies
.Ltmp13:
	.loc	2 54 11                 // /mnt/disk/jenkins/workspace/chipset_10.1.0_release_5G/opensource/component_code/vendor/huawei/extra/build/build_script/kirin_kernel_release/kernel/block/hisi-blk-busy-idle-notify.c:54:11
	add	x1, x0, x24
	.loc	2 53 2                  // /mnt/disk/jenkins/workspace/chipset_10.1.0_release_5G/opensource/component_code/vendor/huawei/extra/build/build_script/kirin_kernel_release/kernel/block/hisi-blk-busy-idle-notify.c:53:2
	mov	x0, x21
	bl	mod_timer
	.loc	2 58 2                  // /mnt/disk/jenkins/workspace/chipset_10.1.0_release_5G/opensource/component_code/vendor/huawei/extra/build/build_script/kirin_kernel_release/kernel/block/hisi-blk-busy-idle-notify.c:58:2
	cbz	x22, .LBB1_6
.Ltmp14:
// %bb.2:
	//DEBUG_VALUE: hisi_blk_busy_idle_notify_handler:notify_start_ktime <- $x20
	//DEBUG_VALUE: hisi_blk_busy_idle_notify_handler:notify_nb <- [DW_OP_constu 72, DW_OP_minus, DW_OP_stack_value] $x23
	//DEBUG_VALUE: hisi_blk_busy_idle_notify_handler:nb <- $x23
	//DEBUG_VALUE: hisi_blk_busy_idle_notify_handler:val <- $x22
	//DEBUG_VALUE: hisi_blk_busy_idle_notify_handler:event_node <- $x19
	cmp	x22, #1                 // =1
	b.ne	.LBB1_8
.Ltmp15:
// %bb.3:
	//DEBUG_VALUE: hisi_blk_busy_idle_notify_handler:notify_start_ktime <- $x20
	//DEBUG_VALUE: hisi_blk_busy_idle_notify_handler:notify_nb <- [DW_OP_constu 72, DW_OP_minus, DW_OP_stack_value] $x23
	//DEBUG_VALUE: hisi_blk_busy_idle_notify_handler:nb <- $x23
	//DEBUG_VALUE: hisi_blk_busy_idle_notify_handler:val <- $x22
	//DEBUG_VALUE: hisi_blk_busy_idle_notify_handler:event_node <- $x19
	.loc	2 60 7                  // /mnt/disk/jenkins/workspace/chipset_10.1.0_release_5G/opensource/component_code/vendor/huawei/extra/build/build_script/kirin_kernel_release/kernel/block/hisi-blk-busy-idle-notify.c:60:7
	ldr	w8, [x23, #80]
.Ltmp16:
	.loc	2 60 7 is_stmt 0        // /mnt/disk/jenkins/workspace/chipset_10.1.0_release_5G/opensource/component_code/vendor/huawei/extra/build/build_script/kirin_kernel_release/kernel/block/hisi-blk-busy-idle-notify.c:60:7
	cbnz	w8, .LBB1_8
.Ltmp17:
// %bb.4:
	//DEBUG_VALUE: hisi_blk_busy_idle_notify_handler:notify_start_ktime <- $x20
	//DEBUG_VALUE: hisi_blk_busy_idle_notify_handler:notify_nb <- [DW_OP_constu 72, DW_OP_minus, DW_OP_stack_value] $x23
	//DEBUG_VALUE: hisi_blk_busy_idle_notify_handler:nb <- $x23
	//DEBUG_VALUE: hisi_blk_busy_idle_notify_handler:val <- $x22
	//DEBUG_VALUE: hisi_blk_busy_idle_notify_handler:event_node <- $x19
	.loc	2 61 22 is_stmt 1       // /mnt/disk/jenkins/workspace/chipset_10.1.0_release_5G/opensource/component_code/vendor/huawei/extra/build/build_script/kirin_kernel_release/kernel/block/hisi-blk-busy-idle-notify.c:61:22
	ldr	x8, [x23, #56]
	.loc	2 61 10 is_stmt 0       // /mnt/disk/jenkins/workspace/chipset_10.1.0_release_5G/opensource/component_code/vendor/huawei/extra/build/build_script/kirin_kernel_release/kernel/block/hisi-blk-busy-idle-notify.c:61:10
	orr	w1, wzr, #0x1
	mov	x0, x19
	orr	w22, wzr, #0x1
.Ltmp18:
	blr	x8
	mov	w24, w0
.Ltmp19:
	//DEBUG_VALUE: hisi_blk_busy_idle_notify_handler:ret <- $w24
	.loc	2 64 8 is_stmt 1        // /mnt/disk/jenkins/workspace/chipset_10.1.0_release_5G/opensource/component_code/vendor/huawei/extra/build/build_script/kirin_kernel_release/kernel/block/hisi-blk-busy-idle-notify.c:64:8
	cmp	w0, #1                  // =1
	.loc	2 63 26                 // /mnt/disk/jenkins/workspace/chipset_10.1.0_release_5G/opensource/component_code/vendor/huawei/extra/build/build_script/kirin_kernel_release/kernel/block/hisi-blk-busy-idle-notify.c:63:26
	str	w22, [x23, #80]
	.loc	2 64 8                  // /mnt/disk/jenkins/workspace/chipset_10.1.0_release_5G/opensource/component_code/vendor/huawei/extra/build/build_script/kirin_kernel_release/kernel/block/hisi-blk-busy-idle-notify.c:64:8
	b.ne	.LBB1_9
.Ltmp20:
// %bb.5:
	//DEBUG_VALUE: hisi_blk_busy_idle_notify_handler:ret <- $w24
	//DEBUG_VALUE: hisi_blk_busy_idle_notify_handler:notify_start_ktime <- $x20
	//DEBUG_VALUE: hisi_blk_busy_idle_notify_handler:notify_nb <- [DW_OP_constu 72, DW_OP_minus, DW_OP_stack_value] $x23
	//DEBUG_VALUE: hisi_blk_busy_idle_notify_handler:nb <- $x23
	//DEBUG_VALUE: hisi_blk_busy_idle_notify_handler:event_node <- $x19
	//DEBUG_VALUE: hisi_blk_busy_idle_notify_handler:handler_result <- 32769
	.loc	2 66 41                 // /mnt/disk/jenkins/workspace/chipset_10.1.0_release_5G/opensource/component_code/vendor/huawei/extra/build/build_script/kirin_kernel_release/kernel/block/hisi-blk-busy-idle-notify.c:66:41
	ldr	x8, [x23, #96]
	mov	w22, #32769
	add	x8, x8, #1              // =1
	str	x8, [x23, #96]
	b	.LBB1_10
.Ltmp21:
.LBB1_6:
	//DEBUG_VALUE: hisi_blk_busy_idle_notify_handler:notify_start_ktime <- $x20
	//DEBUG_VALUE: hisi_blk_busy_idle_notify_handler:notify_nb <- [DW_OP_constu 72, DW_OP_minus, DW_OP_stack_value] $x23
	//DEBUG_VALUE: hisi_blk_busy_idle_notify_handler:nb <- $x23
	//DEBUG_VALUE: hisi_blk_busy_idle_notify_handler:val <- $x22
	//DEBUG_VALUE: hisi_blk_busy_idle_notify_handler:event_node <- $x19
	.loc	2 73 7                  // /mnt/disk/jenkins/workspace/chipset_10.1.0_release_5G/opensource/component_code/vendor/huawei/extra/build/build_script/kirin_kernel_release/kernel/block/hisi-blk-busy-idle-notify.c:73:7
	ldr	w8, [x23, #80]
.Ltmp22:
	.loc	2 73 7 is_stmt 0        // /mnt/disk/jenkins/workspace/chipset_10.1.0_release_5G/opensource/component_code/vendor/huawei/extra/build/build_script/kirin_kernel_release/kernel/block/hisi-blk-busy-idle-notify.c:73:7
	cmp	w8, #1                  // =1
	b.ne	.LBB1_8
.Ltmp23:
// %bb.7:
	//DEBUG_VALUE: hisi_blk_busy_idle_notify_handler:notify_start_ktime <- $x20
	//DEBUG_VALUE: hisi_blk_busy_idle_notify_handler:notify_nb <- [DW_OP_constu 72, DW_OP_minus, DW_OP_stack_value] $x23
	//DEBUG_VALUE: hisi_blk_busy_idle_notify_handler:nb <- $x23
	//DEBUG_VALUE: hisi_blk_busy_idle_notify_handler:val <- $x22
	//DEBUG_VALUE: hisi_blk_busy_idle_notify_handler:event_node <- $x19
	.loc	2 74 22 is_stmt 1       // /mnt/disk/jenkins/workspace/chipset_10.1.0_release_5G/opensource/component_code/vendor/huawei/extra/build/build_script/kirin_kernel_release/kernel/block/hisi-blk-busy-idle-notify.c:74:22
	ldr	x8, [x23, #56]
	.loc	2 74 10 is_stmt 0       // /mnt/disk/jenkins/workspace/chipset_10.1.0_release_5G/opensource/component_code/vendor/huawei/extra/build/build_script/kirin_kernel_release/kernel/block/hisi-blk-busy-idle-notify.c:74:10
	mov	x0, x19
	mov	w1, wzr
	blr	x8
	mov	w24, w0
.Ltmp24:
	//DEBUG_VALUE: hisi_blk_busy_idle_notify_handler:ret <- $w24
	.loc	2 0 0                   // /mnt/disk/jenkins/workspace/chipset_10.1.0_release_5G/opensource/component_code/vendor/huawei/extra/build/build_script/kirin_kernel_release/kernel/block/hisi-blk-busy-idle-notify.c:0:0
	mov	w22, wzr
.Ltmp25:
	.loc	2 76 26 is_stmt 1       // /mnt/disk/jenkins/workspace/chipset_10.1.0_release_5G/opensource/component_code/vendor/huawei/extra/build/build_script/kirin_kernel_release/kernel/block/hisi-blk-busy-idle-notify.c:76:26
	str	wzr, [x23, #80]
	b	.LBB1_10
.Ltmp26:
.LBB1_8:
	//DEBUG_VALUE: hisi_blk_busy_idle_notify_handler:notify_start_ktime <- $x20
	//DEBUG_VALUE: hisi_blk_busy_idle_notify_handler:notify_nb <- [DW_OP_constu 72, DW_OP_minus, DW_OP_stack_value] $x23
	//DEBUG_VALUE: hisi_blk_busy_idle_notify_handler:nb <- $x23
	//DEBUG_VALUE: hisi_blk_busy_idle_notify_handler:val <- $x22
	//DEBUG_VALUE: hisi_blk_busy_idle_notify_handler:event_node <- $x19
	.loc	2 0 0 is_stmt 0         // /mnt/disk/jenkins/workspace/chipset_10.1.0_release_5G/opensource/component_code/vendor/huawei/extra/build/build_script/kirin_kernel_release/kernel/block/hisi-blk-busy-idle-notify.c:0:0
	mov	w22, wzr
.Ltmp27:
	mov	w24, wzr
	b	.LBB1_10
.Ltmp28:
.LBB1_9:
	//DEBUG_VALUE: hisi_blk_busy_idle_notify_handler:ret <- $w24
	//DEBUG_VALUE: hisi_blk_busy_idle_notify_handler:notify_start_ktime <- $x20
	//DEBUG_VALUE: hisi_blk_busy_idle_notify_handler:notify_nb <- [DW_OP_constu 72, DW_OP_minus, DW_OP_stack_value] $x23
	//DEBUG_VALUE: hisi_blk_busy_idle_notify_handler:nb <- $x23
	//DEBUG_VALUE: hisi_blk_busy_idle_notify_handler:event_node <- $x19
	mov	w22, wzr
.Ltmp29:
	.loc	2 68 42 is_stmt 1       // /mnt/disk/jenkins/workspace/chipset_10.1.0_release_5G/opensource/component_code/vendor/huawei/extra/build/build_script/kirin_kernel_release/kernel/block/hisi-blk-busy-idle-notify.c:68:42
	str	xzr, [x23, #96]
.Ltmp30:
.LBB1_10:
	//DEBUG_VALUE: hisi_blk_busy_idle_notify_handler:notify_start_ktime <- $x20
	//DEBUG_VALUE: hisi_blk_busy_idle_notify_handler:notify_nb <- [DW_OP_constu 72, DW_OP_minus, DW_OP_stack_value] $x23
	//DEBUG_VALUE: hisi_blk_busy_idle_notify_handler:nb <- $x23
	//DEBUG_VALUE: hisi_blk_busy_idle_notify_handler:event_node <- $x19
	//DEBUG_VALUE: hisi_blk_busy_idle_notify_handler:ret <- $w24
	//DEBUG_VALUE: hisi_blk_busy_idle_notify_handler:handler_result <- $w22
	.loc	2 86 2                  // /mnt/disk/jenkins/workspace/chipset_10.1.0_release_5G/opensource/component_code/vendor/huawei/extra/build/build_script/kirin_kernel_release/kernel/block/hisi-blk-busy-idle-notify.c:86:2
	mov	x0, x21
	bl	del_timer_sync
.Ltmp31:
	.loc	2 87 6                  // /mnt/disk/jenkins/workspace/chipset_10.1.0_release_5G/opensource/component_code/vendor/huawei/extra/build/build_script/kirin_kernel_release/kernel/block/hisi-blk-busy-idle-notify.c:87:6
	bl	ktime_get
.Ltmp32:
	//DEBUG_VALUE: ktime_after:cmp1 <- $x0
	//DEBUG_VALUE: ktime_compare:cmp1 <- $x0
	.loc	2 0 6 is_stmt 0         // /mnt/disk/jenkins/workspace/chipset_10.1.0_release_5G/opensource/component_code/vendor/huawei/extra/build/build_script/kirin_kernel_release/kernel/block/hisi-blk-busy-idle-notify.c:0:6
	mov	w8, #38528
	movk	w8, #152, lsl #16
.Ltmp33:
	//DEBUG_VALUE: ktime_add_ms:msec <- 10
	.loc	45 200 9 is_stmt 1      // /mnt/disk/jenkins/workspace/chipset_10.1.0_release_5G/opensource/component_code/vendor/huawei/extra/build/build_script/kirin_kernel_release/kernel/include/linux/ktime.h:200:9
	add	x8, x20, x8
.Ltmp34:
	//DEBUG_VALUE: ktime_compare:cmp2 <- $x8
	//DEBUG_VALUE: ktime_after:cmp2 <- $x8
	.loc	2 87 6                  // /mnt/disk/jenkins/workspace/chipset_10.1.0_release_5G/opensource/component_code/vendor/huawei/extra/build/build_script/kirin_kernel_release/kernel/block/hisi-blk-busy-idle-notify.c:87:6
	cmp	x0, x8
	b.gt	.LBB1_15
.Ltmp35:
// %bb.11:
	//DEBUG_VALUE: hisi_blk_busy_idle_notify_handler:handler_result <- $w22
	//DEBUG_VALUE: hisi_blk_busy_idle_notify_handler:ret <- $w24
	//DEBUG_VALUE: hisi_blk_busy_idle_notify_handler:notify_start_ktime <- $x20
	//DEBUG_VALUE: hisi_blk_busy_idle_notify_handler:notify_nb <- [DW_OP_constu 72, DW_OP_minus, DW_OP_stack_value] $x23
	//DEBUG_VALUE: hisi_blk_busy_idle_notify_handler:nb <- $x23
	//DEBUG_VALUE: hisi_blk_busy_idle_notify_handler:event_node <- $x19
	.loc	2 95 6                  // /mnt/disk/jenkins/workspace/chipset_10.1.0_release_5G/opensource/component_code/vendor/huawei/extra/build/build_script/kirin_kernel_release/kernel/block/hisi-blk-busy-idle-notify.c:95:6
	cmp	w24, #2                 // =2
	b.ne	.LBB1_13
.Ltmp36:
.LBB1_12:
	//DEBUG_VALUE: hisi_blk_busy_idle_notify_handler:handler_result <- $w22
	//DEBUG_VALUE: hisi_blk_busy_idle_notify_handler:ret <- $w24
	//DEBUG_VALUE: hisi_blk_busy_idle_notify_handler:notify_start_ktime <- $x20
	//DEBUG_VALUE: hisi_blk_busy_idle_notify_handler:notify_nb <- [DW_OP_constu 72, DW_OP_minus, DW_OP_stack_value] $x23
	//DEBUG_VALUE: hisi_blk_busy_idle_notify_handler:nb <- $x23
	//DEBUG_VALUE: hisi_blk_busy_idle_notify_handler:event_node <- $x19
	.loc	2 96 3                  // /mnt/disk/jenkins/workspace/chipset_10.1.0_release_5G/opensource/component_code/vendor/huawei/extra/build/build_script/kirin_kernel_release/kernel/block/hisi-blk-busy-idle-notify.c:96:3
	adrp	x0, .L.str.3
	adrp	x1, .L__func__.hisi_blk_busy_idle_notify_handler
	add	x0, x0, :lo12:.L.str.3
	add	x1, x1, :lo12:.L__func__.hisi_blk_busy_idle_notify_handler
	mov	x2, x19
	bl	printk
.Ltmp37:
.LBB1_13:
	//DEBUG_VALUE: hisi_blk_busy_idle_notify_handler:event_node <- $x19
	.loc	2 104 1                 // /mnt/disk/jenkins/workspace/chipset_10.1.0_release_5G/opensource/component_code/vendor/huawei/extra/build/build_script/kirin_kernel_release/kernel/block/hisi-blk-busy-idle-notify.c:104:1
	mov	w0, w22
	ldp	x29, x30, [sp, #48]     // 16-byte Folded Reload
	ldp	x20, x19, [sp, #32]     // 16-byte Folded Reload
.Ltmp38:
	ldp	x22, x21, [sp, #16]     // 16-byte Folded Reload
	ldp	x24, x23, [sp], #64     // 16-byte Folded Reload
	ret
.LBB1_14:
.Ltmp39:
	//DEBUG_VALUE: hisi_blk_busy_idle_notify_handler:event_node <- $x19
	//DEBUG_VALUE: hisi_blk_busy_idle_notify_handler:notify_nb <- [DW_OP_constu 72, DW_OP_minus, DW_OP_stack_value] $x0
	//DEBUG_VALUE: hisi_blk_busy_idle_notify_handler:v <- $x2
	//DEBUG_VALUE: hisi_blk_busy_idle_notify_handler:val <- $x1
	//DEBUG_VALUE: hisi_blk_busy_idle_notify_handler:nb <- $x0
	.loc	2 43 3                  // /mnt/disk/jenkins/workspace/chipset_10.1.0_release_5G/opensource/component_code/vendor/huawei/extra/build/build_script/kirin_kernel_release/kernel/block/hisi-blk-busy-idle-notify.c:43:3
	adrp	x0, .L.str.1
.Ltmp40:
	adrp	x1, .L__func__.hisi_blk_busy_idle_notify_handler
.Ltmp41:
	add	x0, x0, :lo12:.L.str.1
	add	x1, x1, :lo12:.L__func__.hisi_blk_busy_idle_notify_handler
	mov	x2, x19
.Ltmp42:
	bl	printk
.Ltmp43:
	.loc	2 0 0 is_stmt 0         // /mnt/disk/jenkins/workspace/chipset_10.1.0_release_5G/opensource/component_code/vendor/huawei/extra/build/build_script/kirin_kernel_release/kernel/block/hisi-blk-busy-idle-notify.c:0:0
	mov	w22, wzr
	b	.LBB1_13
.Ltmp44:
.LBB1_15:
	//DEBUG_VALUE: hisi_blk_busy_idle_notify_handler:handler_result <- $w22
	//DEBUG_VALUE: hisi_blk_busy_idle_notify_handler:ret <- $w24
	//DEBUG_VALUE: hisi_blk_busy_idle_notify_handler:notify_start_ktime <- $x20
	//DEBUG_VALUE: hisi_blk_busy_idle_notify_handler:notify_nb <- [DW_OP_constu 72, DW_OP_minus, DW_OP_stack_value] $x23
	//DEBUG_VALUE: hisi_blk_busy_idle_notify_handler:nb <- $x23
	//DEBUG_VALUE: hisi_blk_busy_idle_notify_handler:event_node <- $x19
	.loc	2 90 3 is_stmt 1        // /mnt/disk/jenkins/workspace/chipset_10.1.0_release_5G/opensource/component_code/vendor/huawei/extra/build/build_script/kirin_kernel_release/kernel/block/hisi-blk-busy-idle-notify.c:90:3
	bl	ktime_get
	mov	x9, #13531
	movk	x9, #55222, lsl #16
	movk	x9, #56962, lsl #32
	sub	x8, x0, x20
	movk	x9, #17179, lsl #48
.Ltmp45:
	//DEBUG_VALUE: ktime_divns:div <- 1000000
	//DEBUG_VALUE: ktime_divns:kt <- $x8
	//DEBUG_VALUE: ktime_to_ms:kt <- $x8
	.loc	45 169 12               // /mnt/disk/jenkins/workspace/chipset_10.1.0_release_5G/opensource/component_code/vendor/huawei/extra/build/build_script/kirin_kernel_release/kernel/include/linux/ktime.h:169:12
	smulh	x8, x8, x9
.Ltmp46:
	asr	x9, x8, #18
.Ltmp47:
	.loc	2 90 3                  // /mnt/disk/jenkins/workspace/chipset_10.1.0_release_5G/opensource/component_code/vendor/huawei/extra/build/build_script/kirin_kernel_release/kernel/block/hisi-blk-busy-idle-notify.c:90:3
	adrp	x0, .L.str.2
	adrp	x1, .L__func__.hisi_blk_busy_idle_notify_handler
.Ltmp48:
	.loc	45 169 12               // /mnt/disk/jenkins/workspace/chipset_10.1.0_release_5G/opensource/component_code/vendor/huawei/extra/build/build_script/kirin_kernel_release/kernel/include/linux/ktime.h:169:12
	add	x3, x9, x8, lsr #63
.Ltmp49:
	.loc	2 90 3                  // /mnt/disk/jenkins/workspace/chipset_10.1.0_release_5G/opensource/component_code/vendor/huawei/extra/build/build_script/kirin_kernel_release/kernel/block/hisi-blk-busy-idle-notify.c:90:3
	add	x0, x0, :lo12:.L.str.2
	add	x1, x1, :lo12:.L__func__.hisi_blk_busy_idle_notify_handler
	mov	x2, x19
	bl	printk
.Ltmp50:
	.loc	2 95 6                  // /mnt/disk/jenkins/workspace/chipset_10.1.0_release_5G/opensource/component_code/vendor/huawei/extra/build/build_script/kirin_kernel_release/kernel/block/hisi-blk-busy-idle-notify.c:95:6
	cmp	w24, #2                 // =2
	b.eq	.LBB1_12
	b	.LBB1_13
.Ltmp51:
.Lfunc_end1:
	.size	hisi_blk_busy_idle_notify_handler, .Lfunc_end1-hisi_blk_busy_idle_notify_handler
	.cfi_endproc
                                        // -- End function
	.section	.text.hisi_blk_idle_notify_work,"ax",@progbits
	.hidden	hisi_blk_idle_notify_work // -- Begin function hisi_blk_idle_notify_work
	.globl	hisi_blk_idle_notify_work
	.p2align	2
	.type	hisi_blk_idle_notify_work,@function
hisi_blk_idle_notify_work:              // @hisi_blk_idle_notify_work
.Lfunc_begin2:
	.loc	2 246 0                 // /mnt/disk/jenkins/workspace/chipset_10.1.0_release_5G/opensource/component_code/vendor/huawei/extra/build/build_script/kirin_kernel_release/kernel/block/hisi-blk-busy-idle-notify.c:246:0
	.cfi_startproc
// %bb.0:
	str	x21, [sp, #-48]!        // 8-byte Folded Spill
	stp	x20, x19, [sp, #16]     // 16-byte Folded Spill
	stp	x29, x30, [sp, #32]     // 16-byte Folded Spill
	add	x29, sp, #32            // =32
	.cfi_def_cfa w29, 16
	.cfi_offset w30, -8
	.cfi_offset w29, -16
	.cfi_offset w19, -24
	.cfi_offset w20, -32
	.cfi_offset w21, -48
	//DEBUG_VALUE: hisi_blk_idle_notify_work:work <- $x0
.Ltmp52:
	//DEBUG_VALUE: __mptr <- $x0
	mov	x19, x0
.Ltmp53:
	//DEBUG_VALUE: __mptr <- $x19
	//DEBUG_VALUE: hisi_blk_idle_notify_work:blk_idle <- $x19
	//DEBUG_VALUE: __write_once_size:p <- [DW_OP_plus_uconst 208, DW_OP_stack_value] $x19
	//DEBUG_VALUE: __read_once_size:p <- [DW_OP_plus_uconst 208, DW_OP_stack_value] $x19
	//DEBUG_VALUE: __mptr <- $x19
	//DEBUG_VALUE: hisi_blk_idle_notify_work:work <- $x19
	.loc	2 251 3 prologue_end    // /mnt/disk/jenkins/workspace/chipset_10.1.0_release_5G/opensource/component_code/vendor/huawei/extra/build/build_script/kirin_kernel_release/kernel/block/hisi-blk-busy-idle-notify.c:251:3
	sub	x0, x0, #88             // =88
.Ltmp54:
	//DEBUG_VALUE: hisi_blk_idle_notify_work:blk_lld <- $x0
	.loc	2 252 28                // /mnt/disk/jenkins/workspace/chipset_10.1.0_release_5G/opensource/component_code/vendor/huawei/extra/build/build_script/kirin_kernel_release/kernel/block/hisi-blk-busy-idle-notify.c:252:28
	bl	hisi_blk_get_queue_by_lld
.Ltmp55:
	.loc	2 254 16                // /mnt/disk/jenkins/workspace/chipset_10.1.0_release_5G/opensource/component_code/vendor/huawei/extra/build/build_script/kirin_kernel_release/kernel/block/hisi-blk-busy-idle-notify.c:254:16
	ldrb	w8, [x19, #-8]!
.Ltmp56:
	.loc	2 252 28                // /mnt/disk/jenkins/workspace/chipset_10.1.0_release_5G/opensource/component_code/vendor/huawei/extra/build/build_script/kirin_kernel_release/kernel/block/hisi-blk-busy-idle-notify.c:252:28
	mov	x20, x0
.Ltmp57:
	//DEBUG_VALUE: hisi_blk_idle_notify_work:q <- $x20
	.loc	2 254 6                 // /mnt/disk/jenkins/workspace/chipset_10.1.0_release_5G/opensource/component_code/vendor/huawei/extra/build/build_script/kirin_kernel_release/kernel/block/hisi-blk-busy-idle-notify.c:254:6
	cbz	w8, .LBB2_2
.Ltmp58:
// %bb.1:
	//DEBUG_VALUE: hisi_blk_idle_notify_work:q <- $x20
	//DEBUG_VALUE: __write_once_size:res <- undef
	//DEBUG_VALUE: __write_once_size:size <- 4
	.file	137 "/mnt/disk/jenkins/workspace/chipset_10.1.0_release_5G/opensource/component_code/vendor/huawei/extra/build/build_script/kirin_kernel_release/kernel/include/linux/compiler.h"
	.loc	137 212 31              // /mnt/disk/jenkins/workspace/chipset_10.1.0_release_5G/opensource/component_code/vendor/huawei/extra/build/build_script/kirin_kernel_release/kernel/include/linux/compiler.h:212:31
	str	wzr, [x19, #208]
.Ltmp59:
.LBB2_2:
	//DEBUG_VALUE: hisi_blk_idle_notify_work:q <- $x20
	.loc	2 257 24                // /mnt/disk/jenkins/workspace/chipset_10.1.0_release_5G/opensource/component_code/vendor/huawei/extra/build/build_script/kirin_kernel_release/kernel/block/hisi-blk-busy-idle-notify.c:257:24
	add	x21, x19, #216          // =216
	.loc	2 257 2 is_stmt 0       // /mnt/disk/jenkins/workspace/chipset_10.1.0_release_5G/opensource/component_code/vendor/huawei/extra/build/build_script/kirin_kernel_release/kernel/block/hisi-blk-busy-idle-notify.c:257:2
	mov	x0, x21
	bl	mutex_lock
.Ltmp60:
	//DEBUG_VALUE: __read_once_size:size <- 4
	//DEBUG_VALUE: __read_once_size:res <- undef
	.loc	137 186 2 is_stmt 1     // /mnt/disk/jenkins/workspace/chipset_10.1.0_release_5G/opensource/component_code/vendor/huawei/extra/build/build_script/kirin_kernel_release/kernel/include/linux/compiler.h:186:2
	ldr	w8, [x19, #208]
.Ltmp61:
	.loc	2 258 46                // /mnt/disk/jenkins/workspace/chipset_10.1.0_release_5G/opensource/component_code/vendor/huawei/extra/build/build_script/kirin_kernel_release/kernel/block/hisi-blk-busy-idle-notify.c:258:46
	cbnz	w8, .LBB2_7
.Ltmp62:
// %bb.3:
	//DEBUG_VALUE: hisi_blk_idle_notify_work:q <- $x20
	.loc	2 259 14                // /mnt/disk/jenkins/workspace/chipset_10.1.0_release_5G/opensource/component_code/vendor/huawei/extra/build/build_script/kirin_kernel_release/kernel/block/hisi-blk-busy-idle-notify.c:259:14
	ldr	w8, [x19, #280]
.Ltmp63:
	.loc	2 258 6                 // /mnt/disk/jenkins/workspace/chipset_10.1.0_release_5G/opensource/component_code/vendor/huawei/extra/build/build_script/kirin_kernel_release/kernel/block/hisi-blk-busy-idle-notify.c:258:6
	cmp	w8, #1                  // =1
	b.eq	.LBB2_7
.Ltmp64:
// %bb.4:
	//DEBUG_VALUE: hisi_blk_idle_notify_work:q <- $x20
	.loc	2 261 29                // /mnt/disk/jenkins/workspace/chipset_10.1.0_release_5G/opensource/component_code/vendor/huawei/extra/build/build_script/kirin_kernel_release/kernel/block/hisi-blk-busy-idle-notify.c:261:29
	ldr	x8, [x19, #320]
	orr	w9, wzr, #0x1
	.loc	2 260 24                // /mnt/disk/jenkins/workspace/chipset_10.1.0_release_5G/opensource/component_code/vendor/huawei/extra/build/build_script/kirin_kernel_release/kernel/block/hisi-blk-busy-idle-notify.c:260:24
	str	w9, [x19, #280]
	.loc	2 261 29                // /mnt/disk/jenkins/workspace/chipset_10.1.0_release_5G/opensource/component_code/vendor/huawei/extra/build/build_script/kirin_kernel_release/kernel/block/hisi-blk-busy-idle-notify.c:261:29
	add	x8, x8, #1              // =1
	str	x8, [x19, #320]
	.loc	2 262 31                // /mnt/disk/jenkins/workspace/chipset_10.1.0_release_5G/opensource/component_code/vendor/huawei/extra/build/build_script/kirin_kernel_release/kernel/block/hisi-blk-busy-idle-notify.c:262:31
	bl	ktime_get
.Ltmp65:
	.loc	2 263 17                // /mnt/disk/jenkins/workspace/chipset_10.1.0_release_5G/opensource/component_code/vendor/huawei/extra/build/build_script/kirin_kernel_release/kernel/block/hisi-blk-busy-idle-notify.c:263:17
	ldr	x8, [x19, #296]
.Ltmp66:
	.loc	2 262 29                // /mnt/disk/jenkins/workspace/chipset_10.1.0_release_5G/opensource/component_code/vendor/huawei/extra/build/build_script/kirin_kernel_release/kernel/block/hisi-blk-busy-idle-notify.c:262:29
	str	x0, [x19, #288]
	.loc	2 263 7                 // /mnt/disk/jenkins/workspace/chipset_10.1.0_release_5G/opensource/component_code/vendor/huawei/extra/build/build_script/kirin_kernel_release/kernel/block/hisi-blk-busy-idle-notify.c:263:7
	cbz	x8, .LBB2_6
.Ltmp67:
// %bb.5:
	//DEBUG_VALUE: hisi_blk_idle_notify_work:q <- $x20
	.loc	2 265 5                 // /mnt/disk/jenkins/workspace/chipset_10.1.0_release_5G/opensource/component_code/vendor/huawei/extra/build/build_script/kirin_kernel_release/kernel/block/hisi-blk-busy-idle-notify.c:265:5
	ldr	x9, [x19, #304]
	sub	x8, x0, x8
	add	x8, x8, x9
	.loc	2 264 31                // /mnt/disk/jenkins/workspace/chipset_10.1.0_release_5G/opensource/component_code/vendor/huawei/extra/build/build_script/kirin_kernel_release/kernel/block/hisi-blk-busy-idle-notify.c:264:31
	str	x8, [x19, #304]
.Ltmp68:
.LBB2_6:
	//DEBUG_VALUE: hisi_blk_idle_notify_work:q <- $x20
	.loc	2 269 43                // /mnt/disk/jenkins/workspace/chipset_10.1.0_release_5G/opensource/component_code/vendor/huawei/extra/build/build_script/kirin_kernel_release/kernel/block/hisi-blk-busy-idle-notify.c:269:43
	add	x0, x19, #128           // =128
	.loc	2 269 3 is_stmt 0       // /mnt/disk/jenkins/workspace/chipset_10.1.0_release_5G/opensource/component_code/vendor/huawei/extra/build/build_script/kirin_kernel_release/kernel/block/hisi-blk-busy-idle-notify.c:269:3
	orr	w1, wzr, #0x1
	mov	x2, x20
	bl	blocking_notifier_call_chain
.Ltmp69:
.LBB2_7:
	//DEBUG_VALUE: hisi_blk_idle_notify_work:q <- $x20
	.loc	2 272 2 is_stmt 1       // /mnt/disk/jenkins/workspace/chipset_10.1.0_release_5G/opensource/component_code/vendor/huawei/extra/build/build_script/kirin_kernel_release/kernel/block/hisi-blk-busy-idle-notify.c:272:2
	mov	x0, x21
	bl	mutex_unlock
	.loc	2 280 1                 // /mnt/disk/jenkins/workspace/chipset_10.1.0_release_5G/opensource/component_code/vendor/huawei/extra/build/build_script/kirin_kernel_release/kernel/block/hisi-blk-busy-idle-notify.c:280:1
	ldp	x29, x30, [sp, #32]     // 16-byte Folded Reload
	ldp	x20, x19, [sp, #16]     // 16-byte Folded Reload
.Ltmp70:
	ldr	x21, [sp], #48          // 8-byte Folded Reload
	ret
.Ltmp71:
.Lfunc_end2:
	.size	hisi_blk_idle_notify_work, .Lfunc_end2-hisi_blk_idle_notify_work
	.cfi_endproc
                                        // -- End function
	.section	.text.blk_lld_idle_notify,"ax",@progbits
	.hidden	blk_lld_idle_notify     // -- Begin function blk_lld_idle_notify
	.globl	blk_lld_idle_notify
	.p2align	2
	.type	blk_lld_idle_notify,@function
blk_lld_idle_notify:                    // @blk_lld_idle_notify
.Lfunc_begin3:
	.loc	2 283 0                 // /mnt/disk/jenkins/workspace/chipset_10.1.0_release_5G/opensource/component_code/vendor/huawei/extra/build/build_script/kirin_kernel_release/kernel/block/hisi-blk-busy-idle-notify.c:283:0
	.cfi_startproc
// %bb.0:
	//DEBUG_VALUE: blk_lld_idle_notify:lld <- $x0
	//DEBUG_VALUE: blk_lld_idle_notify:lld <- $x0
	.loc	2 284 6 prologue_end    // /mnt/disk/jenkins/workspace/chipset_10.1.0_release_5G/opensource/component_code/vendor/huawei/extra/build/build_script/kirin_kernel_release/kernel/block/hisi-blk-busy-idle-notify.c:284:6
	ldr	w8, [x0]
.Ltmp72:
	.loc	2 284 6 is_stmt 0       // /mnt/disk/jenkins/workspace/chipset_10.1.0_release_5G/opensource/component_code/vendor/huawei/extra/build/build_script/kirin_kernel_release/kernel/block/hisi-blk-busy-idle-notify.c:284:6
	cmp	w8, #122                // =122
	b.ne	.LBB3_2
.Ltmp73:
// %bb.1:
	//DEBUG_VALUE: blk_lld_idle_notify:lld <- $x0
	stp	x20, x19, [sp, #-32]!   // 16-byte Folded Spill
	stp	x29, x30, [sp, #16]     // 16-byte Folded Spill
	add	x29, sp, #16            // =16
	.cfi_def_cfa w29, 16
	.cfi_offset w30, -8
	.cfi_offset w29, -16
	.cfi_offset w19, -24
	.cfi_offset w20, -32
.Ltmp74:
	.loc	2 285 22 is_stmt 1      // /mnt/disk/jenkins/workspace/chipset_10.1.0_release_5G/opensource/component_code/vendor/huawei/extra/build/build_script/kirin_kernel_release/kernel/block/hisi-blk-busy-idle-notify.c:285:22
	adrp	x8, blk_idle_notify_workqueue
	ldr	x19, [x8, :lo12:blk_idle_notify_workqueue]
	.loc	2 287 35                // /mnt/disk/jenkins/workspace/chipset_10.1.0_release_5G/opensource/component_code/vendor/huawei/extra/build/build_script/kirin_kernel_release/kernel/block/hisi-blk-busy-idle-notify.c:287:35
	ldr	w8, [x0, #184]
	.loc	2 286 19                // /mnt/disk/jenkins/workspace/chipset_10.1.0_release_5G/opensource/component_code/vendor/huawei/extra/build/build_script/kirin_kernel_release/kernel/block/hisi-blk-busy-idle-notify.c:286:19
	add	x20, x0, #88            // =88
.Ltmp75:
	//DEBUG_VALUE: msecs_to_jiffies:m <- $w8
	.loc	136 370 10              // /mnt/disk/jenkins/workspace/chipset_10.1.0_release_5G/opensource/component_code/vendor/huawei/extra/build/build_script/kirin_kernel_release/kernel/include/linux/jiffies.h:370:10
	mov	w0, w8
.Ltmp76:
	bl	__msecs_to_jiffies
.Ltmp77:
	mov	x3, x0
.Ltmp78:
	//DEBUG_VALUE: queue_delayed_work:delay <- $x3
	//DEBUG_VALUE: queue_delayed_work:dwork <- $x20
	//DEBUG_VALUE: queue_delayed_work:wq <- $x19
	.loc	21 506 9                // /mnt/disk/jenkins/workspace/chipset_10.1.0_release_5G/opensource/component_code/vendor/huawei/extra/build/build_script/kirin_kernel_release/kernel/include/linux/workqueue.h:506:9
	orr	w0, wzr, #0x8
	mov	x1, x19
	mov	x2, x20
	bl	queue_delayed_work_on
.Ltmp79:
	.loc	21 0 9 is_stmt 0        // /mnt/disk/jenkins/workspace/chipset_10.1.0_release_5G/opensource/component_code/vendor/huawei/extra/build/build_script/kirin_kernel_release/kernel/include/linux/workqueue.h:0:9
	ldp	x29, x30, [sp, #16]     // 16-byte Folded Reload
	ldp	x20, x19, [sp], #32     // 16-byte Folded Reload
.Ltmp80:
.LBB3_2:
	.loc	2 288 1 is_stmt 1       // /mnt/disk/jenkins/workspace/chipset_10.1.0_release_5G/opensource/component_code/vendor/huawei/extra/build/build_script/kirin_kernel_release/kernel/block/hisi-blk-busy-idle-notify.c:288:1
	ret
.Ltmp81:
.Lfunc_end3:
	.size	blk_lld_idle_notify, .Lfunc_end3-blk_lld_idle_notify
	.cfi_endproc
                                        // -- End function
	.section	.text.hisi_blk_busy_idle_check_bio,"ax",@progbits
	.hidden	hisi_blk_busy_idle_check_bio // -- Begin function hisi_blk_busy_idle_check_bio
	.globl	hisi_blk_busy_idle_check_bio
	.p2align	2
	.type	hisi_blk_busy_idle_check_bio,@function
hisi_blk_busy_idle_check_bio:           // @hisi_blk_busy_idle_check_bio
.Lfunc_begin4:
	.loc	2 446 0                 // /mnt/disk/jenkins/workspace/chipset_10.1.0_release_5G/opensource/component_code/vendor/huawei/extra/build/build_script/kirin_kernel_release/kernel/block/hisi-blk-busy-idle-notify.c:446:0
	.cfi_startproc
// %bb.0:
	stp	x22, x21, [sp, #-48]!   // 16-byte Folded Spill
	stp	x20, x19, [sp, #16]     // 16-byte Folded Spill
	stp	x29, x30, [sp, #32]     // 16-byte Folded Spill
	add	x29, sp, #32            // =32
	.cfi_def_cfa w29, 16
	.cfi_offset w30, -8
	.cfi_offset w29, -16
	.cfi_offset w19, -24
	.cfi_offset w20, -32
	.cfi_offset w21, -40
	.cfi_offset w22, -48
	//DEBUG_VALUE: hisi_blk_busy_idle_check_bio:q <- $x0
	//DEBUG_VALUE: hisi_blk_busy_idle_check_bio:bio <- $x1
.Ltmp82:
	//DEBUG_VALUE: hisi_blk_add_bio_to_counted_list:bio <- $x1
	//DEBUG_VALUE: blk_busy_count:q <- $x0
	mov	x21, x1
.Ltmp83:
	//DEBUG_VALUE: hisi_blk_add_bio_to_counted_list:bio <- $x21
	mov	x20, x0
.Ltmp84:
	//DEBUG_VALUE: blk_busy_count:q <- $x20
	//DEBUG_VALUE: hisi_blk_busy_idle_check_bio:bio <- $x21
	//DEBUG_VALUE: hisi_blk_busy_idle_check_bio:q <- $x20
	.loc	2 447 28 prologue_end   // /mnt/disk/jenkins/workspace/chipset_10.1.0_release_5G/opensource/component_code/vendor/huawei/extra/build/build_script/kirin_kernel_release/kernel/block/hisi-blk-busy-idle-notify.c:447:28
	bl	hisi_blk_get_lld
.Ltmp85:
	.loc	2 451 6                 // /mnt/disk/jenkins/workspace/chipset_10.1.0_release_5G/opensource/component_code/vendor/huawei/extra/build/build_script/kirin_kernel_release/kernel/block/hisi-blk-busy-idle-notify.c:451:6
	ldrb	w8, [x21, #136]
.Ltmp86:
	.loc	2 449 18                // /mnt/disk/jenkins/workspace/chipset_10.1.0_release_5G/opensource/component_code/vendor/huawei/extra/build/build_script/kirin_kernel_release/kernel/block/hisi-blk-busy-idle-notify.c:449:18
	str	x20, [x21, #88]
	.loc	2 451 6                 // /mnt/disk/jenkins/workspace/chipset_10.1.0_release_5G/opensource/component_code/vendor/huawei/extra/build/build_script/kirin_kernel_release/kernel/block/hisi-blk-busy-idle-notify.c:451:6
	tbnz	w8, #0, .LBB4_4
.Ltmp87:
// %bb.1:
	//DEBUG_VALUE: hisi_blk_busy_idle_check_bio:q <- $x20
	//DEBUG_VALUE: hisi_blk_busy_idle_check_bio:bio <- $x21
	//DEBUG_VALUE: blk_busy_count:q <- $x20
	//DEBUG_VALUE: hisi_blk_add_bio_to_counted_list:bio <- $x21
	.loc	2 453 28                // /mnt/disk/jenkins/workspace/chipset_10.1.0_release_5G/opensource/component_code/vendor/huawei/extra/build/build_script/kirin_kernel_release/kernel/block/hisi-blk-busy-idle-notify.c:453:28
	orr	w8, w8, #0x1
	strb	w8, [x21, #136]
.Ltmp88:
	//DEBUG_VALUE: atomic_add:i <- 1
	.file	138 "/mnt/disk/jenkins/workspace/chipset_10.1.0_release_5G/opensource/component_code/vendor/huawei/extra/build/build_script/kirin_kernel_release/kernel/arch/arm64/include/asm/atomic_ll_sc.h"
	.loc	138 113 1               // /mnt/disk/jenkins/workspace/chipset_10.1.0_release_5G/opensource/component_code/vendor/huawei/extra/build/build_script/kirin_kernel_release/kernel/arch/arm64/include/asm/atomic_ll_sc.h:113:1
	add	x8, x0, #408            // =408
	//APP
	// atomic_add
	prfm	pstl1strm, [x8]
1:	ldxr	w9, [x8]
	add	w9, w9, #1
	stxr	w10, w9, [x8]
	cbnz	w10, 1b
	//NO_APP
.Ltmp89:
	.file	139 "/mnt/disk/jenkins/workspace/chipset_10.1.0_release_5G/opensource/component_code/vendor/huawei/extra/build/build_script/kirin_kernel_release/kernel/include/linux/spinlock.h"
	.loc	139 306 16              // /mnt/disk/jenkins/workspace/chipset_10.1.0_release_5G/opensource/component_code/vendor/huawei/extra/build/build_script/kirin_kernel_release/kernel/include/linux/spinlock.h:306:16
	add	x22, x0, #448           // =448
.Ltmp90:
	.loc	2 0 0 is_stmt 0         // /mnt/disk/jenkins/workspace/chipset_10.1.0_release_5G/opensource/component_code/vendor/huawei/extra/build/build_script/kirin_kernel_release/kernel/block/hisi-blk-busy-idle-notify.c:0:0
	mov	x19, x0
.Ltmp91:
	//DEBUG_VALUE: atomic_add:v <- [DW_OP_plus_uconst 288, DW_OP_stack_value] $x19
	//DEBUG_VALUE: blk_busy_count:blk_idle <- [DW_OP_plus_uconst 80, DW_OP_stack_value] $x19
	//DEBUG_VALUE: blk_busy_count:lld <- $x19
	//DEBUG_VALUE: spin_unlock_irqrestore:lock <- [DW_OP_plus_uconst 448, DW_OP_stack_value] $x19
	//DEBUG_VALUE: spinlock_check:lock <- [DW_OP_plus_uconst 448, DW_OP_stack_value] $x19
	//DEBUG_VALUE: atomic_add:v <- [DW_OP_plus_uconst 408, DW_OP_stack_value] $x19
	//DEBUG_VALUE: hisi_blk_add_bio_to_counted_list:lld <- $x19
	//DEBUG_VALUE: hisi_blk_busy_idle_check_bio:lld <- $x19
	.loc	2 389 2 is_stmt 1       // /mnt/disk/jenkins/workspace/chipset_10.1.0_release_5G/opensource/component_code/vendor/huawei/extra/build/build_script/kirin_kernel_release/kernel/block/hisi-blk-busy-idle-notify.c:389:2
	mov	x0, x22
	bl	_raw_spin_lock_irqsave
.Ltmp92:
	.file	140 "/mnt/disk/jenkins/workspace/chipset_10.1.0_release_5G/opensource/component_code/vendor/huawei/extra/build/build_script/kirin_kernel_release/kernel/include/linux/list.h"
	.loc	140 93 24               // /mnt/disk/jenkins/workspace/chipset_10.1.0_release_5G/opensource/component_code/vendor/huawei/extra/build/build_script/kirin_kernel_release/kernel/include/linux/list.h:93:24
	ldr	x9, [x19, #424]
.Ltmp93:
	.loc	2 389 2                 // /mnt/disk/jenkins/workspace/chipset_10.1.0_release_5G/opensource/component_code/vendor/huawei/extra/build/build_script/kirin_kernel_release/kernel/block/hisi-blk-busy-idle-notify.c:389:2
	mov	x1, x0
.Ltmp94:
	//DEBUG_VALUE: hisi_blk_add_bio_to_counted_list:flags <- $x1
	.loc	2 390 22                // /mnt/disk/jenkins/workspace/chipset_10.1.0_release_5G/opensource/component_code/vendor/huawei/extra/build/build_script/kirin_kernel_release/kernel/block/hisi-blk-busy-idle-notify.c:390:22
	add	x8, x21, #280           // =280
.Ltmp95:
	//DEBUG_VALUE: list_add_tail:new <- $x8
	.loc	2 390 56 is_stmt 0      // /mnt/disk/jenkins/workspace/chipset_10.1.0_release_5G/opensource/component_code/vendor/huawei/extra/build/build_script/kirin_kernel_release/kernel/block/hisi-blk-busy-idle-notify.c:390:56
	add	x10, x19, #416          // =416
.Ltmp96:
	//DEBUG_VALUE: list_add_tail:head <- $x10
	//DEBUG_VALUE: __list_add:next <- $x10
	//DEBUG_VALUE: __list_add:prev <- $x9
	//DEBUG_VALUE: __list_add:new <- $x8
	.loc	139 372 2 is_stmt 1     // /mnt/disk/jenkins/workspace/chipset_10.1.0_release_5G/opensource/component_code/vendor/huawei/extra/build/build_script/kirin_kernel_release/kernel/include/linux/spinlock.h:372:2
	mov	x0, x22
.Ltmp97:
	.loc	140 63 13               // /mnt/disk/jenkins/workspace/chipset_10.1.0_release_5G/opensource/component_code/vendor/huawei/extra/build/build_script/kirin_kernel_release/kernel/include/linux/list.h:63:13
	str	x8, [x19, #424]
	//DEBUG_VALUE: list_add_tail:new <- $x8
	.loc	140 64 12               // /mnt/disk/jenkins/workspace/chipset_10.1.0_release_5G/opensource/component_code/vendor/huawei/extra/build/build_script/kirin_kernel_release/kernel/include/linux/list.h:64:12
	stp	x10, x9, [x21, #280]
.Ltmp98:
	//DEBUG_VALUE: __write_once_size:res <- undef
	//DEBUG_VALUE: __write_once_size:p <- $x9
	//DEBUG_VALUE: __write_once_size:size <- 8
	.loc	137 213 31              // /mnt/disk/jenkins/workspace/chipset_10.1.0_release_5G/opensource/component_code/vendor/huawei/extra/build/build_script/kirin_kernel_release/kernel/include/linux/compiler.h:213:31
	str	x8, [x9]
.Ltmp99:
	//DEBUG_VALUE: spin_unlock_irqrestore:flags <- $x1
	.loc	139 372 2               // /mnt/disk/jenkins/workspace/chipset_10.1.0_release_5G/opensource/component_code/vendor/huawei/extra/build/build_script/kirin_kernel_release/kernel/include/linux/spinlock.h:372:2
	bl	_raw_spin_unlock_irqrestore
.Ltmp100:
	.loc	2 352 6                 // /mnt/disk/jenkins/workspace/chipset_10.1.0_release_5G/opensource/component_code/vendor/huawei/extra/build/build_script/kirin_kernel_release/kernel/block/hisi-blk-busy-idle-notify.c:352:6
	ldrb	w8, [x19, #24]
	tbz	w8, #3, .LBB4_4
.Ltmp101:
// %bb.2:
	//DEBUG_VALUE: hisi_blk_busy_idle_check_bio:lld <- $x19
	//DEBUG_VALUE: blk_busy_count:lld <- $x19
	//DEBUG_VALUE: blk_busy_count:blk_idle <- [DW_OP_plus_uconst 80, DW_OP_stack_value] $x19
	//DEBUG_VALUE: hisi_blk_busy_idle_check_bio:q <- $x20
	//DEBUG_VALUE: hisi_blk_busy_idle_check_bio:bio <- $x21
	//DEBUG_VALUE: blk_busy_count:q <- $x20
	//DEBUG_VALUE: __read_once_size:res <- undef
	//DEBUG_VALUE: __read_once_size:size <- 4
	//DEBUG_VALUE: __read_once_size:p <- [DW_OP_plus_uconst 288, DW_OP_stack_value] $x19
	.loc	137 186 2               // /mnt/disk/jenkins/workspace/chipset_10.1.0_release_5G/opensource/component_code/vendor/huawei/extra/build/build_script/kirin_kernel_release/kernel/include/linux/compiler.h:186:2
	ldr	w8, [x19, #288]
.Ltmp102:
	.loc	2 355 6                 // /mnt/disk/jenkins/workspace/chipset_10.1.0_release_5G/opensource/component_code/vendor/huawei/extra/build/build_script/kirin_kernel_release/kernel/block/hisi-blk-busy-idle-notify.c:355:6
	cbz	w8, .LBB4_5
.Ltmp103:
.LBB4_3:
	//DEBUG_VALUE: hisi_blk_busy_idle_check_bio:lld <- $x19
	//DEBUG_VALUE: blk_busy_count:lld <- $x19
	//DEBUG_VALUE: blk_busy_count:blk_idle <- [DW_OP_plus_uconst 80, DW_OP_stack_value] $x19
	//DEBUG_VALUE: hisi_blk_busy_idle_check_bio:q <- $x20
	//DEBUG_VALUE: blk_busy_count:q <- $x20
	//DEBUG_VALUE: atomic_add:i <- 1
	.loc	138 113 1               // /mnt/disk/jenkins/workspace/chipset_10.1.0_release_5G/opensource/component_code/vendor/huawei/extra/build/build_script/kirin_kernel_release/kernel/arch/arm64/include/asm/atomic_ll_sc.h:113:1
	add	x8, x19, #288           // =288
	//APP
	// atomic_add
	prfm	pstl1strm, [x8]
1:	ldxr	w9, [x8]
	add	w9, w9, #1
	stxr	w10, w9, [x8]
	cbnz	w10, 1b
	//NO_APP
.Ltmp104:
.LBB4_4:
	//DEBUG_VALUE: hisi_blk_busy_idle_check_bio:q <- $x20
	.loc	2 456 1                 // /mnt/disk/jenkins/workspace/chipset_10.1.0_release_5G/opensource/component_code/vendor/huawei/extra/build/build_script/kirin_kernel_release/kernel/block/hisi-blk-busy-idle-notify.c:456:1
	ldp	x29, x30, [sp, #32]     // 16-byte Folded Reload
	ldp	x20, x19, [sp, #16]     // 16-byte Folded Reload
.Ltmp105:
	ldp	x22, x21, [sp], #48     // 16-byte Folded Reload
	ret
.LBB4_5:
.Ltmp106:
	//DEBUG_VALUE: hisi_blk_busy_idle_check_bio:lld <- $x19
	//DEBUG_VALUE: blk_busy_count:lld <- $x19
	//DEBUG_VALUE: blk_busy_count:blk_idle <- [DW_OP_plus_uconst 80, DW_OP_stack_value] $x19
	//DEBUG_VALUE: hisi_blk_busy_idle_check_bio:q <- $x20
	//DEBUG_VALUE: hisi_blk_busy_idle_check_bio:bio <- $x21
	//DEBUG_VALUE: blk_busy_count:q <- $x20
	.loc	2 356 25                // /mnt/disk/jenkins/workspace/chipset_10.1.0_release_5G/opensource/component_code/vendor/huawei/extra/build/build_script/kirin_kernel_release/kernel/block/hisi-blk-busy-idle-notify.c:356:25
	add	x21, x19, #296          // =296
.Ltmp107:
	.loc	2 356 3 is_stmt 0       // /mnt/disk/jenkins/workspace/chipset_10.1.0_release_5G/opensource/component_code/vendor/huawei/extra/build/build_script/kirin_kernel_release/kernel/block/hisi-blk-busy-idle-notify.c:356:3
	mov	x0, x21
	bl	mutex_lock
	.loc	2 357 34 is_stmt 1      // /mnt/disk/jenkins/workspace/chipset_10.1.0_release_5G/opensource/component_code/vendor/huawei/extra/build/build_script/kirin_kernel_release/kernel/block/hisi-blk-busy-idle-notify.c:357:34
	add	x0, x19, #88            // =88
	.loc	2 357 3 is_stmt 0       // /mnt/disk/jenkins/workspace/chipset_10.1.0_release_5G/opensource/component_code/vendor/huawei/extra/build/build_script/kirin_kernel_release/kernel/block/hisi-blk-busy-idle-notify.c:357:3
	bl	cancel_delayed_work
.Ltmp108:
	.loc	2 361 17 is_stmt 1      // /mnt/disk/jenkins/workspace/chipset_10.1.0_release_5G/opensource/component_code/vendor/huawei/extra/build/build_script/kirin_kernel_release/kernel/block/hisi-blk-busy-idle-notify.c:361:17
	ldr	w8, [x19, #360]
.Ltmp109:
	.loc	2 361 7 is_stmt 0       // /mnt/disk/jenkins/workspace/chipset_10.1.0_release_5G/opensource/component_code/vendor/huawei/extra/build/build_script/kirin_kernel_release/kernel/block/hisi-blk-busy-idle-notify.c:361:7
	cmp	w8, #1                  // =1
	b.ne	.LBB4_9
.Ltmp110:
// %bb.6:
	//DEBUG_VALUE: hisi_blk_busy_idle_check_bio:lld <- $x19
	//DEBUG_VALUE: blk_busy_count:lld <- $x19
	//DEBUG_VALUE: blk_busy_count:blk_idle <- [DW_OP_plus_uconst 80, DW_OP_stack_value] $x19
	//DEBUG_VALUE: hisi_blk_busy_idle_check_bio:q <- $x20
	//DEBUG_VALUE: blk_busy_count:q <- $x20
	.loc	2 363 25 is_stmt 1      // /mnt/disk/jenkins/workspace/chipset_10.1.0_release_5G/opensource/component_code/vendor/huawei/extra/build/build_script/kirin_kernel_release/kernel/block/hisi-blk-busy-idle-notify.c:363:25
	str	wzr, [x19, #360]
	.loc	2 364 32                // /mnt/disk/jenkins/workspace/chipset_10.1.0_release_5G/opensource/component_code/vendor/huawei/extra/build/build_script/kirin_kernel_release/kernel/block/hisi-blk-busy-idle-notify.c:364:32
	bl	ktime_get
.Ltmp111:
	.loc	2 368 8                 // /mnt/disk/jenkins/workspace/chipset_10.1.0_release_5G/opensource/component_code/vendor/huawei/extra/build/build_script/kirin_kernel_release/kernel/block/hisi-blk-busy-idle-notify.c:368:8
	ldr	x8, [x19, #368]
.Ltmp112:
	.loc	2 364 30                // /mnt/disk/jenkins/workspace/chipset_10.1.0_release_5G/opensource/component_code/vendor/huawei/extra/build/build_script/kirin_kernel_release/kernel/block/hisi-blk-busy-idle-notify.c:364:30
	str	x0, [x19, #376]
	.loc	2 368 8                 // /mnt/disk/jenkins/workspace/chipset_10.1.0_release_5G/opensource/component_code/vendor/huawei/extra/build/build_script/kirin_kernel_release/kernel/block/hisi-blk-busy-idle-notify.c:368:8
	cbz	x8, .LBB4_8
.Ltmp113:
// %bb.7:
	//DEBUG_VALUE: hisi_blk_busy_idle_check_bio:lld <- $x19
	//DEBUG_VALUE: blk_busy_count:lld <- $x19
	//DEBUG_VALUE: blk_busy_count:blk_idle <- [DW_OP_plus_uconst 80, DW_OP_stack_value] $x19
	//DEBUG_VALUE: hisi_blk_busy_idle_check_bio:q <- $x20
	//DEBUG_VALUE: blk_busy_count:q <- $x20
	.loc	2 369 34                // /mnt/disk/jenkins/workspace/chipset_10.1.0_release_5G/opensource/component_code/vendor/huawei/extra/build/build_script/kirin_kernel_release/kernel/block/hisi-blk-busy-idle-notify.c:369:34
	ldr	x9, [x19, #392]
	sub	x8, x0, x8
	add	x8, x8, x9
	.loc	2 369 32 is_stmt 0      // /mnt/disk/jenkins/workspace/chipset_10.1.0_release_5G/opensource/component_code/vendor/huawei/extra/build/build_script/kirin_kernel_release/kernel/block/hisi-blk-busy-idle-notify.c:369:32
	str	x8, [x19, #392]
.Ltmp114:
.LBB4_8:
	//DEBUG_VALUE: hisi_blk_busy_idle_check_bio:lld <- $x19
	//DEBUG_VALUE: blk_busy_count:lld <- $x19
	//DEBUG_VALUE: blk_busy_count:blk_idle <- [DW_OP_plus_uconst 80, DW_OP_stack_value] $x19
	//DEBUG_VALUE: hisi_blk_busy_idle_check_bio:q <- $x20
	//DEBUG_VALUE: blk_busy_count:q <- $x20
	.loc	2 375 16 is_stmt 1      // /mnt/disk/jenkins/workspace/chipset_10.1.0_release_5G/opensource/component_code/vendor/huawei/extra/build/build_script/kirin_kernel_release/kernel/block/hisi-blk-busy-idle-notify.c:375:16
	add	x0, x19, #208           // =208
	.loc	2 374 4                 // /mnt/disk/jenkins/workspace/chipset_10.1.0_release_5G/opensource/component_code/vendor/huawei/extra/build/build_script/kirin_kernel_release/kernel/block/hisi-blk-busy-idle-notify.c:374:4
	mov	x1, xzr
	mov	x2, x20
	bl	blocking_notifier_call_chain
.Ltmp115:
.LBB4_9:
	//DEBUG_VALUE: hisi_blk_busy_idle_check_bio:lld <- $x19
	//DEBUG_VALUE: blk_busy_count:lld <- $x19
	//DEBUG_VALUE: blk_busy_count:blk_idle <- [DW_OP_plus_uconst 80, DW_OP_stack_value] $x19
	//DEBUG_VALUE: hisi_blk_busy_idle_check_bio:q <- $x20
	//DEBUG_VALUE: blk_busy_count:q <- $x20
	.loc	2 378 3                 // /mnt/disk/jenkins/workspace/chipset_10.1.0_release_5G/opensource/component_code/vendor/huawei/extra/build/build_script/kirin_kernel_release/kernel/block/hisi-blk-busy-idle-notify.c:378:3
	mov	x0, x21
	bl	mutex_unlock
	b	.LBB4_3
.Ltmp116:
.Lfunc_end4:
	.size	hisi_blk_busy_idle_check_bio, .Lfunc_end4-hisi_blk_busy_idle_check_bio
	.cfi_endproc
                                        // -- End function
	.section	.text.hisi_blk_busy_idle_check_request_bio,"ax",@progbits
	.hidden	hisi_blk_busy_idle_check_request_bio // -- Begin function hisi_blk_busy_idle_check_request_bio
	.globl	hisi_blk_busy_idle_check_request_bio
	.p2align	2
	.type	hisi_blk_busy_idle_check_request_bio,@function
hisi_blk_busy_idle_check_request_bio:   // @hisi_blk_busy_idle_check_request_bio
.Lfunc_begin5:
	.loc	2 463 0                 // /mnt/disk/jenkins/workspace/chipset_10.1.0_release_5G/opensource/component_code/vendor/huawei/extra/build/build_script/kirin_kernel_release/kernel/block/hisi-blk-busy-idle-notify.c:463:0
	.cfi_startproc
// %bb.0:
	stp	x20, x19, [sp, #-32]!   // 16-byte Folded Spill
	stp	x29, x30, [sp, #16]     // 16-byte Folded Spill
	add	x29, sp, #16            // =16
	.cfi_def_cfa w29, 16
	.cfi_offset w30, -8
	.cfi_offset w29, -16
	.cfi_offset w19, -24
	.cfi_offset w20, -32
	//DEBUG_VALUE: hisi_blk_busy_idle_check_request_bio:q <- $x0
	//DEBUG_VALUE: hisi_blk_busy_idle_check_request_bio:rq <- $x1
	//DEBUG_VALUE: hisi_blk_busy_idle_check_request_bio:rq <- $x1
.Ltmp117:
	.loc	2 464 24 prologue_end   // /mnt/disk/jenkins/workspace/chipset_10.1.0_release_5G/opensource/component_code/vendor/huawei/extra/build/build_script/kirin_kernel_release/kernel/block/hisi-blk-busy-idle-notify.c:464:24
	ldr	x19, [x1, #120]
.Ltmp118:
	//DEBUG_VALUE: hisi_blk_busy_idle_check_request_bio:bio <- $x19
	.loc	2 466 6                 // /mnt/disk/jenkins/workspace/chipset_10.1.0_release_5G/opensource/component_code/vendor/huawei/extra/build/build_script/kirin_kernel_release/kernel/block/hisi-blk-busy-idle-notify.c:466:6
	cbz	x19, .LBB5_4
.Ltmp119:
// %bb.1:
	//DEBUG_VALUE: hisi_blk_busy_idle_check_request_bio:bio <- $x19
	//DEBUG_VALUE: hisi_blk_busy_idle_check_request_bio:rq <- $x1
	//DEBUG_VALUE: hisi_blk_busy_idle_check_request_bio:q <- $x0
	.loc	2 0 6 is_stmt 0         // /mnt/disk/jenkins/workspace/chipset_10.1.0_release_5G/opensource/component_code/vendor/huawei/extra/build/build_script/kirin_kernel_release/kernel/block/hisi-blk-busy-idle-notify.c:0:6
	mov	x20, x0
.Ltmp120:
	//DEBUG_VALUE: hisi_blk_busy_idle_check_request_bio:q <- $x20
.LBB5_2:                                // =>This Inner Loop Header: Depth=1
	//DEBUG_VALUE: hisi_blk_busy_idle_check_request_bio:q <- $x20
	//DEBUG_VALUE: hisi_blk_busy_idle_check_request_bio:bio <- $x19
	//DEBUG_VALUE: hisi_blk_busy_idle_check_request_bio:rq <- $x1
	//DEBUG_VALUE: hisi_blk_busy_idle_check_request_bio:bio <- $x19
	.loc	2 468 4 is_stmt 1       // /mnt/disk/jenkins/workspace/chipset_10.1.0_release_5G/opensource/component_code/vendor/huawei/extra/build/build_script/kirin_kernel_release/kernel/block/hisi-blk-busy-idle-notify.c:468:4
	mov	x0, x20
	mov	x1, x19
.Ltmp121:
	bl	hisi_blk_busy_idle_check_bio
	.loc	2 469 15                // /mnt/disk/jenkins/workspace/chipset_10.1.0_release_5G/opensource/component_code/vendor/huawei/extra/build/build_script/kirin_kernel_release/kernel/block/hisi-blk-busy-idle-notify.c:469:15
	ldr	x19, [x19]
.Ltmp122:
	//DEBUG_VALUE: hisi_blk_busy_idle_check_request_bio:bio <- $x19
	.loc	2 470 3                 // /mnt/disk/jenkins/workspace/chipset_10.1.0_release_5G/opensource/component_code/vendor/huawei/extra/build/build_script/kirin_kernel_release/kernel/block/hisi-blk-busy-idle-notify.c:470:3
	cbnz	x19, .LBB5_2
.Ltmp123:
// %bb.3:
	//DEBUG_VALUE: hisi_blk_busy_idle_check_request_bio:q <- $x20
	//DEBUG_VALUE: hisi_blk_busy_idle_check_request_bio:bio <- $x19
	.loc	2 0 3 is_stmt 0         // /mnt/disk/jenkins/workspace/chipset_10.1.0_release_5G/opensource/component_code/vendor/huawei/extra/build/build_script/kirin_kernel_release/kernel/block/hisi-blk-busy-idle-notify.c:0:3
	orr	w0, wzr, #0x1
	b	.LBB5_5
.Ltmp124:
.LBB5_4:
	//DEBUG_VALUE: hisi_blk_busy_idle_check_request_bio:bio <- $x19
	//DEBUG_VALUE: hisi_blk_busy_idle_check_request_bio:rq <- $x1
	//DEBUG_VALUE: hisi_blk_busy_idle_check_request_bio:q <- $x0
	mov	w0, wzr
.Ltmp125:
.LBB5_5:
	//DEBUG_VALUE: hisi_blk_busy_idle_check_request_bio:bio <- $x19
	.loc	2 474 1 is_stmt 1       // /mnt/disk/jenkins/workspace/chipset_10.1.0_release_5G/opensource/component_code/vendor/huawei/extra/build/build_script/kirin_kernel_release/kernel/block/hisi-blk-busy-idle-notify.c:474:1
	ldp	x29, x30, [sp, #16]     // 16-byte Folded Reload
	ldp	x20, x19, [sp], #32     // 16-byte Folded Reload
.Ltmp126:
	ret
.Ltmp127:
.Lfunc_end5:
	.size	hisi_blk_busy_idle_check_request_bio, .Lfunc_end5-hisi_blk_busy_idle_check_request_bio
	.cfi_endproc
                                        // -- End function
	.section	.text.hisi_blk_busy_idle_end_rq,"ax",@progbits
	.hidden	hisi_blk_busy_idle_end_rq // -- Begin function hisi_blk_busy_idle_end_rq
	.globl	hisi_blk_busy_idle_end_rq
	.p2align	2
	.type	hisi_blk_busy_idle_end_rq,@function
hisi_blk_busy_idle_end_rq:              // @hisi_blk_busy_idle_end_rq
.Lfunc_begin6:
	.loc	2 477 0                 // /mnt/disk/jenkins/workspace/chipset_10.1.0_release_5G/opensource/component_code/vendor/huawei/extra/build/build_script/kirin_kernel_release/kernel/block/hisi-blk-busy-idle-notify.c:477:0
	.cfi_startproc
// %bb.0:
	stp	x22, x21, [sp, #-48]!   // 16-byte Folded Spill
	stp	x20, x19, [sp, #16]     // 16-byte Folded Spill
	stp	x29, x30, [sp, #32]     // 16-byte Folded Spill
	add	x29, sp, #32            // =32
	.cfi_def_cfa w29, 16
	.cfi_offset w30, -8
	.cfi_offset w29, -16
	.cfi_offset w19, -24
	.cfi_offset w20, -32
	.cfi_offset w21, -40
	.cfi_offset w22, -48
	//DEBUG_VALUE: hisi_blk_busy_idle_end_rq:rq <- $x0
	//DEBUG_VALUE: hisi_blk_busy_idle_end_rq:error <- $w1
.Ltmp128:
	//DEBUG_VALUE: hisi_blk_remove_rq_from_counted_list:rq <- $x0
	mov	x19, x0
.Ltmp129:
	//DEBUG_VALUE: hisi_blk_busy_idle_end_rq:rq <- $x19
	.loc	2 478 49 prologue_end   // /mnt/disk/jenkins/workspace/chipset_10.1.0_release_5G/opensource/component_code/vendor/huawei/extra/build/build_script/kirin_kernel_release/kernel/block/hisi-blk-busy-idle-notify.c:478:49
	ldr	x0, [x0, #64]
.Ltmp130:
	.loc	2 0 49 is_stmt 0        // /mnt/disk/jenkins/workspace/chipset_10.1.0_release_5G/opensource/component_code/vendor/huawei/extra/build/build_script/kirin_kernel_release/kernel/block/hisi-blk-busy-idle-notify.c:0:49
	mov	w20, w1
.Ltmp131:
	//DEBUG_VALUE: hisi_blk_busy_idle_end_rq:error <- $w20
	.loc	2 478 28                // /mnt/disk/jenkins/workspace/chipset_10.1.0_release_5G/opensource/component_code/vendor/huawei/extra/build/build_script/kirin_kernel_release/kernel/block/hisi-blk-busy-idle-notify.c:478:28
	bl	hisi_blk_get_lld
.Ltmp132:
	.loc	138 114 1 is_stmt 1     // /mnt/disk/jenkins/workspace/chipset_10.1.0_release_5G/opensource/component_code/vendor/huawei/extra/build/build_script/kirin_kernel_release/kernel/arch/arm64/include/asm/atomic_ll_sc.h:114:1
	add	x8, x0, #412            // =412
	//APP
	// atomic_sub
	prfm	pstl1strm, [x8]
1:	ldxr	w9, [x8]
	sub	w9, w9, #1
	stxr	w10, w9, [x8]
	cbnz	w10, 1b
	//NO_APP
.Ltmp133:
	//DEBUG_VALUE: spinlock_check:lock <- [DW_OP_plus_uconst 448, DW_OP_stack_value] $x21
	.loc	139 306 16              // /mnt/disk/jenkins/workspace/chipset_10.1.0_release_5G/opensource/component_code/vendor/huawei/extra/build/build_script/kirin_kernel_release/kernel/include/linux/spinlock.h:306:16
	add	x22, x0, #448           // =448
.Ltmp134:
	.loc	2 478 28                // /mnt/disk/jenkins/workspace/chipset_10.1.0_release_5G/opensource/component_code/vendor/huawei/extra/build/build_script/kirin_kernel_release/kernel/block/hisi-blk-busy-idle-notify.c:478:28
	mov	x21, x0
.Ltmp135:
	//DEBUG_VALUE: atomic_sub:i <- 1
	//DEBUG_VALUE: atomic_sub:v <- [DW_OP_plus_uconst 412, DW_OP_stack_value] $x21
	//DEBUG_VALUE: hisi_blk_remove_rq_from_counted_list:lld <- $x21
	//DEBUG_VALUE: hisi_blk_busy_idle_end_rq:lld <- $x21
	//DEBUG_VALUE: atomic_sub_return:v <- [DW_OP_plus_uconst 288, DW_OP_stack_value] $x21
	//DEBUG_VALUE: blk_lld_idle_notify:lld <- $x21
	//DEBUG_VALUE: hisi_blk_remove_rq_from_counted_list:rq <- $x19
	.loc	2 436 2                 // /mnt/disk/jenkins/workspace/chipset_10.1.0_release_5G/opensource/component_code/vendor/huawei/extra/build/build_script/kirin_kernel_release/kernel/block/hisi-blk-busy-idle-notify.c:436:2
	mov	x0, x22
	bl	_raw_spin_lock_irqsave
.Ltmp136:
	.loc	140 120 33              // /mnt/disk/jenkins/workspace/chipset_10.1.0_release_5G/opensource/component_code/vendor/huawei/extra/build/build_script/kirin_kernel_release/kernel/include/linux/list.h:120:33
	ldp	x8, x9, [x19, #496]
.Ltmp137:
	//DEBUG_VALUE: __write_once_size:p <- undef
	//DEBUG_VALUE: __write_once_size:res <- undef
	.loc	2 436 2                 // /mnt/disk/jenkins/workspace/chipset_10.1.0_release_5G/opensource/component_code/vendor/huawei/extra/build/build_script/kirin_kernel_release/kernel/block/hisi-blk-busy-idle-notify.c:436:2
	mov	x1, x0
.Ltmp138:
	//DEBUG_VALUE: hisi_blk_remove_rq_from_counted_list:flags <- $x1
	.loc	2 437 21                // /mnt/disk/jenkins/workspace/chipset_10.1.0_release_5G/opensource/component_code/vendor/huawei/extra/build/build_script/kirin_kernel_release/kernel/block/hisi-blk-busy-idle-notify.c:437:21
	add	x10, x19, #496          // =496
.Ltmp139:
	//DEBUG_VALUE: __list_del_entry:entry <- $x10
	//DEBUG_VALUE: list_del_init:entry <- $x10
	//DEBUG_VALUE: __list_del:prev <- $x9
	//DEBUG_VALUE: __list_del:next <- $x8
	.loc	139 372 2               // /mnt/disk/jenkins/workspace/chipset_10.1.0_release_5G/opensource/component_code/vendor/huawei/extra/build/build_script/kirin_kernel_release/kernel/include/linux/spinlock.h:372:2
	mov	x0, x22
.Ltmp140:
	.loc	140 105 13              // /mnt/disk/jenkins/workspace/chipset_10.1.0_release_5G/opensource/component_code/vendor/huawei/extra/build/build_script/kirin_kernel_release/kernel/include/linux/list.h:105:13
	str	x9, [x8, #8]
.Ltmp141:
	//DEBUG_VALUE: __write_once_size:res <- undef
	//DEBUG_VALUE: __write_once_size:size <- 8
	.loc	137 213 31              // /mnt/disk/jenkins/workspace/chipset_10.1.0_release_5G/opensource/component_code/vendor/huawei/extra/build/build_script/kirin_kernel_release/kernel/include/linux/compiler.h:213:31
	str	x8, [x9]
.Ltmp142:
	//DEBUG_VALUE: __write_once_size:p <- $x10
	//DEBUG_VALUE: __write_once_size:size <- 8
	//DEBUG_VALUE: INIT_LIST_HEAD:list <- $x10
	.loc	137 213 31 is_stmt 0    // /mnt/disk/jenkins/workspace/chipset_10.1.0_release_5G/opensource/component_code/vendor/huawei/extra/build/build_script/kirin_kernel_release/kernel/include/linux/compiler.h:213:31
	str	x10, [x19, #496]
.Ltmp143:
	.loc	140 29 13 is_stmt 1     // /mnt/disk/jenkins/workspace/chipset_10.1.0_release_5G/opensource/component_code/vendor/huawei/extra/build/build_script/kirin_kernel_release/kernel/include/linux/list.h:29:13
	str	x10, [x19, #504]
.Ltmp144:
	//DEBUG_VALUE: spin_unlock_irqrestore:flags <- $x1
	//DEBUG_VALUE: spin_unlock_irqrestore:lock <- [DW_OP_plus_uconst 448, DW_OP_stack_value] $x21
	.loc	139 372 2               // /mnt/disk/jenkins/workspace/chipset_10.1.0_release_5G/opensource/component_code/vendor/huawei/extra/build/build_script/kirin_kernel_release/kernel/include/linux/spinlock.h:372:2
	bl	_raw_spin_unlock_irqrestore
.Ltmp145:
	//DEBUG_VALUE: blk_idle_count:lld <- $x21
	//DEBUG_VALUE: blk_idle_count:blk_idle <- [DW_OP_plus_uconst 80, DW_OP_stack_value] $x21
	.loc	2 295 6                 // /mnt/disk/jenkins/workspace/chipset_10.1.0_release_5G/opensource/component_code/vendor/huawei/extra/build/build_script/kirin_kernel_release/kernel/block/hisi-blk-busy-idle-notify.c:295:6
	ldrb	w8, [x21, #24]
	tbz	w8, #3, .LBB6_4
.Ltmp146:
// %bb.1:
	//DEBUG_VALUE: blk_idle_count:blk_idle <- [DW_OP_plus_uconst 80, DW_OP_stack_value] $x21
	//DEBUG_VALUE: blk_idle_count:lld <- $x21
	//DEBUG_VALUE: hisi_blk_busy_idle_end_rq:lld <- $x21
	//DEBUG_VALUE: hisi_blk_busy_idle_end_rq:error <- $w20
	//DEBUG_VALUE: hisi_blk_busy_idle_end_rq:rq <- $x19
	.loc	2 298 16                // /mnt/disk/jenkins/workspace/chipset_10.1.0_release_5G/opensource/component_code/vendor/huawei/extra/build/build_script/kirin_kernel_release/kernel/block/hisi-blk-busy-idle-notify.c:298:16
	ldrb	w8, [x21, #80]
.Ltmp147:
	.loc	2 298 6 is_stmt 0       // /mnt/disk/jenkins/workspace/chipset_10.1.0_release_5G/opensource/component_code/vendor/huawei/extra/build/build_script/kirin_kernel_release/kernel/block/hisi-blk-busy-idle-notify.c:298:6
	cbnz	w8, .LBB6_4
.Ltmp148:
// %bb.2:
	//DEBUG_VALUE: blk_idle_count:blk_idle <- [DW_OP_plus_uconst 80, DW_OP_stack_value] $x21
	//DEBUG_VALUE: blk_idle_count:lld <- $x21
	//DEBUG_VALUE: hisi_blk_busy_idle_end_rq:lld <- $x21
	//DEBUG_VALUE: hisi_blk_busy_idle_end_rq:error <- $w20
	//DEBUG_VALUE: hisi_blk_busy_idle_end_rq:rq <- $x19
	//DEBUG_VALUE: __read_once_size:res <- undef
	//DEBUG_VALUE: __read_once_size:size <- 4
	//DEBUG_VALUE: __read_once_size:p <- [DW_OP_plus_uconst 288, DW_OP_stack_value] $x21
	.loc	137 186 2 is_stmt 1     // /mnt/disk/jenkins/workspace/chipset_10.1.0_release_5G/opensource/component_code/vendor/huawei/extra/build/build_script/kirin_kernel_release/kernel/include/linux/compiler.h:186:2
	ldr	w8, [x21, #288]
.Ltmp149:
	.loc	2 300 6                 // /mnt/disk/jenkins/workspace/chipset_10.1.0_release_5G/opensource/component_code/vendor/huawei/extra/build/build_script/kirin_kernel_release/kernel/block/hisi-blk-busy-idle-notify.c:300:6
	cbz	w8, .LBB6_7
.Ltmp150:
// %bb.3:
	//DEBUG_VALUE: blk_idle_count:blk_idle <- [DW_OP_plus_uconst 80, DW_OP_stack_value] $x21
	//DEBUG_VALUE: blk_idle_count:lld <- $x21
	//DEBUG_VALUE: hisi_blk_busy_idle_end_rq:lld <- $x21
	//DEBUG_VALUE: hisi_blk_busy_idle_end_rq:error <- $w20
	//DEBUG_VALUE: hisi_blk_busy_idle_end_rq:rq <- $x19
	//DEBUG_VALUE: atomic_sub_return:i <- 1
	.loc	138 114 1               // /mnt/disk/jenkins/workspace/chipset_10.1.0_release_5G/opensource/component_code/vendor/huawei/extra/build/build_script/kirin_kernel_release/kernel/arch/arm64/include/asm/atomic_ll_sc.h:114:1
	add	x8, x21, #288           // =288
	//APP
	// atomic_sub_return
	prfm	pstl1strm, [x8]
1:	ldxr	w9, [x8]
	sub	w9, w9, #1
	stlxr	w10, w9, [x8]
	cbnz	w10, 1b
	dmb ish
	//NO_APP
.Ltmp151:
	//DEBUG_VALUE: atomic_sub_return:result <- $w9
	.loc	2 309 6                 // /mnt/disk/jenkins/workspace/chipset_10.1.0_release_5G/opensource/component_code/vendor/huawei/extra/build/build_script/kirin_kernel_release/kernel/block/hisi-blk-busy-idle-notify.c:309:6
	cbz	w9, .LBB6_8
.Ltmp152:
.LBB6_4:
	//DEBUG_VALUE: hisi_blk_busy_idle_end_rq:lld <- $x21
	//DEBUG_VALUE: hisi_blk_busy_idle_end_rq:error <- $w20
	//DEBUG_VALUE: hisi_blk_busy_idle_end_rq:rq <- $x19
	.loc	2 483 19                // /mnt/disk/jenkins/workspace/chipset_10.1.0_release_5G/opensource/component_code/vendor/huawei/extra/build/build_script/kirin_kernel_release/kernel/block/hisi-blk-busy-idle-notify.c:483:19
	ldr	x8, [x19, #288]
.Ltmp153:
	.loc	2 483 6 is_stmt 0       // /mnt/disk/jenkins/workspace/chipset_10.1.0_release_5G/opensource/component_code/vendor/huawei/extra/build/build_script/kirin_kernel_release/kernel/block/hisi-blk-busy-idle-notify.c:483:6
	cbz	x8, .LBB6_6
.Ltmp154:
.LBB6_5:
	//DEBUG_VALUE: hisi_blk_busy_idle_end_rq:error <- $w20
	//DEBUG_VALUE: hisi_blk_busy_idle_end_rq:rq <- $x19
	//DEBUG_VALUE: hisi_blk_busy_idle_end_rq:error <- $w20
	.loc	2 484 3 is_stmt 1       // /mnt/disk/jenkins/workspace/chipset_10.1.0_release_5G/opensource/component_code/vendor/huawei/extra/build/build_script/kirin_kernel_release/kernel/block/hisi-blk-busy-idle-notify.c:484:3
	mov	x0, x19
	mov	w1, w20
	blr	x8
.Ltmp155:
.LBB6_6:
	//DEBUG_VALUE: hisi_blk_busy_idle_end_rq:error <- $w20
	//DEBUG_VALUE: hisi_blk_busy_idle_end_rq:rq <- $x19
	.loc	2 485 1                 // /mnt/disk/jenkins/workspace/chipset_10.1.0_release_5G/opensource/component_code/vendor/huawei/extra/build/build_script/kirin_kernel_release/kernel/block/hisi-blk-busy-idle-notify.c:485:1
	ldp	x29, x30, [sp, #32]     // 16-byte Folded Reload
	ldp	x20, x19, [sp, #16]     // 16-byte Folded Reload
.Ltmp156:
	ldp	x22, x21, [sp], #48     // 16-byte Folded Reload
	ret
.LBB6_7:
.Ltmp157:
	//DEBUG_VALUE: blk_idle_count:blk_idle <- [DW_OP_plus_uconst 80, DW_OP_stack_value] $x21
	//DEBUG_VALUE: blk_idle_count:lld <- $x21
	//DEBUG_VALUE: hisi_blk_busy_idle_end_rq:lld <- $x21
	//DEBUG_VALUE: hisi_blk_busy_idle_end_rq:error <- $w20
	//DEBUG_VALUE: hisi_blk_busy_idle_end_rq:rq <- $x19
	.loc	2 301 3                 // /mnt/disk/jenkins/workspace/chipset_10.1.0_release_5G/opensource/component_code/vendor/huawei/extra/build/build_script/kirin_kernel_release/kernel/block/hisi-blk-busy-idle-notify.c:301:3
	adrp	x0, .L.str.34
	adrp	x1, .L__func__.blk_idle_count
	add	x0, x0, :lo12:.L.str.34
	add	x1, x1, :lo12:.L__func__.blk_idle_count
	bl	printk
.Ltmp158:
	.loc	2 483 19                // /mnt/disk/jenkins/workspace/chipset_10.1.0_release_5G/opensource/component_code/vendor/huawei/extra/build/build_script/kirin_kernel_release/kernel/block/hisi-blk-busy-idle-notify.c:483:19
	ldr	x8, [x19, #288]
.Ltmp159:
	.loc	2 483 6 is_stmt 0       // /mnt/disk/jenkins/workspace/chipset_10.1.0_release_5G/opensource/component_code/vendor/huawei/extra/build/build_script/kirin_kernel_release/kernel/block/hisi-blk-busy-idle-notify.c:483:6
	cbnz	x8, .LBB6_5
	b	.LBB6_6
.Ltmp160:
.LBB6_8:
	//DEBUG_VALUE: blk_idle_count:blk_idle <- [DW_OP_plus_uconst 80, DW_OP_stack_value] $x21
	//DEBUG_VALUE: blk_idle_count:lld <- $x21
	//DEBUG_VALUE: hisi_blk_busy_idle_end_rq:lld <- $x21
	//DEBUG_VALUE: hisi_blk_busy_idle_end_rq:error <- $w20
	//DEBUG_VALUE: hisi_blk_busy_idle_end_rq:rq <- $x19
	.loc	2 284 6 is_stmt 1       // /mnt/disk/jenkins/workspace/chipset_10.1.0_release_5G/opensource/component_code/vendor/huawei/extra/build/build_script/kirin_kernel_release/kernel/block/hisi-blk-busy-idle-notify.c:284:6
	ldr	w8, [x21]
.Ltmp161:
	.loc	2 284 6 is_stmt 0       // /mnt/disk/jenkins/workspace/chipset_10.1.0_release_5G/opensource/component_code/vendor/huawei/extra/build/build_script/kirin_kernel_release/kernel/block/hisi-blk-busy-idle-notify.c:284:6
	cmp	w8, #122                // =122
	b.ne	.LBB6_4
.Ltmp162:
// %bb.9:
	//DEBUG_VALUE: blk_idle_count:blk_idle <- [DW_OP_plus_uconst 80, DW_OP_stack_value] $x21
	//DEBUG_VALUE: blk_idle_count:lld <- $x21
	//DEBUG_VALUE: hisi_blk_busy_idle_end_rq:lld <- $x21
	//DEBUG_VALUE: hisi_blk_busy_idle_end_rq:error <- $w20
	//DEBUG_VALUE: hisi_blk_busy_idle_end_rq:rq <- $x19
	.loc	2 285 22 is_stmt 1      // /mnt/disk/jenkins/workspace/chipset_10.1.0_release_5G/opensource/component_code/vendor/huawei/extra/build/build_script/kirin_kernel_release/kernel/block/hisi-blk-busy-idle-notify.c:285:22
	adrp	x8, blk_idle_notify_workqueue
	.loc	2 287 35                // /mnt/disk/jenkins/workspace/chipset_10.1.0_release_5G/opensource/component_code/vendor/huawei/extra/build/build_script/kirin_kernel_release/kernel/block/hisi-blk-busy-idle-notify.c:287:35
	ldr	w0, [x21, #184]
	.loc	2 285 22                // /mnt/disk/jenkins/workspace/chipset_10.1.0_release_5G/opensource/component_code/vendor/huawei/extra/build/build_script/kirin_kernel_release/kernel/block/hisi-blk-busy-idle-notify.c:285:22
	ldr	x22, [x8, :lo12:blk_idle_notify_workqueue]
	.loc	2 286 19                // /mnt/disk/jenkins/workspace/chipset_10.1.0_release_5G/opensource/component_code/vendor/huawei/extra/build/build_script/kirin_kernel_release/kernel/block/hisi-blk-busy-idle-notify.c:286:19
	add	x21, x21, #88           // =88
.Ltmp163:
	//DEBUG_VALUE: msecs_to_jiffies:m <- $w0
	.loc	136 370 10              // /mnt/disk/jenkins/workspace/chipset_10.1.0_release_5G/opensource/component_code/vendor/huawei/extra/build/build_script/kirin_kernel_release/kernel/include/linux/jiffies.h:370:10
	bl	__msecs_to_jiffies
.Ltmp164:
	mov	x3, x0
.Ltmp165:
	//DEBUG_VALUE: queue_delayed_work:delay <- $x3
	//DEBUG_VALUE: queue_delayed_work:dwork <- $x21
	//DEBUG_VALUE: queue_delayed_work:wq <- $x22
	.loc	21 506 9                // /mnt/disk/jenkins/workspace/chipset_10.1.0_release_5G/opensource/component_code/vendor/huawei/extra/build/build_script/kirin_kernel_release/kernel/include/linux/workqueue.h:506:9
	orr	w0, wzr, #0x8
	mov	x1, x22
	mov	x2, x21
	bl	queue_delayed_work_on
.Ltmp166:
	.loc	2 483 19                // /mnt/disk/jenkins/workspace/chipset_10.1.0_release_5G/opensource/component_code/vendor/huawei/extra/build/build_script/kirin_kernel_release/kernel/block/hisi-blk-busy-idle-notify.c:483:19
	ldr	x8, [x19, #288]
.Ltmp167:
	.loc	2 483 6 is_stmt 0       // /mnt/disk/jenkins/workspace/chipset_10.1.0_release_5G/opensource/component_code/vendor/huawei/extra/build/build_script/kirin_kernel_release/kernel/block/hisi-blk-busy-idle-notify.c:483:6
	cbnz	x8, .LBB6_5
	b	.LBB6_6
.Ltmp168:
.Lfunc_end6:
	.size	hisi_blk_busy_idle_end_rq, .Lfunc_end6-hisi_blk_busy_idle_end_rq
	.cfi_endproc
                                        // -- End function
	.section	.text.hisi_blk_busy_idle_check_execute_request,"ax",@progbits
	.hidden	hisi_blk_busy_idle_check_execute_request // -- Begin function hisi_blk_busy_idle_check_execute_request
	.globl	hisi_blk_busy_idle_check_execute_request
	.p2align	2
	.type	hisi_blk_busy_idle_check_execute_request,@function
hisi_blk_busy_idle_check_execute_request: // @hisi_blk_busy_idle_check_execute_request
.Lfunc_begin7:
	.loc	2 492 0 is_stmt 1       // /mnt/disk/jenkins/workspace/chipset_10.1.0_release_5G/opensource/component_code/vendor/huawei/extra/build/build_script/kirin_kernel_release/kernel/block/hisi-blk-busy-idle-notify.c:492:0
	.cfi_startproc
// %bb.0:
	str	x23, [sp, #-64]!        // 8-byte Folded Spill
	stp	x22, x21, [sp, #16]     // 16-byte Folded Spill
	stp	x20, x19, [sp, #32]     // 16-byte Folded Spill
	stp	x29, x30, [sp, #48]     // 16-byte Folded Spill
	add	x29, sp, #48            // =48
	.cfi_def_cfa w29, 16
	.cfi_offset w30, -8
	.cfi_offset w29, -16
	.cfi_offset w19, -24
	.cfi_offset w20, -32
	.cfi_offset w21, -40
	.cfi_offset w22, -48
	.cfi_offset w23, -64
	//DEBUG_VALUE: hisi_blk_busy_idle_check_execute_request:q <- $x0
	//DEBUG_VALUE: hisi_blk_busy_idle_check_execute_request:rq <- $x1
	//DEBUG_VALUE: hisi_blk_busy_idle_check_execute_request:done <- $x2
.Ltmp169:
	//DEBUG_VALUE: hisi_blk_busy_idle_check_request_bio:q <- $x0
	//DEBUG_VALUE: hisi_blk_busy_idle_check_request_bio:rq <- $x1
	//DEBUG_VALUE: hisi_blk_add_rq_to_counted_list:rq <- $x1
	//DEBUG_VALUE: blk_busy_count:q <- $x0
	.loc	2 464 24 prologue_end   // /mnt/disk/jenkins/workspace/chipset_10.1.0_release_5G/opensource/component_code/vendor/huawei/extra/build/build_script/kirin_kernel_release/kernel/block/hisi-blk-busy-idle-notify.c:464:24
	ldr	x22, [x1, #120]
.Ltmp170:
	//DEBUG_VALUE: hisi_blk_busy_idle_check_request_bio:bio <- $x22
	.loc	2 0 24 is_stmt 0        // /mnt/disk/jenkins/workspace/chipset_10.1.0_release_5G/opensource/component_code/vendor/huawei/extra/build/build_script/kirin_kernel_release/kernel/block/hisi-blk-busy-idle-notify.c:0:24
	mov	x19, x2
	mov	x20, x1
.Ltmp171:
	//DEBUG_VALUE: hisi_blk_add_rq_to_counted_list:rq <- $x20
	//DEBUG_VALUE: hisi_blk_busy_idle_check_request_bio:rq <- $x20
	//DEBUG_VALUE: hisi_blk_busy_idle_check_execute_request:done <- $x19
	//DEBUG_VALUE: hisi_blk_busy_idle_check_execute_request:rq <- $x20
	mov	x21, x0
.Ltmp172:
	//DEBUG_VALUE: blk_busy_count:q <- $x21
	//DEBUG_VALUE: hisi_blk_busy_idle_check_request_bio:q <- $x21
	//DEBUG_VALUE: hisi_blk_busy_idle_check_execute_request:q <- $x21
	.loc	2 466 6 is_stmt 1       // /mnt/disk/jenkins/workspace/chipset_10.1.0_release_5G/opensource/component_code/vendor/huawei/extra/build/build_script/kirin_kernel_release/kernel/block/hisi-blk-busy-idle-notify.c:466:6
	cbz	x22, .LBB7_3
.Ltmp173:
.LBB7_1:                                // =>This Inner Loop Header: Depth=1
	//DEBUG_VALUE: hisi_blk_busy_idle_check_execute_request:q <- $x21
	//DEBUG_VALUE: hisi_blk_busy_idle_check_request_bio:q <- $x21
	//DEBUG_VALUE: hisi_blk_busy_idle_check_execute_request:rq <- $x20
	//DEBUG_VALUE: hisi_blk_busy_idle_check_execute_request:done <- $x19
	//DEBUG_VALUE: hisi_blk_busy_idle_check_request_bio:rq <- $x20
	//DEBUG_VALUE: hisi_blk_busy_idle_check_request_bio:bio <- $x22
	//DEBUG_VALUE: hisi_blk_busy_idle_check_request_bio:bio <- $x22
	.loc	2 468 4                 // /mnt/disk/jenkins/workspace/chipset_10.1.0_release_5G/opensource/component_code/vendor/huawei/extra/build/build_script/kirin_kernel_release/kernel/block/hisi-blk-busy-idle-notify.c:468:4
	mov	x0, x21
	mov	x1, x22
	bl	hisi_blk_busy_idle_check_bio
	.loc	2 469 15                // /mnt/disk/jenkins/workspace/chipset_10.1.0_release_5G/opensource/component_code/vendor/huawei/extra/build/build_script/kirin_kernel_release/kernel/block/hisi-blk-busy-idle-notify.c:469:15
	ldr	x22, [x22]
.Ltmp174:
	//DEBUG_VALUE: hisi_blk_busy_idle_check_request_bio:bio <- $x22
	.loc	2 470 3                 // /mnt/disk/jenkins/workspace/chipset_10.1.0_release_5G/opensource/component_code/vendor/huawei/extra/build/build_script/kirin_kernel_release/kernel/block/hisi-blk-busy-idle-notify.c:470:3
	cbnz	x22, .LBB7_1
.Ltmp175:
// %bb.2:
	//DEBUG_VALUE: hisi_blk_busy_idle_check_execute_request:q <- $x21
	//DEBUG_VALUE: hisi_blk_busy_idle_check_execute_request:rq <- $x20
	//DEBUG_VALUE: hisi_blk_busy_idle_check_execute_request:done <- $x19
	.loc	2 501 7                 // /mnt/disk/jenkins/workspace/chipset_10.1.0_release_5G/opensource/component_code/vendor/huawei/extra/build/build_script/kirin_kernel_release/kernel/block/hisi-blk-busy-idle-notify.c:501:7
	add	x8, x20, #592           // =592
	b	.LBB7_7
.Ltmp176:
.LBB7_3:
	//DEBUG_VALUE: hisi_blk_busy_idle_check_execute_request:q <- $x21
	//DEBUG_VALUE: blk_busy_count:q <- $x21
	//DEBUG_VALUE: hisi_blk_busy_idle_check_execute_request:rq <- $x20
	//DEBUG_VALUE: hisi_blk_busy_idle_check_execute_request:done <- $x19
	//DEBUG_VALUE: hisi_blk_add_rq_to_counted_list:rq <- $x20
	.loc	2 494 50                // /mnt/disk/jenkins/workspace/chipset_10.1.0_release_5G/opensource/component_code/vendor/huawei/extra/build/build_script/kirin_kernel_release/kernel/block/hisi-blk-busy-idle-notify.c:494:50
	ldr	x0, [x20, #64]
	.loc	2 494 29 is_stmt 0      // /mnt/disk/jenkins/workspace/chipset_10.1.0_release_5G/opensource/component_code/vendor/huawei/extra/build/build_script/kirin_kernel_release/kernel/block/hisi-blk-busy-idle-notify.c:494:29
	bl	hisi_blk_get_lld
.Ltmp177:
	.loc	138 113 1 is_stmt 1     // /mnt/disk/jenkins/workspace/chipset_10.1.0_release_5G/opensource/component_code/vendor/huawei/extra/build/build_script/kirin_kernel_release/kernel/arch/arm64/include/asm/atomic_ll_sc.h:113:1
	add	x8, x0, #412            // =412
	//APP
	// atomic_add
	prfm	pstl1strm, [x8]
1:	ldxr	w9, [x8]
	add	w9, w9, #1
	stxr	w10, w9, [x8]
	cbnz	w10, 1b
	//NO_APP
.Ltmp178:
	//DEBUG_VALUE: spinlock_check:lock <- [DW_OP_plus_uconst 448, DW_OP_stack_value] $x22
	.loc	139 306 16              // /mnt/disk/jenkins/workspace/chipset_10.1.0_release_5G/opensource/component_code/vendor/huawei/extra/build/build_script/kirin_kernel_release/kernel/include/linux/spinlock.h:306:16
	add	x23, x0, #448           // =448
.Ltmp179:
	.loc	2 494 29                // /mnt/disk/jenkins/workspace/chipset_10.1.0_release_5G/opensource/component_code/vendor/huawei/extra/build/build_script/kirin_kernel_release/kernel/block/hisi-blk-busy-idle-notify.c:494:29
	mov	x22, x0
.Ltmp180:
	//DEBUG_VALUE: atomic_add:i <- 1
	//DEBUG_VALUE: atomic_add:v <- [DW_OP_plus_uconst 412, DW_OP_stack_value] $x22
	//DEBUG_VALUE: hisi_blk_add_rq_to_counted_list:lld <- $x22
	//DEBUG_VALUE: lld <- $x22
	//DEBUG_VALUE: atomic_add:v <- [DW_OP_plus_uconst 288, DW_OP_stack_value] $x22
	.loc	2 418 2                 // /mnt/disk/jenkins/workspace/chipset_10.1.0_release_5G/opensource/component_code/vendor/huawei/extra/build/build_script/kirin_kernel_release/kernel/block/hisi-blk-busy-idle-notify.c:418:2
	mov	x0, x23
	bl	_raw_spin_lock_irqsave
.Ltmp181:
	.loc	140 93 24               // /mnt/disk/jenkins/workspace/chipset_10.1.0_release_5G/opensource/component_code/vendor/huawei/extra/build/build_script/kirin_kernel_release/kernel/include/linux/list.h:93:24
	ldr	x9, [x22, #440]
.Ltmp182:
	.loc	2 418 2                 // /mnt/disk/jenkins/workspace/chipset_10.1.0_release_5G/opensource/component_code/vendor/huawei/extra/build/build_script/kirin_kernel_release/kernel/block/hisi-blk-busy-idle-notify.c:418:2
	mov	x1, x0
.Ltmp183:
	//DEBUG_VALUE: hisi_blk_add_rq_to_counted_list:flags <- $x1
	.loc	2 419 21                // /mnt/disk/jenkins/workspace/chipset_10.1.0_release_5G/opensource/component_code/vendor/huawei/extra/build/build_script/kirin_kernel_release/kernel/block/hisi-blk-busy-idle-notify.c:419:21
	add	x8, x20, #496           // =496
.Ltmp184:
	//DEBUG_VALUE: list_add_tail:new <- $x8
	.loc	2 419 55 is_stmt 0      // /mnt/disk/jenkins/workspace/chipset_10.1.0_release_5G/opensource/component_code/vendor/huawei/extra/build/build_script/kirin_kernel_release/kernel/block/hisi-blk-busy-idle-notify.c:419:55
	add	x10, x22, #432          // =432
.Ltmp185:
	//DEBUG_VALUE: list_add_tail:head <- $x10
	//DEBUG_VALUE: __list_add:next <- $x10
	//DEBUG_VALUE: __list_add:prev <- $x9
	//DEBUG_VALUE: __list_add:new <- $x8
	.loc	139 372 2 is_stmt 1     // /mnt/disk/jenkins/workspace/chipset_10.1.0_release_5G/opensource/component_code/vendor/huawei/extra/build/build_script/kirin_kernel_release/kernel/include/linux/spinlock.h:372:2
	mov	x0, x23
.Ltmp186:
	.loc	140 63 13               // /mnt/disk/jenkins/workspace/chipset_10.1.0_release_5G/opensource/component_code/vendor/huawei/extra/build/build_script/kirin_kernel_release/kernel/include/linux/list.h:63:13
	str	x8, [x22, #440]
	//DEBUG_VALUE: list_add_tail:new <- $x8
	.loc	140 64 12               // /mnt/disk/jenkins/workspace/chipset_10.1.0_release_5G/opensource/component_code/vendor/huawei/extra/build/build_script/kirin_kernel_release/kernel/include/linux/list.h:64:12
	stp	x10, x9, [x20, #496]
.Ltmp187:
	//DEBUG_VALUE: __write_once_size:res <- undef
	//DEBUG_VALUE: __write_once_size:p <- $x9
	//DEBUG_VALUE: __write_once_size:size <- 8
	.loc	137 213 31              // /mnt/disk/jenkins/workspace/chipset_10.1.0_release_5G/opensource/component_code/vendor/huawei/extra/build/build_script/kirin_kernel_release/kernel/include/linux/compiler.h:213:31
	str	x8, [x9]
.Ltmp188:
	//DEBUG_VALUE: spin_unlock_irqrestore:flags <- $x1
	//DEBUG_VALUE: spin_unlock_irqrestore:lock <- [DW_OP_plus_uconst 448, DW_OP_stack_value] $x22
	.loc	139 372 2               // /mnt/disk/jenkins/workspace/chipset_10.1.0_release_5G/opensource/component_code/vendor/huawei/extra/build/build_script/kirin_kernel_release/kernel/include/linux/spinlock.h:372:2
	bl	_raw_spin_unlock_irqrestore
.Ltmp189:
	//DEBUG_VALUE: blk_busy_count:lld <- $x22
	//DEBUG_VALUE: blk_busy_count:blk_idle <- [DW_OP_plus_uconst 80, DW_OP_stack_value] $x22
	.loc	2 352 6                 // /mnt/disk/jenkins/workspace/chipset_10.1.0_release_5G/opensource/component_code/vendor/huawei/extra/build/build_script/kirin_kernel_release/kernel/block/hisi-blk-busy-idle-notify.c:352:6
	ldrb	w8, [x22, #24]
	tbz	w8, #3, .LBB7_6
.Ltmp190:
// %bb.4:
	//DEBUG_VALUE: blk_busy_count:blk_idle <- [DW_OP_plus_uconst 80, DW_OP_stack_value] $x22
	//DEBUG_VALUE: blk_busy_count:lld <- $x22
	//DEBUG_VALUE: lld <- $x22
	//DEBUG_VALUE: hisi_blk_busy_idle_check_execute_request:q <- $x21
	//DEBUG_VALUE: blk_busy_count:q <- $x21
	//DEBUG_VALUE: hisi_blk_busy_idle_check_execute_request:rq <- $x20
	//DEBUG_VALUE: hisi_blk_busy_idle_check_execute_request:done <- $x19
	//DEBUG_VALUE: __read_once_size:res <- undef
	//DEBUG_VALUE: __read_once_size:size <- 4
	//DEBUG_VALUE: __read_once_size:p <- [DW_OP_plus_uconst 288, DW_OP_stack_value] $x22
	.loc	137 186 2               // /mnt/disk/jenkins/workspace/chipset_10.1.0_release_5G/opensource/component_code/vendor/huawei/extra/build/build_script/kirin_kernel_release/kernel/include/linux/compiler.h:186:2
	ldr	w8, [x22, #288]
.Ltmp191:
	.loc	2 355 6                 // /mnt/disk/jenkins/workspace/chipset_10.1.0_release_5G/opensource/component_code/vendor/huawei/extra/build/build_script/kirin_kernel_release/kernel/block/hisi-blk-busy-idle-notify.c:355:6
	cbz	w8, .LBB7_8
.Ltmp192:
.LBB7_5:
	//DEBUG_VALUE: blk_busy_count:blk_idle <- [DW_OP_plus_uconst 80, DW_OP_stack_value] $x22
	//DEBUG_VALUE: blk_busy_count:lld <- $x22
	//DEBUG_VALUE: lld <- $x22
	//DEBUG_VALUE: hisi_blk_busy_idle_check_execute_request:q <- $x21
	//DEBUG_VALUE: blk_busy_count:q <- $x21
	//DEBUG_VALUE: hisi_blk_busy_idle_check_execute_request:rq <- $x20
	//DEBUG_VALUE: hisi_blk_busy_idle_check_execute_request:done <- $x19
	//DEBUG_VALUE: atomic_add:i <- 1
	.loc	138 113 1               // /mnt/disk/jenkins/workspace/chipset_10.1.0_release_5G/opensource/component_code/vendor/huawei/extra/build/build_script/kirin_kernel_release/kernel/arch/arm64/include/asm/atomic_ll_sc.h:113:1
	add	x8, x22, #288           // =288
	//APP
	// atomic_add
	prfm	pstl1strm, [x8]
1:	ldxr	w9, [x8]
	add	w9, w9, #1
	stxr	w10, w9, [x8]
	cbnz	w10, 1b
	//NO_APP
.Ltmp193:
.LBB7_6:
	//DEBUG_VALUE: lld <- $x22
	//DEBUG_VALUE: hisi_blk_busy_idle_check_execute_request:q <- $x21
	//DEBUG_VALUE: hisi_blk_busy_idle_check_execute_request:rq <- $x20
	//DEBUG_VALUE: hisi_blk_busy_idle_check_execute_request:done <- $x19
	.loc	2 498 14                // /mnt/disk/jenkins/workspace/chipset_10.1.0_release_5G/opensource/component_code/vendor/huawei/extra/build/build_script/kirin_kernel_release/kernel/block/hisi-blk-busy-idle-notify.c:498:14
	adrp	x8, __cfi_hisi_blk_busy_idle_end_rq
	add	x8, x8, :lo12:__cfi_hisi_blk_busy_idle_end_rq
	str	x8, [x20, #592]
	.loc	2 499 16                // /mnt/disk/jenkins/workspace/chipset_10.1.0_release_5G/opensource/component_code/vendor/huawei/extra/build/build_script/kirin_kernel_release/kernel/block/hisi-blk-busy-idle-notify.c:499:16
	add	x8, x20, #288           // =288
.Ltmp194:
.LBB7_7:
	//DEBUG_VALUE: hisi_blk_busy_idle_check_execute_request:q <- $x21
	//DEBUG_VALUE: hisi_blk_busy_idle_check_execute_request:rq <- $x20
	//DEBUG_VALUE: hisi_blk_busy_idle_check_execute_request:done <- $x19
	.loc	2 0 0 is_stmt 0         // /mnt/disk/jenkins/workspace/chipset_10.1.0_release_5G/opensource/component_code/vendor/huawei/extra/build/build_script/kirin_kernel_release/kernel/block/hisi-blk-busy-idle-notify.c:0:0
	str	x19, [x8]
.Ltmp195:
	.loc	2 503 1 is_stmt 1       // /mnt/disk/jenkins/workspace/chipset_10.1.0_release_5G/opensource/component_code/vendor/huawei/extra/build/build_script/kirin_kernel_release/kernel/block/hisi-blk-busy-idle-notify.c:503:1
	ldp	x29, x30, [sp, #48]     // 16-byte Folded Reload
	ldp	x20, x19, [sp, #32]     // 16-byte Folded Reload
.Ltmp196:
	ldp	x22, x21, [sp, #16]     // 16-byte Folded Reload
.Ltmp197:
	ldr	x23, [sp], #64          // 8-byte Folded Reload
	ret
.LBB7_8:
.Ltmp198:
	//DEBUG_VALUE: blk_busy_count:blk_idle <- [DW_OP_plus_uconst 80, DW_OP_stack_value] $x22
	//DEBUG_VALUE: blk_busy_count:lld <- $x22
	//DEBUG_VALUE: lld <- $x22
	//DEBUG_VALUE: hisi_blk_busy_idle_check_execute_request:q <- $x21
	//DEBUG_VALUE: blk_busy_count:q <- $x21
	//DEBUG_VALUE: hisi_blk_busy_idle_check_execute_request:rq <- $x20
	//DEBUG_VALUE: hisi_blk_busy_idle_check_execute_request:done <- $x19
	.loc	2 356 25                // /mnt/disk/jenkins/workspace/chipset_10.1.0_release_5G/opensource/component_code/vendor/huawei/extra/build/build_script/kirin_kernel_release/kernel/block/hisi-blk-busy-idle-notify.c:356:25
	add	x23, x22, #296          // =296
	.loc	2 356 3 is_stmt 0       // /mnt/disk/jenkins/workspace/chipset_10.1.0_release_5G/opensource/component_code/vendor/huawei/extra/build/build_script/kirin_kernel_release/kernel/block/hisi-blk-busy-idle-notify.c:356:3
	mov	x0, x23
	bl	mutex_lock
	.loc	2 357 34 is_stmt 1      // /mnt/disk/jenkins/workspace/chipset_10.1.0_release_5G/opensource/component_code/vendor/huawei/extra/build/build_script/kirin_kernel_release/kernel/block/hisi-blk-busy-idle-notify.c:357:34
	add	x0, x22, #88            // =88
	.loc	2 357 3 is_stmt 0       // /mnt/disk/jenkins/workspace/chipset_10.1.0_release_5G/opensource/component_code/vendor/huawei/extra/build/build_script/kirin_kernel_release/kernel/block/hisi-blk-busy-idle-notify.c:357:3
	bl	cancel_delayed_work
.Ltmp199:
	.loc	2 361 17 is_stmt 1      // /mnt/disk/jenkins/workspace/chipset_10.1.0_release_5G/opensource/component_code/vendor/huawei/extra/build/build_script/kirin_kernel_release/kernel/block/hisi-blk-busy-idle-notify.c:361:17
	ldr	w8, [x22, #360]
.Ltmp200:
	.loc	2 361 7 is_stmt 0       // /mnt/disk/jenkins/workspace/chipset_10.1.0_release_5G/opensource/component_code/vendor/huawei/extra/build/build_script/kirin_kernel_release/kernel/block/hisi-blk-busy-idle-notify.c:361:7
	cmp	w8, #1                  // =1
	b.ne	.LBB7_12
.Ltmp201:
// %bb.9:
	//DEBUG_VALUE: blk_busy_count:blk_idle <- [DW_OP_plus_uconst 80, DW_OP_stack_value] $x22
	//DEBUG_VALUE: blk_busy_count:lld <- $x22
	//DEBUG_VALUE: lld <- $x22
	//DEBUG_VALUE: hisi_blk_busy_idle_check_execute_request:q <- $x21
	//DEBUG_VALUE: blk_busy_count:q <- $x21
	//DEBUG_VALUE: hisi_blk_busy_idle_check_execute_request:rq <- $x20
	//DEBUG_VALUE: hisi_blk_busy_idle_check_execute_request:done <- $x19
	.loc	2 363 25 is_stmt 1      // /mnt/disk/jenkins/workspace/chipset_10.1.0_release_5G/opensource/component_code/vendor/huawei/extra/build/build_script/kirin_kernel_release/kernel/block/hisi-blk-busy-idle-notify.c:363:25
	str	wzr, [x22, #360]
	.loc	2 364 32                // /mnt/disk/jenkins/workspace/chipset_10.1.0_release_5G/opensource/component_code/vendor/huawei/extra/build/build_script/kirin_kernel_release/kernel/block/hisi-blk-busy-idle-notify.c:364:32
	bl	ktime_get
.Ltmp202:
	.loc	2 368 8                 // /mnt/disk/jenkins/workspace/chipset_10.1.0_release_5G/opensource/component_code/vendor/huawei/extra/build/build_script/kirin_kernel_release/kernel/block/hisi-blk-busy-idle-notify.c:368:8
	ldr	x8, [x22, #368]
.Ltmp203:
	.loc	2 364 30                // /mnt/disk/jenkins/workspace/chipset_10.1.0_release_5G/opensource/component_code/vendor/huawei/extra/build/build_script/kirin_kernel_release/kernel/block/hisi-blk-busy-idle-notify.c:364:30
	str	x0, [x22, #376]
	.loc	2 368 8                 // /mnt/disk/jenkins/workspace/chipset_10.1.0_release_5G/opensource/component_code/vendor/huawei/extra/build/build_script/kirin_kernel_release/kernel/block/hisi-blk-busy-idle-notify.c:368:8
	cbz	x8, .LBB7_11
.Ltmp204:
// %bb.10:
	//DEBUG_VALUE: blk_busy_count:blk_idle <- [DW_OP_plus_uconst 80, DW_OP_stack_value] $x22
	//DEBUG_VALUE: blk_busy_count:lld <- $x22
	//DEBUG_VALUE: lld <- $x22
	//DEBUG_VALUE: hisi_blk_busy_idle_check_execute_request:q <- $x21
	//DEBUG_VALUE: blk_busy_count:q <- $x21
	//DEBUG_VALUE: hisi_blk_busy_idle_check_execute_request:rq <- $x20
	//DEBUG_VALUE: hisi_blk_busy_idle_check_execute_request:done <- $x19
	.loc	2 369 34                // /mnt/disk/jenkins/workspace/chipset_10.1.0_release_5G/opensource/component_code/vendor/huawei/extra/build/build_script/kirin_kernel_release/kernel/block/hisi-blk-busy-idle-notify.c:369:34
	ldr	x9, [x22, #392]
	sub	x8, x0, x8
	add	x8, x8, x9
	.loc	2 369 32 is_stmt 0      // /mnt/disk/jenkins/workspace/chipset_10.1.0_release_5G/opensource/component_code/vendor/huawei/extra/build/build_script/kirin_kernel_release/kernel/block/hisi-blk-busy-idle-notify.c:369:32
	str	x8, [x22, #392]
.Ltmp205:
.LBB7_11:
	//DEBUG_VALUE: blk_busy_count:blk_idle <- [DW_OP_plus_uconst 80, DW_OP_stack_value] $x22
	//DEBUG_VALUE: blk_busy_count:lld <- $x22
	//DEBUG_VALUE: lld <- $x22
	//DEBUG_VALUE: hisi_blk_busy_idle_check_execute_request:q <- $x21
	//DEBUG_VALUE: blk_busy_count:q <- $x21
	//DEBUG_VALUE: hisi_blk_busy_idle_check_execute_request:rq <- $x20
	//DEBUG_VALUE: hisi_blk_busy_idle_check_execute_request:done <- $x19
	.loc	2 375 16 is_stmt 1      // /mnt/disk/jenkins/workspace/chipset_10.1.0_release_5G/opensource/component_code/vendor/huawei/extra/build/build_script/kirin_kernel_release/kernel/block/hisi-blk-busy-idle-notify.c:375:16
	add	x0, x22, #208           // =208
	.loc	2 374 4                 // /mnt/disk/jenkins/workspace/chipset_10.1.0_release_5G/opensource/component_code/vendor/huawei/extra/build/build_script/kirin_kernel_release/kernel/block/hisi-blk-busy-idle-notify.c:374:4
	mov	x1, xzr
	mov	x2, x21
	bl	blocking_notifier_call_chain
.Ltmp206:
.LBB7_12:
	//DEBUG_VALUE: blk_busy_count:blk_idle <- [DW_OP_plus_uconst 80, DW_OP_stack_value] $x22
	//DEBUG_VALUE: blk_busy_count:lld <- $x22
	//DEBUG_VALUE: lld <- $x22
	//DEBUG_VALUE: hisi_blk_busy_idle_check_execute_request:q <- $x21
	//DEBUG_VALUE: blk_busy_count:q <- $x21
	//DEBUG_VALUE: hisi_blk_busy_idle_check_execute_request:rq <- $x20
	//DEBUG_VALUE: hisi_blk_busy_idle_check_execute_request:done <- $x19
	.loc	2 378 3                 // /mnt/disk/jenkins/workspace/chipset_10.1.0_release_5G/opensource/component_code/vendor/huawei/extra/build/build_script/kirin_kernel_release/kernel/block/hisi-blk-busy-idle-notify.c:378:3
	mov	x0, x23
	bl	mutex_unlock
	b	.LBB7_5
.Ltmp207:
.Lfunc_end7:
	.size	hisi_blk_busy_idle_check_execute_request, .Lfunc_end7-hisi_blk_busy_idle_check_execute_request
	.cfi_endproc
                                        // -- End function
	.section	.text.hisi_blk_busy_idle_check_bio_endio,"ax",@progbits
	.hidden	hisi_blk_busy_idle_check_bio_endio // -- Begin function hisi_blk_busy_idle_check_bio_endio
	.globl	hisi_blk_busy_idle_check_bio_endio
	.p2align	2
	.type	hisi_blk_busy_idle_check_bio_endio,@function
hisi_blk_busy_idle_check_bio_endio:     // @hisi_blk_busy_idle_check_bio_endio
.Lfunc_begin8:
	.loc	2 509 0                 // /mnt/disk/jenkins/workspace/chipset_10.1.0_release_5G/opensource/component_code/vendor/huawei/extra/build/build_script/kirin_kernel_release/kernel/block/hisi-blk-busy-idle-notify.c:509:0
	.cfi_startproc
// %bb.0:
	str	x21, [sp, #-48]!        // 8-byte Folded Spill
	stp	x20, x19, [sp, #16]     // 16-byte Folded Spill
	stp	x29, x30, [sp, #32]     // 16-byte Folded Spill
	add	x29, sp, #32            // =32
	.cfi_def_cfa w29, 16
	.cfi_offset w30, -8
	.cfi_offset w29, -16
	.cfi_offset w19, -24
	.cfi_offset w20, -32
	.cfi_offset w21, -48
	//DEBUG_VALUE: hisi_blk_busy_idle_check_bio_endio:bio <- $x0
.Ltmp208:
	//DEBUG_VALUE: hisi_blk_remove_bio_from_counted_list:bio <- $x0
	.loc	2 511 8 prologue_end    // /mnt/disk/jenkins/workspace/chipset_10.1.0_release_5G/opensource/component_code/vendor/huawei/extra/build/build_script/kirin_kernel_release/kernel/block/hisi-blk-busy-idle-notify.c:511:8
	ldr	x8, [x0, #8]
	.loc	2 511 3 is_stmt 0       // /mnt/disk/jenkins/workspace/chipset_10.1.0_release_5G/opensource/component_code/vendor/huawei/extra/build/build_script/kirin_kernel_release/kernel/block/hisi-blk-busy-idle-notify.c:511:3
	add	x9, x0, #88             // =88
	mov	x20, x0
.Ltmp209:
	//DEBUG_VALUE: hisi_blk_remove_bio_from_counted_list:bio <- $x20
	//DEBUG_VALUE: hisi_blk_busy_idle_check_bio_endio:bio <- $x20
	add	x10, x8, #1112          // =1112
	cmp	x8, #0                  // =0
	csel	x8, x9, x10, eq
	ldr	x0, [x8]
.Ltmp210:
	//DEBUG_VALUE: hisi_blk_busy_idle_check_bio_endio:q <- $x0
	.loc	2 512 28 is_stmt 1      // /mnt/disk/jenkins/workspace/chipset_10.1.0_release_5G/opensource/component_code/vendor/huawei/extra/build/build_script/kirin_kernel_release/kernel/block/hisi-blk-busy-idle-notify.c:512:28
	bl	hisi_blk_get_lld
.Ltmp211:
	.loc	2 514 6                 // /mnt/disk/jenkins/workspace/chipset_10.1.0_release_5G/opensource/component_code/vendor/huawei/extra/build/build_script/kirin_kernel_release/kernel/block/hisi-blk-busy-idle-notify.c:514:6
	ldrb	w8, [x20, #136]
.Ltmp212:
	.loc	2 514 6 is_stmt 0       // /mnt/disk/jenkins/workspace/chipset_10.1.0_release_5G/opensource/component_code/vendor/huawei/extra/build/build_script/kirin_kernel_release/kernel/block/hisi-blk-busy-idle-notify.c:514:6
	tbz	w8, #0, .LBB8_5
.Ltmp213:
// %bb.1:
	//DEBUG_VALUE: hisi_blk_busy_idle_check_bio_endio:bio <- $x20
	//DEBUG_VALUE: hisi_blk_remove_bio_from_counted_list:bio <- $x20
	.loc	138 114 1 is_stmt 1     // /mnt/disk/jenkins/workspace/chipset_10.1.0_release_5G/opensource/component_code/vendor/huawei/extra/build/build_script/kirin_kernel_release/kernel/arch/arm64/include/asm/atomic_ll_sc.h:114:1
	add	x8, x0, #408            // =408
	//APP
	// atomic_sub
	prfm	pstl1strm, [x8]
1:	ldxr	w9, [x8]
	sub	w9, w9, #1
	stxr	w10, w9, [x8]
	cbnz	w10, 1b
	//NO_APP
.Ltmp214:
	.loc	139 306 16              // /mnt/disk/jenkins/workspace/chipset_10.1.0_release_5G/opensource/component_code/vendor/huawei/extra/build/build_script/kirin_kernel_release/kernel/include/linux/spinlock.h:306:16
	add	x21, x0, #448           // =448
.Ltmp215:
	.loc	2 0 0 is_stmt 0         // /mnt/disk/jenkins/workspace/chipset_10.1.0_release_5G/opensource/component_code/vendor/huawei/extra/build/build_script/kirin_kernel_release/kernel/block/hisi-blk-busy-idle-notify.c:0:0
	mov	x19, x0
.Ltmp216:
	//DEBUG_VALUE: blk_lld_idle_notify:lld <- $x19
	//DEBUG_VALUE: atomic_sub_return:v <- [DW_OP_plus_uconst 288, DW_OP_stack_value] $x19
	//DEBUG_VALUE: blk_idle_count:blk_idle <- [DW_OP_plus_uconst 80, DW_OP_stack_value] $x19
	//DEBUG_VALUE: blk_idle_count:lld <- $x19
	//DEBUG_VALUE: spin_unlock_irqrestore:lock <- [DW_OP_plus_uconst 448, DW_OP_stack_value] $x19
	//DEBUG_VALUE: spinlock_check:lock <- [DW_OP_plus_uconst 448, DW_OP_stack_value] $x19
	//DEBUG_VALUE: atomic_sub:v <- [DW_OP_plus_uconst 408, DW_OP_stack_value] $x19
	//DEBUG_VALUE: hisi_blk_remove_bio_from_counted_list:lld <- $x19
	//DEBUG_VALUE: hisi_blk_busy_idle_check_bio_endio:lld <- $x19
	//DEBUG_VALUE: atomic_sub:i <- 1
	.loc	2 407 2 is_stmt 1       // /mnt/disk/jenkins/workspace/chipset_10.1.0_release_5G/opensource/component_code/vendor/huawei/extra/build/build_script/kirin_kernel_release/kernel/block/hisi-blk-busy-idle-notify.c:407:2
	mov	x0, x21
	bl	_raw_spin_lock_irqsave
.Ltmp217:
	.loc	140 120 33              // /mnt/disk/jenkins/workspace/chipset_10.1.0_release_5G/opensource/component_code/vendor/huawei/extra/build/build_script/kirin_kernel_release/kernel/include/linux/list.h:120:33
	ldp	x8, x9, [x20, #280]
.Ltmp218:
	//DEBUG_VALUE: __write_once_size:p <- undef
	//DEBUG_VALUE: __write_once_size:res <- undef
	.loc	2 407 2                 // /mnt/disk/jenkins/workspace/chipset_10.1.0_release_5G/opensource/component_code/vendor/huawei/extra/build/build_script/kirin_kernel_release/kernel/block/hisi-blk-busy-idle-notify.c:407:2
	mov	x1, x0
.Ltmp219:
	//DEBUG_VALUE: hisi_blk_remove_bio_from_counted_list:flags <- $x1
	.loc	2 408 22                // /mnt/disk/jenkins/workspace/chipset_10.1.0_release_5G/opensource/component_code/vendor/huawei/extra/build/build_script/kirin_kernel_release/kernel/block/hisi-blk-busy-idle-notify.c:408:22
	add	x10, x20, #280          // =280
.Ltmp220:
	//DEBUG_VALUE: __write_once_size:res <- undef
	//DEBUG_VALUE: __list_del_entry:entry <- $x10
	//DEBUG_VALUE: list_del_init:entry <- $x10
	//DEBUG_VALUE: __list_del:prev <- $x9
	//DEBUG_VALUE: __list_del:next <- $x8
	.loc	139 372 2               // /mnt/disk/jenkins/workspace/chipset_10.1.0_release_5G/opensource/component_code/vendor/huawei/extra/build/build_script/kirin_kernel_release/kernel/include/linux/spinlock.h:372:2
	mov	x0, x21
.Ltmp221:
	.loc	140 105 13              // /mnt/disk/jenkins/workspace/chipset_10.1.0_release_5G/opensource/component_code/vendor/huawei/extra/build/build_script/kirin_kernel_release/kernel/include/linux/list.h:105:13
	str	x9, [x8, #8]
.Ltmp222:
	//DEBUG_VALUE: __write_once_size:size <- 8
	.loc	137 213 31              // /mnt/disk/jenkins/workspace/chipset_10.1.0_release_5G/opensource/component_code/vendor/huawei/extra/build/build_script/kirin_kernel_release/kernel/include/linux/compiler.h:213:31
	str	x8, [x9]
.Ltmp223:
	//DEBUG_VALUE: __write_once_size:p <- $x10
	//DEBUG_VALUE: __write_once_size:size <- 8
	//DEBUG_VALUE: INIT_LIST_HEAD:list <- $x10
	.loc	137 213 31 is_stmt 0    // /mnt/disk/jenkins/workspace/chipset_10.1.0_release_5G/opensource/component_code/vendor/huawei/extra/build/build_script/kirin_kernel_release/kernel/include/linux/compiler.h:213:31
	str	x10, [x20, #280]
.Ltmp224:
	.loc	140 29 13 is_stmt 1     // /mnt/disk/jenkins/workspace/chipset_10.1.0_release_5G/opensource/component_code/vendor/huawei/extra/build/build_script/kirin_kernel_release/kernel/include/linux/list.h:29:13
	str	x10, [x20, #288]
.Ltmp225:
	//DEBUG_VALUE: spin_unlock_irqrestore:flags <- $x1
	.loc	139 372 2               // /mnt/disk/jenkins/workspace/chipset_10.1.0_release_5G/opensource/component_code/vendor/huawei/extra/build/build_script/kirin_kernel_release/kernel/include/linux/spinlock.h:372:2
	bl	_raw_spin_unlock_irqrestore
.Ltmp226:
	.loc	2 519 28                // /mnt/disk/jenkins/workspace/chipset_10.1.0_release_5G/opensource/component_code/vendor/huawei/extra/build/build_script/kirin_kernel_release/kernel/block/hisi-blk-busy-idle-notify.c:519:28
	strb	wzr, [x20, #136]
.Ltmp227:
	.loc	2 295 6                 // /mnt/disk/jenkins/workspace/chipset_10.1.0_release_5G/opensource/component_code/vendor/huawei/extra/build/build_script/kirin_kernel_release/kernel/block/hisi-blk-busy-idle-notify.c:295:6
	ldrb	w8, [x19, #24]
	tbz	w8, #3, .LBB8_5
.Ltmp228:
// %bb.2:
	//DEBUG_VALUE: hisi_blk_busy_idle_check_bio_endio:lld <- $x19
	//DEBUG_VALUE: blk_idle_count:lld <- $x19
	//DEBUG_VALUE: blk_idle_count:blk_idle <- [DW_OP_plus_uconst 80, DW_OP_stack_value] $x19
	//DEBUG_VALUE: hisi_blk_busy_idle_check_bio_endio:bio <- $x20
	.loc	2 298 16                // /mnt/disk/jenkins/workspace/chipset_10.1.0_release_5G/opensource/component_code/vendor/huawei/extra/build/build_script/kirin_kernel_release/kernel/block/hisi-blk-busy-idle-notify.c:298:16
	ldrb	w8, [x19, #80]
.Ltmp229:
	.loc	2 298 6 is_stmt 0       // /mnt/disk/jenkins/workspace/chipset_10.1.0_release_5G/opensource/component_code/vendor/huawei/extra/build/build_script/kirin_kernel_release/kernel/block/hisi-blk-busy-idle-notify.c:298:6
	cbnz	w8, .LBB8_5
.Ltmp230:
// %bb.3:
	//DEBUG_VALUE: hisi_blk_busy_idle_check_bio_endio:lld <- $x19
	//DEBUG_VALUE: blk_idle_count:lld <- $x19
	//DEBUG_VALUE: blk_idle_count:blk_idle <- [DW_OP_plus_uconst 80, DW_OP_stack_value] $x19
	//DEBUG_VALUE: hisi_blk_busy_idle_check_bio_endio:bio <- $x20
	//DEBUG_VALUE: __read_once_size:res <- undef
	//DEBUG_VALUE: __read_once_size:size <- 4
	//DEBUG_VALUE: __read_once_size:p <- [DW_OP_plus_uconst 288, DW_OP_stack_value] $x19
	.loc	137 186 2 is_stmt 1     // /mnt/disk/jenkins/workspace/chipset_10.1.0_release_5G/opensource/component_code/vendor/huawei/extra/build/build_script/kirin_kernel_release/kernel/include/linux/compiler.h:186:2
	ldr	w8, [x19, #288]
.Ltmp231:
	.loc	2 300 6                 // /mnt/disk/jenkins/workspace/chipset_10.1.0_release_5G/opensource/component_code/vendor/huawei/extra/build/build_script/kirin_kernel_release/kernel/block/hisi-blk-busy-idle-notify.c:300:6
	cbz	w8, .LBB8_6
.Ltmp232:
// %bb.4:
	//DEBUG_VALUE: hisi_blk_busy_idle_check_bio_endio:lld <- $x19
	//DEBUG_VALUE: blk_idle_count:lld <- $x19
	//DEBUG_VALUE: blk_idle_count:blk_idle <- [DW_OP_plus_uconst 80, DW_OP_stack_value] $x19
	//DEBUG_VALUE: hisi_blk_busy_idle_check_bio_endio:bio <- $x20
	//DEBUG_VALUE: atomic_sub_return:i <- 1
	.loc	138 114 1               // /mnt/disk/jenkins/workspace/chipset_10.1.0_release_5G/opensource/component_code/vendor/huawei/extra/build/build_script/kirin_kernel_release/kernel/arch/arm64/include/asm/atomic_ll_sc.h:114:1
	add	x8, x19, #288           // =288
	//APP
	// atomic_sub_return
	prfm	pstl1strm, [x8]
1:	ldxr	w9, [x8]
	sub	w9, w9, #1
	stlxr	w10, w9, [x8]
	cbnz	w10, 1b
	dmb ish
	//NO_APP
.Ltmp233:
	//DEBUG_VALUE: atomic_sub_return:result <- $w9
	.loc	2 309 6                 // /mnt/disk/jenkins/workspace/chipset_10.1.0_release_5G/opensource/component_code/vendor/huawei/extra/build/build_script/kirin_kernel_release/kernel/block/hisi-blk-busy-idle-notify.c:309:6
	cbz	w9, .LBB8_7
.Ltmp234:
.LBB8_5:
	.loc	2 522 1                 // /mnt/disk/jenkins/workspace/chipset_10.1.0_release_5G/opensource/component_code/vendor/huawei/extra/build/build_script/kirin_kernel_release/kernel/block/hisi-blk-busy-idle-notify.c:522:1
	ldp	x29, x30, [sp, #32]     // 16-byte Folded Reload
	ldp	x20, x19, [sp, #16]     // 16-byte Folded Reload
	ldr	x21, [sp], #48          // 8-byte Folded Reload
	ret
.LBB8_6:
.Ltmp235:
	//DEBUG_VALUE: hisi_blk_busy_idle_check_bio_endio:lld <- $x19
	//DEBUG_VALUE: blk_idle_count:lld <- $x19
	//DEBUG_VALUE: blk_idle_count:blk_idle <- [DW_OP_plus_uconst 80, DW_OP_stack_value] $x19
	//DEBUG_VALUE: hisi_blk_busy_idle_check_bio_endio:bio <- $x20
	.loc	2 301 3                 // /mnt/disk/jenkins/workspace/chipset_10.1.0_release_5G/opensource/component_code/vendor/huawei/extra/build/build_script/kirin_kernel_release/kernel/block/hisi-blk-busy-idle-notify.c:301:3
	adrp	x0, .L.str.34
	adrp	x1, .L__func__.blk_idle_count
	add	x0, x0, :lo12:.L.str.34
	add	x1, x1, :lo12:.L__func__.blk_idle_count
	bl	printk
	b	.LBB8_5
.Ltmp236:
.LBB8_7:
	//DEBUG_VALUE: hisi_blk_busy_idle_check_bio_endio:lld <- $x19
	//DEBUG_VALUE: blk_idle_count:lld <- $x19
	//DEBUG_VALUE: blk_idle_count:blk_idle <- [DW_OP_plus_uconst 80, DW_OP_stack_value] $x19
	//DEBUG_VALUE: hisi_blk_busy_idle_check_bio_endio:bio <- $x20
	.loc	2 284 6                 // /mnt/disk/jenkins/workspace/chipset_10.1.0_release_5G/opensource/component_code/vendor/huawei/extra/build/build_script/kirin_kernel_release/kernel/block/hisi-blk-busy-idle-notify.c:284:6
	ldr	w8, [x19]
.Ltmp237:
	.loc	2 284 6 is_stmt 0       // /mnt/disk/jenkins/workspace/chipset_10.1.0_release_5G/opensource/component_code/vendor/huawei/extra/build/build_script/kirin_kernel_release/kernel/block/hisi-blk-busy-idle-notify.c:284:6
	cmp	w8, #122                // =122
	b.ne	.LBB8_5
.Ltmp238:
// %bb.8:
	//DEBUG_VALUE: hisi_blk_busy_idle_check_bio_endio:lld <- $x19
	//DEBUG_VALUE: blk_idle_count:lld <- $x19
	//DEBUG_VALUE: blk_idle_count:blk_idle <- [DW_OP_plus_uconst 80, DW_OP_stack_value] $x19
	//DEBUG_VALUE: hisi_blk_busy_idle_check_bio_endio:bio <- $x20
	.loc	2 285 22 is_stmt 1      // /mnt/disk/jenkins/workspace/chipset_10.1.0_release_5G/opensource/component_code/vendor/huawei/extra/build/build_script/kirin_kernel_release/kernel/block/hisi-blk-busy-idle-notify.c:285:22
	adrp	x8, blk_idle_notify_workqueue
	.loc	2 287 35                // /mnt/disk/jenkins/workspace/chipset_10.1.0_release_5G/opensource/component_code/vendor/huawei/extra/build/build_script/kirin_kernel_release/kernel/block/hisi-blk-busy-idle-notify.c:287:35
	ldr	w0, [x19, #184]
	.loc	2 285 22                // /mnt/disk/jenkins/workspace/chipset_10.1.0_release_5G/opensource/component_code/vendor/huawei/extra/build/build_script/kirin_kernel_release/kernel/block/hisi-blk-busy-idle-notify.c:285:22
	ldr	x20, [x8, :lo12:blk_idle_notify_workqueue]
.Ltmp239:
	.loc	2 286 19                // /mnt/disk/jenkins/workspace/chipset_10.1.0_release_5G/opensource/component_code/vendor/huawei/extra/build/build_script/kirin_kernel_release/kernel/block/hisi-blk-busy-idle-notify.c:286:19
	add	x19, x19, #88           // =88
.Ltmp240:
	//DEBUG_VALUE: msecs_to_jiffies:m <- $w0
	.loc	136 370 10              // /mnt/disk/jenkins/workspace/chipset_10.1.0_release_5G/opensource/component_code/vendor/huawei/extra/build/build_script/kirin_kernel_release/kernel/include/linux/jiffies.h:370:10
	bl	__msecs_to_jiffies
.Ltmp241:
	mov	x3, x0
.Ltmp242:
	//DEBUG_VALUE: queue_delayed_work:delay <- $x3
	//DEBUG_VALUE: queue_delayed_work:dwork <- $x19
	//DEBUG_VALUE: queue_delayed_work:wq <- $x20
	.loc	21 506 9                // /mnt/disk/jenkins/workspace/chipset_10.1.0_release_5G/opensource/component_code/vendor/huawei/extra/build/build_script/kirin_kernel_release/kernel/include/linux/workqueue.h:506:9
	orr	w0, wzr, #0x8
	mov	x1, x20
	mov	x2, x19
	bl	queue_delayed_work_on
.Ltmp243:
	.loc	21 0 9 is_stmt 0        // /mnt/disk/jenkins/workspace/chipset_10.1.0_release_5G/opensource/component_code/vendor/huawei/extra/build/build_script/kirin_kernel_release/kernel/include/linux/workqueue.h:0:9
	b	.LBB8_5
.Ltmp244:
.Lfunc_end8:
	.size	hisi_blk_busy_idle_check_bio_endio, .Lfunc_end8-hisi_blk_busy_idle_check_bio_endio
	.cfi_endproc
                                        // -- End function
	.section	.text.hisi_blk_busy_idle_state_init,"ax",@progbits
	.hidden	hisi_blk_busy_idle_state_init // -- Begin function hisi_blk_busy_idle_state_init
	.globl	hisi_blk_busy_idle_state_init
	.p2align	2
	.type	hisi_blk_busy_idle_state_init,@function
hisi_blk_busy_idle_state_init:          // @hisi_blk_busy_idle_state_init
.Lfunc_begin9:
	.loc	2 525 0 is_stmt 1       // /mnt/disk/jenkins/workspace/chipset_10.1.0_release_5G/opensource/component_code/vendor/huawei/extra/build/build_script/kirin_kernel_release/kernel/block/hisi-blk-busy-idle-notify.c:525:0
	.cfi_startproc
// %bb.0:
	stp	x20, x19, [sp, #-32]!   // 16-byte Folded Spill
	stp	x29, x30, [sp, #16]     // 16-byte Folded Spill
	add	x29, sp, #16            // =16
	.cfi_def_cfa w29, 16
	.cfi_offset w30, -8
	.cfi_offset w29, -16
	.cfi_offset w19, -24
	.cfi_offset w20, -32
	//DEBUG_VALUE: hisi_blk_busy_idle_state_init:blk_idle <- $x0
.Ltmp245:
	.loc	2 526 7 prologue_end    // /mnt/disk/jenkins/workspace/chipset_10.1.0_release_5G/opensource/component_code/vendor/huawei/extra/build/build_script/kirin_kernel_release/kernel/block/hisi-blk-busy-idle-notify.c:526:7
	adrp	x20, blk_idle_notify_workqueue
	ldr	x8, [x20, :lo12:blk_idle_notify_workqueue]
	mov	x19, x0
.Ltmp246:
	//DEBUG_VALUE: hisi_blk_busy_idle_state_init:blk_idle <- $x19
	.loc	2 526 6 is_stmt 0       // /mnt/disk/jenkins/workspace/chipset_10.1.0_release_5G/opensource/component_code/vendor/huawei/extra/build/build_script/kirin_kernel_release/kernel/block/hisi-blk-busy-idle-notify.c:526:6
	cbnz	x8, .LBB9_2
.Ltmp247:
// %bb.1:
	//DEBUG_VALUE: hisi_blk_busy_idle_state_init:blk_idle <- $x19
	.loc	2 527 31 is_stmt 1      // /mnt/disk/jenkins/workspace/chipset_10.1.0_release_5G/opensource/component_code/vendor/huawei/extra/build/build_script/kirin_kernel_release/kernel/block/hisi-blk-busy-idle-notify.c:527:31
	adrp	x0, .L.str.4
	add	x0, x0, :lo12:.L.str.4
	orr	w1, wzr, #0x18
	mov	w2, wzr
	mov	x3, xzr
	mov	x4, xzr
	bl	__alloc_workqueue_key
	.loc	2 527 29 is_stmt 0      // /mnt/disk/jenkins/workspace/chipset_10.1.0_release_5G/opensource/component_code/vendor/huawei/extra/build/build_script/kirin_kernel_release/kernel/block/hisi-blk-busy-idle-notify.c:527:29
	str	x0, [x20, :lo12:blk_idle_notify_workqueue]
.Ltmp248:
.LBB9_2:
	//DEBUG_VALUE: hisi_blk_busy_idle_state_init:blk_idle <- $x19
	.loc	2 0 29                  // /mnt/disk/jenkins/workspace/chipset_10.1.0_release_5G/opensource/component_code/vendor/huawei/extra/build/build_script/kirin_kernel_release/kernel/block/hisi-blk-busy-idle-notify.c:0:29
	mov	x8, #68719476704
.Ltmp249:
	.loc	2 543 2 is_stmt 1       // /mnt/disk/jenkins/workspace/chipset_10.1.0_release_5G/opensource/component_code/vendor/huawei/extra/build/build_script/kirin_kernel_release/kernel/block/hisi-blk-busy-idle-notify.c:543:2
	adrp	x10, __cfi_hisi_blk_idle_notify_work
	str	x8, [x19, #8]!
.Ltmp250:
	.loc	2 0 2 is_stmt 0         // /mnt/disk/jenkins/workspace/chipset_10.1.0_release_5G/opensource/component_code/vendor/huawei/extra/build/build_script/kirin_kernel_release/kernel/block/hisi-blk-busy-idle-notify.c:0:2
	mov	w9, #5
	.loc	2 543 2                 // /mnt/disk/jenkins/workspace/chipset_10.1.0_release_5G/opensource/component_code/vendor/huawei/extra/build/build_script/kirin_kernel_release/kernel/block/hisi-blk-busy-idle-notify.c:543:2
	add	x10, x10, :lo12:__cfi_hisi_blk_idle_notify_work
	add	x8, x19, #8             // =8
.Ltmp251:
	//DEBUG_VALUE: __write_once_size:p <- $x8
	//DEBUG_VALUE: __write_once_size:size <- 8
	//DEBUG_VALUE: __write_once_size:res <- undef
	//DEBUG_VALUE: INIT_LIST_HEAD:list <- $x8
	.loc	2 543 2                 // /mnt/disk/jenkins/workspace/chipset_10.1.0_release_5G/opensource/component_code/vendor/huawei/extra/build/build_script/kirin_kernel_release/kernel/block/hisi-blk-busy-idle-notify.c:543:2
	add	x0, x19, #32            // =32
	orr	w1, wzr, #0x200000
	mov	x2, xzr
	mov	x3, xzr
.Ltmp252:
	.loc	2 531 56 is_stmt 1      // /mnt/disk/jenkins/workspace/chipset_10.1.0_release_5G/opensource/component_code/vendor/huawei/extra/build/build_script/kirin_kernel_release/kernel/block/hisi-blk-busy-idle-notify.c:531:56
	stp	xzr, xzr, [x19, #304]
	stp	xzr, xzr, [x19, #288]
	str	xzr, [x19, #280]
	.loc	2 542 33                // /mnt/disk/jenkins/workspace/chipset_10.1.0_release_5G/opensource/component_code/vendor/huawei/extra/build/build_script/kirin_kernel_release/kernel/block/hisi-blk-busy-idle-notify.c:542:33
	str	w9, [x19, #96]
.Ltmp253:
	.loc	137 213 31              // /mnt/disk/jenkins/workspace/chipset_10.1.0_release_5G/opensource/component_code/vendor/huawei/extra/build/build_script/kirin_kernel_release/kernel/include/linux/compiler.h:213:31
	str	x8, [x19, #8]
.Ltmp254:
	.loc	140 29 13               // /mnt/disk/jenkins/workspace/chipset_10.1.0_release_5G/opensource/component_code/vendor/huawei/extra/build/build_script/kirin_kernel_release/kernel/include/linux/list.h:29:13
	stp	x8, x10, [x19, #16]
.Ltmp255:
	.loc	2 543 2                 // /mnt/disk/jenkins/workspace/chipset_10.1.0_release_5G/opensource/component_code/vendor/huawei/extra/build/build_script/kirin_kernel_release/kernel/block/hisi-blk-busy-idle-notify.c:543:2
	bl	init_timer_key
.Ltmp256:
	adrp	x8, delayed_work_timer_fn
.Ltmp257:
	.loc	2 546 2                 // /mnt/disk/jenkins/workspace/chipset_10.1.0_release_5G/opensource/component_code/vendor/huawei/extra/build/build_script/kirin_kernel_release/kernel/block/hisi-blk-busy-idle-notify.c:546:2
	adrp	x1, .L.str.5
	adrp	x2, hisi_blk_busy_idle_state_init.__key
.Ltmp258:
	.loc	2 543 2                 // /mnt/disk/jenkins/workspace/chipset_10.1.0_release_5G/opensource/component_code/vendor/huawei/extra/build/build_script/kirin_kernel_release/kernel/block/hisi-blk-busy-idle-notify.c:543:2
	add	x8, x8, :lo12:delayed_work_timer_fn
.Ltmp259:
	.loc	2 546 2                 // /mnt/disk/jenkins/workspace/chipset_10.1.0_release_5G/opensource/component_code/vendor/huawei/extra/build/build_script/kirin_kernel_release/kernel/block/hisi-blk-busy-idle-notify.c:546:2
	add	x0, x19, #208           // =208
	add	x1, x1, :lo12:.L.str.5
	add	x2, x2, :lo12:hisi_blk_busy_idle_state_init.__key
.Ltmp260:
	.loc	2 543 2                 // /mnt/disk/jenkins/workspace/chipset_10.1.0_release_5G/opensource/component_code/vendor/huawei/extra/build/build_script/kirin_kernel_release/kernel/block/hisi-blk-busy-idle-notify.c:543:2
	stp	x8, x19, [x19, #56]
.Ltmp261:
	//DEBUG_VALUE: __write_once_size:p <- [DW_OP_plus_uconst 200, DW_OP_stack_value] $x19
	//DEBUG_VALUE: __write_once_size:size <- 4
	//DEBUG_VALUE: __write_once_size:res <- undef
	.loc	137 212 31              // /mnt/disk/jenkins/workspace/chipset_10.1.0_release_5G/opensource/component_code/vendor/huawei/extra/build/build_script/kirin_kernel_release/kernel/include/linux/compiler.h:212:31
	str	wzr, [x19, #200]
.Ltmp262:
	.loc	2 546 2                 // /mnt/disk/jenkins/workspace/chipset_10.1.0_release_5G/opensource/component_code/vendor/huawei/extra/build/build_script/kirin_kernel_release/kernel/block/hisi-blk-busy-idle-notify.c:546:2
	bl	__mutex_init
.Ltmp263:
	.loc	2 548 2                 // /mnt/disk/jenkins/workspace/chipset_10.1.0_release_5G/opensource/component_code/vendor/huawei/extra/build/build_script/kirin_kernel_release/kernel/block/hisi-blk-busy-idle-notify.c:548:2
	adrp	x1, .L.str.7
	adrp	x2, hisi_blk_busy_idle_state_init.__key.6
.Ltmp264:
	.loc	2 547 28                // /mnt/disk/jenkins/workspace/chipset_10.1.0_release_5G/opensource/component_code/vendor/huawei/extra/build/build_script/kirin_kernel_release/kernel/block/hisi-blk-busy-idle-notify.c:547:28
	add	x8, x19, #104           // =104
.Ltmp265:
	//DEBUG_VALUE: __write_once_size:p <- $x8
	//DEBUG_VALUE: __write_once_size:size <- 8
	//DEBUG_VALUE: __write_once_size:res <- undef
	//DEBUG_VALUE: INIT_LIST_HEAD:list <- $x8
	.loc	2 548 2                 // /mnt/disk/jenkins/workspace/chipset_10.1.0_release_5G/opensource/component_code/vendor/huawei/extra/build/build_script/kirin_kernel_release/kernel/block/hisi-blk-busy-idle-notify.c:548:2
	add	x0, x19, #120           // =120
	add	x1, x1, :lo12:.L.str.7
	add	x2, x2, :lo12:hisi_blk_busy_idle_state_init.__key.6
.Ltmp266:
	.loc	137 213 31              // /mnt/disk/jenkins/workspace/chipset_10.1.0_release_5G/opensource/component_code/vendor/huawei/extra/build/build_script/kirin_kernel_release/kernel/include/linux/compiler.h:213:31
	str	x8, [x19, #104]
.Ltmp267:
	.loc	140 29 13               // /mnt/disk/jenkins/workspace/chipset_10.1.0_release_5G/opensource/component_code/vendor/huawei/extra/build/build_script/kirin_kernel_release/kernel/include/linux/list.h:29:13
	str	x8, [x19, #112]
.Ltmp268:
	.loc	2 548 2                 // /mnt/disk/jenkins/workspace/chipset_10.1.0_release_5G/opensource/component_code/vendor/huawei/extra/build/build_script/kirin_kernel_release/kernel/block/hisi-blk-busy-idle-notify.c:548:2
	bl	__init_rwsem
.Ltmp269:
	.loc	2 556 2                 // /mnt/disk/jenkins/workspace/chipset_10.1.0_release_5G/opensource/component_code/vendor/huawei/extra/build/build_script/kirin_kernel_release/kernel/block/hisi-blk-busy-idle-notify.c:556:2
	adrp	x1, .L.str.9
	adrp	x2, hisi_blk_busy_idle_state_init.__key.8
	orr	w8, wzr, #0x1
.Ltmp270:
	.loc	2 554 28                // /mnt/disk/jenkins/workspace/chipset_10.1.0_release_5G/opensource/component_code/vendor/huawei/extra/build/build_script/kirin_kernel_release/kernel/block/hisi-blk-busy-idle-notify.c:554:28
	add	x9, x19, #328           // =328
.Ltmp271:
	//DEBUG_VALUE: __write_once_size:res <- undef
	.loc	2 555 28                // /mnt/disk/jenkins/workspace/chipset_10.1.0_release_5G/opensource/component_code/vendor/huawei/extra/build/build_script/kirin_kernel_release/kernel/block/hisi-blk-busy-idle-notify.c:555:28
	add	x10, x19, #344          // =344
.Ltmp272:
	//DEBUG_VALUE: __write_once_size:res <- undef
	.loc	2 556 2                 // /mnt/disk/jenkins/workspace/chipset_10.1.0_release_5G/opensource/component_code/vendor/huawei/extra/build/build_script/kirin_kernel_release/kernel/block/hisi-blk-busy-idle-notify.c:556:2
	add	x0, x19, #360           // =360
	add	x1, x1, :lo12:.L.str.9
	add	x2, x2, :lo12:hisi_blk_busy_idle_state_init.__key.8
.Ltmp273:
	.loc	2 548 2                 // /mnt/disk/jenkins/workspace/chipset_10.1.0_release_5G/opensource/component_code/vendor/huawei/extra/build/build_script/kirin_kernel_release/kernel/block/hisi-blk-busy-idle-notify.c:548:2
	str	xzr, [x19, #192]
.Ltmp274:
	.loc	2 549 23                // /mnt/disk/jenkins/workspace/chipset_10.1.0_release_5G/opensource/component_code/vendor/huawei/extra/build/build_script/kirin_kernel_release/kernel/block/hisi-blk-busy-idle-notify.c:549:23
	str	w8, [x19, #272]
.Ltmp275:
	//DEBUG_VALUE: __write_once_size:p <- [DW_OP_plus_uconst 384, DW_OP_stack_value] $x19
	//DEBUG_VALUE: __write_once_size:size <- 4
	//DEBUG_VALUE: __write_once_size:res <- undef
	.loc	137 212 31              // /mnt/disk/jenkins/workspace/chipset_10.1.0_release_5G/opensource/component_code/vendor/huawei/extra/build/build_script/kirin_kernel_release/kernel/include/linux/compiler.h:212:31
	str	wzr, [x19, #384]
.Ltmp276:
	//DEBUG_VALUE: __write_once_size:res <- undef
	//DEBUG_VALUE: __write_once_size:p <- [DW_OP_plus_uconst 320, DW_OP_stack_value] $x19
	//DEBUG_VALUE: __write_once_size:size <- 4
	//DEBUG_VALUE: __write_once_size:res <- undef
	.loc	137 212 31 is_stmt 0    // /mnt/disk/jenkins/workspace/chipset_10.1.0_release_5G/opensource/component_code/vendor/huawei/extra/build/build_script/kirin_kernel_release/kernel/include/linux/compiler.h:212:31
	str	wzr, [x19, #320]
.Ltmp277:
	//DEBUG_VALUE: __write_once_size:p <- [DW_OP_plus_uconst 324, DW_OP_stack_value] $x19
	//DEBUG_VALUE: __write_once_size:size <- 4
	.loc	137 212 31              // /mnt/disk/jenkins/workspace/chipset_10.1.0_release_5G/opensource/component_code/vendor/huawei/extra/build/build_script/kirin_kernel_release/kernel/include/linux/compiler.h:212:31
	str	wzr, [x19, #324]
.Ltmp278:
	//DEBUG_VALUE: INIT_LIST_HEAD:list <- $x9
	//DEBUG_VALUE: __write_once_size:p <- $x9
	//DEBUG_VALUE: __write_once_size:size <- 8
	.loc	137 213 31 is_stmt 1    // /mnt/disk/jenkins/workspace/chipset_10.1.0_release_5G/opensource/component_code/vendor/huawei/extra/build/build_script/kirin_kernel_release/kernel/include/linux/compiler.h:213:31
	str	x9, [x19, #328]
.Ltmp279:
	.loc	140 29 13               // /mnt/disk/jenkins/workspace/chipset_10.1.0_release_5G/opensource/component_code/vendor/huawei/extra/build/build_script/kirin_kernel_release/kernel/include/linux/list.h:29:13
	str	x9, [x19, #336]
.Ltmp280:
	//DEBUG_VALUE: INIT_LIST_HEAD:list <- $x10
	//DEBUG_VALUE: __write_once_size:p <- $x10
	//DEBUG_VALUE: __write_once_size:size <- 8
	.loc	137 213 31              // /mnt/disk/jenkins/workspace/chipset_10.1.0_release_5G/opensource/component_code/vendor/huawei/extra/build/build_script/kirin_kernel_release/kernel/include/linux/compiler.h:213:31
	str	x10, [x19, #344]
.Ltmp281:
	.loc	140 29 13               // /mnt/disk/jenkins/workspace/chipset_10.1.0_release_5G/opensource/component_code/vendor/huawei/extra/build/build_script/kirin_kernel_release/kernel/include/linux/list.h:29:13
	str	x10, [x19, #352]
.Ltmp282:
	.loc	2 556 2                 // /mnt/disk/jenkins/workspace/chipset_10.1.0_release_5G/opensource/component_code/vendor/huawei/extra/build/build_script/kirin_kernel_release/kernel/block/hisi-blk-busy-idle-notify.c:556:2
	bl	__raw_spin_lock_init
.Ltmp283:
	.loc	2 557 1                 // /mnt/disk/jenkins/workspace/chipset_10.1.0_release_5G/opensource/component_code/vendor/huawei/extra/build/build_script/kirin_kernel_release/kernel/block/hisi-blk-busy-idle-notify.c:557:1
	ldp	x29, x30, [sp, #16]     // 16-byte Folded Reload
	ldp	x20, x19, [sp], #32     // 16-byte Folded Reload
.Ltmp284:
	ret
.Ltmp285:
.Lfunc_end9:
	.size	hisi_blk_busy_idle_state_init, .Lfunc_end9-hisi_blk_busy_idle_state_init
	.cfi_endproc
                                        // -- End function
	.section	.text.blk_busy_idle_event_subscriber,"ax",@progbits
	.hidden	blk_busy_idle_event_subscriber // -- Begin function blk_busy_idle_event_subscriber
	.globl	blk_busy_idle_event_subscriber
	.p2align	2
	.type	blk_busy_idle_event_subscriber,@function
blk_busy_idle_event_subscriber:         // @blk_busy_idle_event_subscriber
.Lfunc_begin10:
	.loc	2 564 0                 // /mnt/disk/jenkins/workspace/chipset_10.1.0_release_5G/opensource/component_code/vendor/huawei/extra/build/build_script/kirin_kernel_release/kernel/block/hisi-blk-busy-idle-notify.c:564:0
	.cfi_startproc
// %bb.0:
	str	x19, [sp, #-32]!        // 8-byte Folded Spill
	stp	x29, x30, [sp, #16]     // 16-byte Folded Spill
	add	x29, sp, #16            // =16
	.cfi_def_cfa w29, 16
	.cfi_offset w30, -8
	.cfi_offset w29, -16
	.cfi_offset w19, -32
	//DEBUG_VALUE: blk_busy_idle_event_subscriber:bi_bdev <- $x0
	//DEBUG_VALUE: blk_busy_idle_event_subscriber:bi_bdev <- $x0
	//DEBUG_VALUE: blk_busy_idle_event_subscriber:event_node <- $x1
.Ltmp286:
	//DEBUG_VALUE: bdev_get_queue:bdev <- $x0
	//DEBUG_VALUE: bdev_get_queue:bdev <- $x0
	.loc	4 1446 15 prologue_end  // /mnt/disk/jenkins/workspace/chipset_10.1.0_release_5G/opensource/component_code/vendor/huawei/extra/build/build_script/kirin_kernel_release/kernel/include/linux/blkdev.h:1446:15
	ldr	x8, [x0, #160]
	mov	x19, x1
.Ltmp287:
	//DEBUG_VALUE: blk_busy_idle_event_subscriber:event_node <- $x19
	.loc	4 1446 24 is_stmt 0     // /mnt/disk/jenkins/workspace/chipset_10.1.0_release_5G/opensource/component_code/vendor/huawei/extra/build/build_script/kirin_kernel_release/kernel/include/linux/blkdev.h:1446:24
	ldr	x0, [x8, #1112]
.Ltmp288:
	.loc	2 566 3 is_stmt 1       // /mnt/disk/jenkins/workspace/chipset_10.1.0_release_5G/opensource/component_code/vendor/huawei/extra/build/build_script/kirin_kernel_release/kernel/block/hisi-blk-busy-idle-notify.c:566:3
	bl	hisi_blk_get_lld
	.loc	2 565 9                 // /mnt/disk/jenkins/workspace/chipset_10.1.0_release_5G/opensource/component_code/vendor/huawei/extra/build/build_script/kirin_kernel_release/kernel/block/hisi-blk-busy-idle-notify.c:565:9
	mov	x1, x19
.Ltmp289:
	//DEBUG_VALUE: blk_busy_idle_event_subscriber:event_node <- $x1
	bl	hisi_blk_busy_idle_event_register
.Ltmp290:
	.loc	2 565 2 is_stmt 0       // /mnt/disk/jenkins/workspace/chipset_10.1.0_release_5G/opensource/component_code/vendor/huawei/extra/build/build_script/kirin_kernel_release/kernel/block/hisi-blk-busy-idle-notify.c:565:2
	ldp	x29, x30, [sp, #16]     // 16-byte Folded Reload
	ldr	x19, [sp], #32          // 8-byte Folded Reload
	ret
.Ltmp291:
.Lfunc_end10:
	.size	blk_busy_idle_event_subscriber, .Lfunc_end10-blk_busy_idle_event_subscriber
	.cfi_endproc
                                        // -- End function
	.section	.text.hisi_blk_busy_idle_event_register,"ax",@progbits
	.p2align	2               // -- Begin function hisi_blk_busy_idle_event_register
	.type	hisi_blk_busy_idle_event_register,@function
hisi_blk_busy_idle_event_register:      // @hisi_blk_busy_idle_event_register
.Lfunc_begin11:
	.loc	2 139 0 is_stmt 1       // /mnt/disk/jenkins/workspace/chipset_10.1.0_release_5G/opensource/component_code/vendor/huawei/extra/build/build_script/kirin_kernel_release/kernel/block/hisi-blk-busy-idle-notify.c:139:0
	.cfi_startproc
// %bb.0:
	str	x25, [sp, #-80]!        // 8-byte Folded Spill
	stp	x24, x23, [sp, #16]     // 16-byte Folded Spill
	stp	x22, x21, [sp, #32]     // 16-byte Folded Spill
	stp	x20, x19, [sp, #48]     // 16-byte Folded Spill
	stp	x29, x30, [sp, #64]     // 16-byte Folded Spill
	add	x29, sp, #64            // =64
	.cfi_def_cfa w29, 16
	.cfi_offset w30, -8
	.cfi_offset w29, -16
	.cfi_offset w19, -24
	.cfi_offset w20, -32
	.cfi_offset w21, -40
	.cfi_offset w22, -48
	.cfi_offset w23, -56
	.cfi_offset w24, -64
	.cfi_offset w25, -80
	//DEBUG_VALUE: hisi_blk_busy_idle_event_register:lld <- $x0
	//DEBUG_VALUE: hisi_blk_busy_idle_event_register:event_node <- $x1
.Ltmp292:
	//DEBUG_VALUE: hisi_blk_busy_idle_event_register:blk_idle <- [DW_OP_plus_uconst 80, DW_OP_stack_value] $x0
	//DEBUG_VALUE: busy_idle_find_subscribed_node:lld <- $x0
	.loc	2 146 24 prologue_end   // /mnt/disk/jenkins/workspace/chipset_10.1.0_release_5G/opensource/component_code/vendor/huawei/extra/build/build_script/kirin_kernel_release/kernel/block/hisi-blk-busy-idle-notify.c:146:24
	add	x19, x0, #296           // =296
	mov	x21, x0
.Ltmp293:
	//DEBUG_VALUE: hisi_blk_busy_idle_event_register:ret <- 0
	//DEBUG_VALUE: busy_idle_find_subscribed_node:lld <- $x21
	//DEBUG_VALUE: hisi_blk_busy_idle_event_register:blk_idle <- [DW_OP_plus_uconst 80, DW_OP_stack_value] $x21
	//DEBUG_VALUE: hisi_blk_busy_idle_event_register:event_node <- $x23
	//DEBUG_VALUE: hisi_blk_busy_idle_event_register:lld <- $x21
	.loc	2 145 18                // /mnt/disk/jenkins/workspace/chipset_10.1.0_release_5G/opensource/component_code/vendor/huawei/extra/build/build_script/kirin_kernel_release/kernel/block/hisi-blk-busy-idle-notify.c:145:18
	str	x0, [x1, #48]
	.loc	2 146 2                 // /mnt/disk/jenkins/workspace/chipset_10.1.0_release_5G/opensource/component_code/vendor/huawei/extra/build/build_script/kirin_kernel_release/kernel/block/hisi-blk-busy-idle-notify.c:146:2
	mov	x0, x19
	mov	x23, x1
.Ltmp294:
	bl	mutex_lock
.Ltmp295:
	//DEBUG_VALUE: kmalloc:flags <- 21004480
	//DEBUG_VALUE: kmalloc:size <- 176
	//DEBUG_VALUE: kzalloc:flags <- 20971712
	//DEBUG_VALUE: kzalloc:size <- 176
	.file	141 "/mnt/disk/jenkins/workspace/chipset_10.1.0_release_5G/opensource/component_code/vendor/huawei/extra/build/build_script/kirin_kernel_release/kernel/include/linux/slab.h"
	.loc	141 520 9               // /mnt/disk/jenkins/workspace/chipset_10.1.0_release_5G/opensource/component_code/vendor/huawei/extra/build/build_script/kirin_kernel_release/kernel/include/linux/slab.h:520:9
	mov	w1, #32960
	mov	w0, #176
	movk	w1, #320, lsl #16
	bl	__kmalloc
.Ltmp296:
	.loc	2 148 6                 // /mnt/disk/jenkins/workspace/chipset_10.1.0_release_5G/opensource/component_code/vendor/huawei/extra/build/build_script/kirin_kernel_release/kernel/block/hisi-blk-busy-idle-notify.c:148:6
	cbz	x0, .LBB11_4
.Ltmp297:
// %bb.1:
	//DEBUG_VALUE: hisi_blk_busy_idle_event_register:lld <- $x21
	//DEBUG_VALUE: hisi_blk_busy_idle_event_register:blk_idle <- [DW_OP_plus_uconst 80, DW_OP_stack_value] $x21
	//DEBUG_VALUE: busy_idle_find_subscribed_node:lld <- $x21
	.loc	2 154 32                // /mnt/disk/jenkins/workspace/chipset_10.1.0_release_5G/opensource/component_code/vendor/huawei/extra/build/build_script/kirin_kernel_release/kernel/block/hisi-blk-busy-idle-notify.c:154:32
	add	x22, x0, #96            // =96
.Ltmp298:
	//DEBUG_VALUE: hisi_blk_busy_idle_event_register:event_node_cpy <- $x22
	//DEBUG_VALUE: busy_idle_find_subscribed_node:event_node <- $x22
	.loc	2 0 0 is_stmt 0         // /mnt/disk/jenkins/workspace/chipset_10.1.0_release_5G/opensource/component_code/vendor/huawei/extra/build/build_script/kirin_kernel_release/kernel/block/hisi-blk-busy-idle-notify.c:0:0
	mov	x20, x0
.Ltmp299:
	//DEBUG_VALUE: __list_add:new <- $x20
	//DEBUG_VALUE: list_add_tail:new <- $x20
	//DEBUG_VALUE: hisi_blk_busy_idle_event_register:notify_nb <- $x20
	.loc	2 155 2 is_stmt 1       // /mnt/disk/jenkins/workspace/chipset_10.1.0_release_5G/opensource/component_code/vendor/huawei/extra/build/build_script/kirin_kernel_release/kernel/block/hisi-blk-busy-idle-notify.c:155:2
	orr	w2, wzr, #0x20
	mov	x0, x22
	mov	x1, x23
	bl	strncpy
	.loc	2 156 59                // /mnt/disk/jenkins/workspace/chipset_10.1.0_release_5G/opensource/component_code/vendor/huawei/extra/build/build_script/kirin_kernel_release/kernel/block/hisi-blk-busy-idle-notify.c:156:59
	strb	wzr, [x20, #127]
	.loc	2 157 64                // /mnt/disk/jenkins/workspace/chipset_10.1.0_release_5G/opensource/component_code/vendor/huawei/extra/build/build_script/kirin_kernel_release/kernel/block/hisi-blk-busy-idle-notify.c:157:64
	ldp	x25, x8, [x23, #32]
	.loc	2 157 50 is_stmt 0      // /mnt/disk/jenkins/workspace/chipset_10.1.0_release_5G/opensource/component_code/vendor/huawei/extra/build/build_script/kirin_kernel_release/kernel/block/hisi-blk-busy-idle-notify.c:157:50
	stp	x25, x8, [x20, #128]
.Ltmp300:
	//DEBUG_VALUE: hisi_blk_is_valid_event_node:event_node <- $x22
	.loc	2 123 6 is_stmt 1       // /mnt/disk/jenkins/workspace/chipset_10.1.0_release_5G/opensource/component_code/vendor/huawei/extra/build/build_script/kirin_kernel_release/kernel/block/hisi-blk-busy-idle-notify.c:123:6
	cbz	x25, .LBB11_5
.Ltmp301:
// %bb.2:
	//DEBUG_VALUE: hisi_blk_is_valid_event_node:event_node <- $x22
	//DEBUG_VALUE: hisi_blk_busy_idle_event_register:notify_nb <- $x20
	//DEBUG_VALUE: hisi_blk_busy_idle_event_register:event_node_cpy <- $x22
	//DEBUG_VALUE: hisi_blk_busy_idle_event_register:lld <- $x21
	//DEBUG_VALUE: hisi_blk_busy_idle_event_register:blk_idle <- [DW_OP_plus_uconst 80, DW_OP_stack_value] $x21
	.loc	2 128 6                 // /mnt/disk/jenkins/workspace/chipset_10.1.0_release_5G/opensource/component_code/vendor/huawei/extra/build/build_script/kirin_kernel_release/kernel/block/hisi-blk-busy-idle-notify.c:128:6
	mov	x0, x22
	bl	strlen
	.loc	2 128 46 is_stmt 0      // /mnt/disk/jenkins/workspace/chipset_10.1.0_release_5G/opensource/component_code/vendor/huawei/extra/build/build_script/kirin_kernel_release/kernel/block/hisi-blk-busy-idle-notify.c:128:46
	sub	x8, x0, #1              // =1
	cmp	x8, #31                 // =31
	b.lo	.LBB11_8
.Ltmp302:
// %bb.3:
	//DEBUG_VALUE: hisi_blk_is_valid_event_node:event_node <- $x22
	//DEBUG_VALUE: hisi_blk_busy_idle_event_register:notify_nb <- $x20
	//DEBUG_VALUE: hisi_blk_busy_idle_event_register:event_node_cpy <- $x22
	//DEBUG_VALUE: hisi_blk_busy_idle_event_register:lld <- $x21
	//DEBUG_VALUE: hisi_blk_busy_idle_event_register:blk_idle <- [DW_OP_plus_uconst 80, DW_OP_stack_value] $x21
	.loc	2 130 3 is_stmt 1       // /mnt/disk/jenkins/workspace/chipset_10.1.0_release_5G/opensource/component_code/vendor/huawei/extra/build/build_script/kirin_kernel_release/kernel/block/hisi-blk-busy-idle-notify.c:130:3
	adrp	x0, .L.str.39
	add	x0, x0, :lo12:.L.str.39
	b	.LBB11_6
.Ltmp303:
.LBB11_4:
	//DEBUG_VALUE: hisi_blk_busy_idle_event_register:lld <- $x21
	//DEBUG_VALUE: hisi_blk_busy_idle_event_register:blk_idle <- [DW_OP_plus_uconst 80, DW_OP_stack_value] $x21
	.loc	2 149 3                 // /mnt/disk/jenkins/workspace/chipset_10.1.0_release_5G/opensource/component_code/vendor/huawei/extra/build/build_script/kirin_kernel_release/kernel/block/hisi-blk-busy-idle-notify.c:149:3
	adrp	x0, .L.str.35
	adrp	x1, .L__func__.hisi_blk_busy_idle_event_register
	add	x0, x0, :lo12:.L.str.35
	add	x1, x1, :lo12:.L__func__.hisi_blk_busy_idle_event_register
	mov	w2, #149
	bl	printk
	mov	w21, #-12
.Ltmp304:
	//DEBUG_VALUE: hisi_blk_busy_idle_event_register:ret <- -12
	.loc	2 0 3 is_stmt 0         // /mnt/disk/jenkins/workspace/chipset_10.1.0_release_5G/opensource/component_code/vendor/huawei/extra/build/build_script/kirin_kernel_release/kernel/block/hisi-blk-busy-idle-notify.c:0:3
	b	.LBB11_15
.Ltmp305:
.LBB11_5:
	//DEBUG_VALUE: hisi_blk_is_valid_event_node:event_node <- $x22
	//DEBUG_VALUE: hisi_blk_busy_idle_event_register:notify_nb <- $x20
	//DEBUG_VALUE: hisi_blk_busy_idle_event_register:event_node_cpy <- $x22
	//DEBUG_VALUE: hisi_blk_busy_idle_event_register:lld <- $x21
	//DEBUG_VALUE: hisi_blk_busy_idle_event_register:blk_idle <- [DW_OP_plus_uconst 80, DW_OP_stack_value] $x21
	.loc	2 124 3 is_stmt 1       // /mnt/disk/jenkins/workspace/chipset_10.1.0_release_5G/opensource/component_code/vendor/huawei/extra/build/build_script/kirin_kernel_release/kernel/block/hisi-blk-busy-idle-notify.c:124:3
	adrp	x0, .L.str.38
	add	x0, x0, :lo12:.L.str.38
.Ltmp306:
.LBB11_6:
	//DEBUG_VALUE: hisi_blk_is_valid_event_node:event_node <- $x22
	//DEBUG_VALUE: hisi_blk_busy_idle_event_register:notify_nb <- $x20
	//DEBUG_VALUE: hisi_blk_busy_idle_event_register:event_node_cpy <- $x22
	//DEBUG_VALUE: hisi_blk_busy_idle_event_register:lld <- $x21
	//DEBUG_VALUE: hisi_blk_busy_idle_event_register:blk_idle <- [DW_OP_plus_uconst 80, DW_OP_stack_value] $x21
	.loc	2 0 0 is_stmt 0         // /mnt/disk/jenkins/workspace/chipset_10.1.0_release_5G/opensource/component_code/vendor/huawei/extra/build/build_script/kirin_kernel_release/kernel/block/hisi-blk-busy-idle-notify.c:0:0
	adrp	x1, .L__func__.hisi_blk_is_valid_event_node
	add	x1, x1, :lo12:.L__func__.hisi_blk_is_valid_event_node
	bl	printk
.Ltmp307:
	.loc	2 164 3 is_stmt 1       // /mnt/disk/jenkins/workspace/chipset_10.1.0_release_5G/opensource/component_code/vendor/huawei/extra/build/build_script/kirin_kernel_release/kernel/block/hisi-blk-busy-idle-notify.c:164:3
	bl	dump_stack
	mov	w21, #-22
.Ltmp308:
	//DEBUG_VALUE: hisi_blk_busy_idle_event_register:ret <- -22
.LBB11_7:
	//DEBUG_VALUE: hisi_blk_busy_idle_event_register:notify_nb <- $x20
	//DEBUG_VALUE: hisi_blk_busy_idle_event_register:event_node_cpy <- $x22
	//DEBUG_VALUE: hisi_blk_busy_idle_event_register:ret <- $w21
	.loc	2 206 2                 // /mnt/disk/jenkins/workspace/chipset_10.1.0_release_5G/opensource/component_code/vendor/huawei/extra/build/build_script/kirin_kernel_release/kernel/block/hisi-blk-busy-idle-notify.c:206:2
	mov	x0, x20
	bl	kfree
	b	.LBB11_15
.Ltmp309:
.LBB11_8:
	//DEBUG_VALUE: hisi_blk_busy_idle_event_register:notify_nb <- $x20
	//DEBUG_VALUE: hisi_blk_busy_idle_event_register:event_node_cpy <- $x22
	//DEBUG_VALUE: hisi_blk_busy_idle_event_register:lld <- $x21
	//DEBUG_VALUE: hisi_blk_busy_idle_event_register:blk_idle <- [DW_OP_plus_uconst 80, DW_OP_stack_value] $x21
	//DEBUG_VALUE: __list_add:next <- undef
	//DEBUG_VALUE: list_add_tail:head <- undef
	//DEBUG_VALUE: __mptr <- [DW_OP_deref] undef
	//DEBUG_VALUE: busy_idle_find_subscribed_node:pos <- [DW_OP_deref] undef
	.loc	2 0 0 is_stmt 0         // /mnt/disk/jenkins/workspace/chipset_10.1.0_release_5G/opensource/component_code/vendor/huawei/extra/build/build_script/kirin_kernel_release/kernel/block/hisi-blk-busy-idle-notify.c:0:0
	mov	x24, x21
	ldr	x23, [x24, #192]!
.Ltmp310:
	//DEBUG_VALUE: busy_idle_find_subscribed_node:pos <- $x23
	.loc	2 111 2 is_stmt 1       // /mnt/disk/jenkins/workspace/chipset_10.1.0_release_5G/opensource/component_code/vendor/huawei/extra/build/build_script/kirin_kernel_release/kernel/block/hisi-blk-busy-idle-notify.c:111:2
	cmp	x23, x24
	b.ne	.LBB11_10
	b	.LBB11_14
.Ltmp311:
.LBB11_9:                               //   in Loop: Header=BB11_10 Depth=1
	//DEBUG_VALUE: busy_idle_find_subscribed_node:pos <- $x23
	//DEBUG_VALUE: hisi_blk_busy_idle_event_register:notify_nb <- $x20
	//DEBUG_VALUE: hisi_blk_busy_idle_event_register:event_node_cpy <- $x22
	//DEBUG_VALUE: hisi_blk_busy_idle_event_register:lld <- $x21
	//DEBUG_VALUE: hisi_blk_busy_idle_event_register:blk_idle <- [DW_OP_plus_uconst 80, DW_OP_stack_value] $x21
	//DEBUG_VALUE: busy_idle_find_subscribed_node:pos <- [DW_OP_deref] $x23
	//DEBUG_VALUE: __mptr <- [DW_OP_deref] $x23
	.loc	2 0 0 is_stmt 0         // /mnt/disk/jenkins/workspace/chipset_10.1.0_release_5G/opensource/component_code/vendor/huawei/extra/build/build_script/kirin_kernel_release/kernel/block/hisi-blk-busy-idle-notify.c:0:0
	ldr	x23, [x23]
.Ltmp312:
	//DEBUG_VALUE: busy_idle_find_subscribed_node:pos <- $x23
	.loc	2 111 2                 // /mnt/disk/jenkins/workspace/chipset_10.1.0_release_5G/opensource/component_code/vendor/huawei/extra/build/build_script/kirin_kernel_release/kernel/block/hisi-blk-busy-idle-notify.c:111:2
	cmp	x23, x24
	b.eq	.LBB11_14
.Ltmp313:
.LBB11_10:                              // =>This Inner Loop Header: Depth=1
	//DEBUG_VALUE: busy_idle_find_subscribed_node:pos <- $x23
	//DEBUG_VALUE: hisi_blk_busy_idle_event_register:notify_nb <- $x20
	//DEBUG_VALUE: hisi_blk_busy_idle_event_register:event_node_cpy <- $x22
	//DEBUG_VALUE: hisi_blk_busy_idle_event_register:lld <- $x21
	//DEBUG_VALUE: hisi_blk_busy_idle_event_register:blk_idle <- [DW_OP_plus_uconst 80, DW_OP_stack_value] $x21
	.loc	2 112 44 is_stmt 1      // /mnt/disk/jenkins/workspace/chipset_10.1.0_release_5G/opensource/component_code/vendor/huawei/extra/build/build_script/kirin_kernel_release/kernel/block/hisi-blk-busy-idle-notify.c:112:44
	add	x1, x23, #96            // =96
	.loc	2 112 8 is_stmt 0       // /mnt/disk/jenkins/workspace/chipset_10.1.0_release_5G/opensource/component_code/vendor/huawei/extra/build/build_script/kirin_kernel_release/kernel/block/hisi-blk-busy-idle-notify.c:112:8
	mov	x0, x22
	bl	strcmp
	.loc	2 112 77                // /mnt/disk/jenkins/workspace/chipset_10.1.0_release_5G/opensource/component_code/vendor/huawei/extra/build/build_script/kirin_kernel_release/kernel/block/hisi-blk-busy-idle-notify.c:112:77
	cbnz	w0, .LBB11_9
.Ltmp314:
// %bb.11:                              //   in Loop: Header=BB11_10 Depth=1
	//DEBUG_VALUE: busy_idle_find_subscribed_node:pos <- $x23
	//DEBUG_VALUE: hisi_blk_busy_idle_event_register:notify_nb <- $x20
	//DEBUG_VALUE: hisi_blk_busy_idle_event_register:event_node_cpy <- $x22
	//DEBUG_VALUE: hisi_blk_busy_idle_event_register:lld <- $x21
	//DEBUG_VALUE: hisi_blk_busy_idle_event_register:blk_idle <- [DW_OP_plus_uconst 80, DW_OP_stack_value] $x21
	.loc	2 114 21 is_stmt 1      // /mnt/disk/jenkins/workspace/chipset_10.1.0_release_5G/opensource/component_code/vendor/huawei/extra/build/build_script/kirin_kernel_release/kernel/block/hisi-blk-busy-idle-notify.c:114:21
	ldr	x8, [x23, #128]
.Ltmp315:
	.loc	2 112 7                 // /mnt/disk/jenkins/workspace/chipset_10.1.0_release_5G/opensource/component_code/vendor/huawei/extra/build/build_script/kirin_kernel_release/kernel/block/hisi-blk-busy-idle-notify.c:112:7
	cmp	x8, x25
	b.ne	.LBB11_9
.Ltmp316:
// %bb.12:
	//DEBUG_VALUE: hisi_blk_busy_idle_event_register:notify_nb <- $x20
	//DEBUG_VALUE: hisi_blk_busy_idle_event_register:event_node_cpy <- $x22
	//DEBUG_VALUE: hisi_blk_busy_idle_event_register:lld <- $x21
	//DEBUG_VALUE: hisi_blk_busy_idle_event_register:blk_idle <- [DW_OP_plus_uconst 80, DW_OP_stack_value] $x21
	.loc	2 170 6                 // /mnt/disk/jenkins/workspace/chipset_10.1.0_release_5G/opensource/component_code/vendor/huawei/extra/build/build_script/kirin_kernel_release/kernel/block/hisi-blk-busy-idle-notify.c:170:6
	cbz	x23, .LBB11_14
.Ltmp317:
// %bb.13:
	//DEBUG_VALUE: hisi_blk_busy_idle_event_register:notify_nb <- $x20
	//DEBUG_VALUE: hisi_blk_busy_idle_event_register:event_node_cpy <- $x22
	//DEBUG_VALUE: hisi_blk_busy_idle_event_register:lld <- $x21
	//DEBUG_VALUE: hisi_blk_busy_idle_event_register:blk_idle <- [DW_OP_plus_uconst 80, DW_OP_stack_value] $x21
	.loc	2 171 3                 // /mnt/disk/jenkins/workspace/chipset_10.1.0_release_5G/opensource/component_code/vendor/huawei/extra/build/build_script/kirin_kernel_release/kernel/block/hisi-blk-busy-idle-notify.c:171:3
	adrp	x0, .L.str.36
	adrp	x1, .L__func__.hisi_blk_busy_idle_event_register
	add	x0, x0, :lo12:.L.str.36
	add	x1, x1, :lo12:.L__func__.hisi_blk_busy_idle_event_register
	mov	x2, x22
	bl	printk
	.loc	2 178 3                 // /mnt/disk/jenkins/workspace/chipset_10.1.0_release_5G/opensource/component_code/vendor/huawei/extra/build/build_script/kirin_kernel_release/kernel/block/hisi-blk-busy-idle-notify.c:178:3
	bl	dump_stack
	mov	w21, #-1
.Ltmp318:
	//DEBUG_VALUE: hisi_blk_busy_idle_event_register:ret <- -1
	.loc	2 0 3 is_stmt 0         // /mnt/disk/jenkins/workspace/chipset_10.1.0_release_5G/opensource/component_code/vendor/huawei/extra/build/build_script/kirin_kernel_release/kernel/block/hisi-blk-busy-idle-notify.c:0:3
	b	.LBB11_7
.Ltmp319:
.LBB11_14:
	//DEBUG_VALUE: hisi_blk_busy_idle_event_register:notify_nb <- $x20
	//DEBUG_VALUE: hisi_blk_busy_idle_event_register:event_node_cpy <- $x22
	//DEBUG_VALUE: hisi_blk_busy_idle_event_register:lld <- $x21
	//DEBUG_VALUE: hisi_blk_busy_idle_event_register:blk_idle <- [DW_OP_plus_uconst 80, DW_OP_stack_value] $x21
	.loc	2 184 2 is_stmt 1       // /mnt/disk/jenkins/workspace/chipset_10.1.0_release_5G/opensource/component_code/vendor/huawei/extra/build/build_script/kirin_kernel_release/kernel/block/hisi-blk-busy-idle-notify.c:184:2
	add	x0, x20, #24            // =24
	mov	w1, wzr
	mov	x2, xzr
	mov	x3, xzr
	bl	init_timer_key
	adrp	x8, __cfi_hisi_blk_busy_idle_handler_latency_check_timer_expire
	add	x8, x8, :lo12:__cfi_hisi_blk_busy_idle_handler_latency_check_timer_expire
.Ltmp320:
	.loc	2 187 40                // /mnt/disk/jenkins/workspace/chipset_10.1.0_release_5G/opensource/component_code/vendor/huawei/extra/build/build_script/kirin_kernel_release/kernel/block/hisi-blk-busy-idle-notify.c:187:40
	adrp	x9, __cfi_hisi_blk_busy_idle_notify_handler
	add	x9, x9, :lo12:__cfi_hisi_blk_busy_idle_notify_handler
	mov	x23, x20
.Ltmp321:
	.loc	2 184 2                 // /mnt/disk/jenkins/workspace/chipset_10.1.0_release_5G/opensource/component_code/vendor/huawei/extra/build/build_script/kirin_kernel_release/kernel/block/hisi-blk-busy-idle-notify.c:184:2
	stp	x8, x20, [x20, #48]
	orr	w8, wzr, #0x1
.Ltmp322:
	.loc	2 187 40                // /mnt/disk/jenkins/workspace/chipset_10.1.0_release_5G/opensource/component_code/vendor/huawei/extra/build/build_script/kirin_kernel_release/kernel/block/hisi-blk-busy-idle-notify.c:187:40
	str	x9, [x23, #72]!
	.loc	2 188 35                // /mnt/disk/jenkins/workspace/chipset_10.1.0_release_5G/opensource/component_code/vendor/huawei/extra/build/build_script/kirin_kernel_release/kernel/block/hisi-blk-busy-idle-notify.c:188:35
	str	wzr, [x20, #88]
	.loc	2 190 24                // /mnt/disk/jenkins/workspace/chipset_10.1.0_release_5G/opensource/component_code/vendor/huawei/extra/build/build_script/kirin_kernel_release/kernel/block/hisi-blk-busy-idle-notify.c:190:24
	str	w8, [x20, #152]
	.loc	2 191 39                // /mnt/disk/jenkins/workspace/chipset_10.1.0_release_5G/opensource/component_code/vendor/huawei/extra/build/build_script/kirin_kernel_release/kernel/block/hisi-blk-busy-idle-notify.c:191:39
	str	xzr, [x20, #168]
.Ltmp323:
	.loc	140 93 24               // /mnt/disk/jenkins/workspace/chipset_10.1.0_release_5G/opensource/component_code/vendor/huawei/extra/build/build_script/kirin_kernel_release/kernel/include/linux/list.h:93:24
	ldr	x8, [x21, #200]
.Ltmp324:
	//DEBUG_VALUE: __list_add:prev <- $x8
	.loc	2 196 46                // /mnt/disk/jenkins/workspace/chipset_10.1.0_release_5G/opensource/component_code/vendor/huawei/extra/build/build_script/kirin_kernel_release/kernel/block/hisi-blk-busy-idle-notify.c:196:46
	add	x0, x21, #208           // =208
	.loc	2 196 2 is_stmt 0       // /mnt/disk/jenkins/workspace/chipset_10.1.0_release_5G/opensource/component_code/vendor/huawei/extra/build/build_script/kirin_kernel_release/kernel/block/hisi-blk-busy-idle-notify.c:196:2
	mov	x1, x23
.Ltmp325:
	.loc	140 63 13 is_stmt 1     // /mnt/disk/jenkins/workspace/chipset_10.1.0_release_5G/opensource/component_code/vendor/huawei/extra/build/build_script/kirin_kernel_release/kernel/include/linux/list.h:63:13
	str	x20, [x21, #200]
	.loc	140 64 12               // /mnt/disk/jenkins/workspace/chipset_10.1.0_release_5G/opensource/component_code/vendor/huawei/extra/build/build_script/kirin_kernel_release/kernel/include/linux/list.h:64:12
	str	x24, [x20]
.Ltmp326:
	.loc	2 189 31                // /mnt/disk/jenkins/workspace/chipset_10.1.0_release_5G/opensource/component_code/vendor/huawei/extra/build/build_script/kirin_kernel_release/kernel/block/hisi-blk-busy-idle-notify.c:189:31
	stp	x8, x21, [x20, #8]
.Ltmp327:
	//DEBUG_VALUE: __write_once_size:p <- $x8
	//DEBUG_VALUE: __write_once_size:size <- 8
	//DEBUG_VALUE: __write_once_size:res <- undef
	.loc	137 213 31              // /mnt/disk/jenkins/workspace/chipset_10.1.0_release_5G/opensource/component_code/vendor/huawei/extra/build/build_script/kirin_kernel_release/kernel/include/linux/compiler.h:213:31
	str	x20, [x8]
.Ltmp328:
	.loc	2 196 2                 // /mnt/disk/jenkins/workspace/chipset_10.1.0_release_5G/opensource/component_code/vendor/huawei/extra/build/build_script/kirin_kernel_release/kernel/block/hisi-blk-busy-idle-notify.c:196:2
	bl	blocking_notifier_chain_register
.Ltmp329:
	.loc	2 198 2                 // /mnt/disk/jenkins/workspace/chipset_10.1.0_release_5G/opensource/component_code/vendor/huawei/extra/build/build_script/kirin_kernel_release/kernel/block/hisi-blk-busy-idle-notify.c:198:2
	adrp	x0, .L.str.37
	add	x0, x0, :lo12:.L.str.37
	mov	x1, x22
	mov	x2, x23
	bl	printk
.Ltmp330:
	//DEBUG_VALUE: hisi_blk_busy_idle_event_register:ret <- 0
	.loc	2 0 0 is_stmt 0         // /mnt/disk/jenkins/workspace/chipset_10.1.0_release_5G/opensource/component_code/vendor/huawei/extra/build/build_script/kirin_kernel_release/kernel/block/hisi-blk-busy-idle-notify.c:0:0
	mov	w21, wzr
.Ltmp331:
.LBB11_15:
	//DEBUG_VALUE: hisi_blk_busy_idle_event_register:ret <- $w21
	.loc	2 210 2 is_stmt 1       // /mnt/disk/jenkins/workspace/chipset_10.1.0_release_5G/opensource/component_code/vendor/huawei/extra/build/build_script/kirin_kernel_release/kernel/block/hisi-blk-busy-idle-notify.c:210:2
	mov	x0, x19
	bl	mutex_unlock
	.loc	2 211 2                 // /mnt/disk/jenkins/workspace/chipset_10.1.0_release_5G/opensource/component_code/vendor/huawei/extra/build/build_script/kirin_kernel_release/kernel/block/hisi-blk-busy-idle-notify.c:211:2
	mov	w0, w21
	ldp	x29, x30, [sp, #64]     // 16-byte Folded Reload
	ldp	x20, x19, [sp, #48]     // 16-byte Folded Reload
	ldp	x22, x21, [sp, #32]     // 16-byte Folded Reload
.Ltmp332:
	ldp	x24, x23, [sp, #16]     // 16-byte Folded Reload
	ldr	x25, [sp], #80          // 8-byte Folded Reload
	ret
.Ltmp333:
.Lfunc_end11:
	.size	hisi_blk_busy_idle_event_register, .Lfunc_end11-hisi_blk_busy_idle_event_register
	.cfi_endproc
                                        // -- End function
	.section	.text.blk_queue_busy_idle_event_subscriber,"ax",@progbits
	.hidden	blk_queue_busy_idle_event_subscriber // -- Begin function blk_queue_busy_idle_event_subscriber
	.globl	blk_queue_busy_idle_event_subscriber
	.p2align	2
	.type	blk_queue_busy_idle_event_subscriber,@function
blk_queue_busy_idle_event_subscriber:   // @blk_queue_busy_idle_event_subscriber
.Lfunc_begin12:
	.loc	2 575 0                 // /mnt/disk/jenkins/workspace/chipset_10.1.0_release_5G/opensource/component_code/vendor/huawei/extra/build/build_script/kirin_kernel_release/kernel/block/hisi-blk-busy-idle-notify.c:575:0
	.cfi_startproc
// %bb.0:
	str	x19, [sp, #-32]!        // 8-byte Folded Spill
	stp	x29, x30, [sp, #16]     // 16-byte Folded Spill
	add	x29, sp, #16            // =16
	.cfi_def_cfa w29, 16
	.cfi_offset w30, -8
	.cfi_offset w29, -16
	.cfi_offset w19, -32
	//DEBUG_VALUE: blk_queue_busy_idle_event_subscriber:q <- $x0
	//DEBUG_VALUE: blk_queue_busy_idle_event_subscriber:event_node <- $x1
	mov	x19, x1
.Ltmp334:
	//DEBUG_VALUE: blk_queue_busy_idle_event_subscriber:event_node <- $x19
	//DEBUG_VALUE: blk_queue_busy_idle_event_subscriber:q <- $x0
	//DEBUG_VALUE: blk_queue_busy_idle_event_subscriber:q <- $x0
	.loc	2 577 3 prologue_end    // /mnt/disk/jenkins/workspace/chipset_10.1.0_release_5G/opensource/component_code/vendor/huawei/extra/build/build_script/kirin_kernel_release/kernel/block/hisi-blk-busy-idle-notify.c:577:3
	bl	hisi_blk_get_lld
.Ltmp335:
	.loc	2 576 9                 // /mnt/disk/jenkins/workspace/chipset_10.1.0_release_5G/opensource/component_code/vendor/huawei/extra/build/build_script/kirin_kernel_release/kernel/block/hisi-blk-busy-idle-notify.c:576:9
	mov	x1, x19
.Ltmp336:
	//DEBUG_VALUE: blk_queue_busy_idle_event_subscriber:event_node <- $x1
	bl	hisi_blk_busy_idle_event_register
.Ltmp337:
	.loc	2 576 2 is_stmt 0       // /mnt/disk/jenkins/workspace/chipset_10.1.0_release_5G/opensource/component_code/vendor/huawei/extra/build/build_script/kirin_kernel_release/kernel/block/hisi-blk-busy-idle-notify.c:576:2
	ldp	x29, x30, [sp, #16]     // 16-byte Folded Reload
	ldr	x19, [sp], #32          // 8-byte Folded Reload
	ret
.Ltmp338:
.Lfunc_end12:
	.size	blk_queue_busy_idle_event_subscriber, .Lfunc_end12-blk_queue_busy_idle_event_subscriber
	.cfi_endproc
                                        // -- End function
	.section	.text.blk_lld_busy_idle_event_subscriber,"ax",@progbits
	.hidden	blk_lld_busy_idle_event_subscriber // -- Begin function blk_lld_busy_idle_event_subscriber
	.globl	blk_lld_busy_idle_event_subscriber
	.p2align	2
	.type	blk_lld_busy_idle_event_subscriber,@function
blk_lld_busy_idle_event_subscriber:     // @blk_lld_busy_idle_event_subscriber
.Lfunc_begin13:
	.loc	2 586 0 is_stmt 1       // /mnt/disk/jenkins/workspace/chipset_10.1.0_release_5G/opensource/component_code/vendor/huawei/extra/build/build_script/kirin_kernel_release/kernel/block/hisi-blk-busy-idle-notify.c:586:0
	.cfi_startproc
// %bb.0:
	stp	x29, x30, [sp, #-16]!   // 16-byte Folded Spill
	mov	x29, sp
	.cfi_def_cfa w29, 16
	.cfi_offset w30, -8
	.cfi_offset w29, -16
	//DEBUG_VALUE: blk_lld_busy_idle_event_subscriber:lld <- $x0
	//DEBUG_VALUE: blk_lld_busy_idle_event_subscriber:lld <- $x0
	//DEBUG_VALUE: blk_lld_busy_idle_event_subscriber:event_node <- $x1
	//DEBUG_VALUE: blk_lld_busy_idle_event_subscriber:event_node <- $x1
	//DEBUG_VALUE: blk_lld_busy_idle_event_subscriber:event_node <- $x1
	//DEBUG_VALUE: blk_lld_busy_idle_event_subscriber:lld <- $x0
.Ltmp339:
	.loc	2 587 9 prologue_end    // /mnt/disk/jenkins/workspace/chipset_10.1.0_release_5G/opensource/component_code/vendor/huawei/extra/build/build_script/kirin_kernel_release/kernel/block/hisi-blk-busy-idle-notify.c:587:9
	bl	hisi_blk_busy_idle_event_register
.Ltmp340:
	.loc	2 587 2 is_stmt 0       // /mnt/disk/jenkins/workspace/chipset_10.1.0_release_5G/opensource/component_code/vendor/huawei/extra/build/build_script/kirin_kernel_release/kernel/block/hisi-blk-busy-idle-notify.c:587:2
	ldp	x29, x30, [sp], #16     // 16-byte Folded Reload
	ret
.Ltmp341:
.Lfunc_end13:
	.size	blk_lld_busy_idle_event_subscriber, .Lfunc_end13-blk_lld_busy_idle_event_subscriber
	.cfi_endproc
                                        // -- End function
	.section	.text.blk_busy_idle_event_unsubscriber,"ax",@progbits
	.hidden	blk_busy_idle_event_unsubscriber // -- Begin function blk_busy_idle_event_unsubscriber
	.globl	blk_busy_idle_event_unsubscriber
	.p2align	2
	.type	blk_busy_idle_event_unsubscriber,@function
blk_busy_idle_event_unsubscriber:       // @blk_busy_idle_event_unsubscriber
.Lfunc_begin14:
	.loc	2 595 0 is_stmt 1       // /mnt/disk/jenkins/workspace/chipset_10.1.0_release_5G/opensource/component_code/vendor/huawei/extra/build/build_script/kirin_kernel_release/kernel/block/hisi-blk-busy-idle-notify.c:595:0
	.cfi_startproc
// %bb.0:
	stp	x29, x30, [sp, #-16]!   // 16-byte Folded Spill
	mov	x29, sp
	.cfi_def_cfa w29, 16
	.cfi_offset w30, -8
	.cfi_offset w29, -16
	//DEBUG_VALUE: blk_busy_idle_event_unsubscriber:event_node <- $x0
	//DEBUG_VALUE: blk_busy_idle_event_unsubscriber:event_node <- $x0
	//DEBUG_VALUE: blk_busy_idle_event_unsubscriber:event_node <- $x0
.Ltmp342:
	.loc	2 596 9 prologue_end    // /mnt/disk/jenkins/workspace/chipset_10.1.0_release_5G/opensource/component_code/vendor/huawei/extra/build/build_script/kirin_kernel_release/kernel/block/hisi-blk-busy-idle-notify.c:596:9
	bl	hisi_blk_busy_idle_event_unregister
.Ltmp343:
	.loc	2 596 2 is_stmt 0       // /mnt/disk/jenkins/workspace/chipset_10.1.0_release_5G/opensource/component_code/vendor/huawei/extra/build/build_script/kirin_kernel_release/kernel/block/hisi-blk-busy-idle-notify.c:596:2
	ldp	x29, x30, [sp], #16     // 16-byte Folded Reload
	ret
.Ltmp344:
.Lfunc_end14:
	.size	blk_busy_idle_event_unsubscriber, .Lfunc_end14-blk_busy_idle_event_unsubscriber
	.cfi_endproc
                                        // -- End function
	.section	.text.hisi_blk_busy_idle_event_unregister,"ax",@progbits
	.p2align	2               // -- Begin function hisi_blk_busy_idle_event_unregister
	.type	hisi_blk_busy_idle_event_unregister,@function
hisi_blk_busy_idle_event_unregister:    // @hisi_blk_busy_idle_event_unregister
.Lfunc_begin15:
	.loc	2 215 0 is_stmt 1       // /mnt/disk/jenkins/workspace/chipset_10.1.0_release_5G/opensource/component_code/vendor/huawei/extra/build/build_script/kirin_kernel_release/kernel/block/hisi-blk-busy-idle-notify.c:215:0
	.cfi_startproc
// %bb.0:
	stp	x24, x23, [sp, #-64]!   // 16-byte Folded Spill
	stp	x22, x21, [sp, #16]     // 16-byte Folded Spill
	stp	x20, x19, [sp, #32]     // 16-byte Folded Spill
	stp	x29, x30, [sp, #48]     // 16-byte Folded Spill
	add	x29, sp, #48            // =48
	.cfi_def_cfa w29, 16
	.cfi_offset w30, -8
	.cfi_offset w29, -16
	.cfi_offset w19, -24
	.cfi_offset w20, -32
	.cfi_offset w21, -40
	.cfi_offset w22, -48
	.cfi_offset w23, -56
	.cfi_offset w24, -64
	//DEBUG_VALUE: hisi_blk_busy_idle_event_unregister:event_node <- $x0
.Ltmp345:
	//DEBUG_VALUE: busy_idle_find_subscribed_node:event_node <- $x0
	.loc	2 218 40 prologue_end   // /mnt/disk/jenkins/workspace/chipset_10.1.0_release_5G/opensource/component_code/vendor/huawei/extra/build/build_script/kirin_kernel_release/kernel/block/hisi-blk-busy-idle-notify.c:218:40
	ldr	x23, [x0, #48]
.Ltmp346:
	//DEBUG_VALUE: hisi_blk_busy_idle_event_unregister:lld <- $x23
	//DEBUG_VALUE: hisi_blk_busy_idle_event_unregister:blk_idle <- [DW_OP_plus_uconst 80, DW_OP_stack_value] $x23
	.loc	2 0 40 is_stmt 0        // /mnt/disk/jenkins/workspace/chipset_10.1.0_release_5G/opensource/component_code/vendor/huawei/extra/build/build_script/kirin_kernel_release/kernel/block/hisi-blk-busy-idle-notify.c:0:40
	mov	x21, x0
.Ltmp347:
	//DEBUG_VALUE: hisi_blk_busy_idle_event_unregister:ret <- 0
	//DEBUG_VALUE: hisi_blk_busy_idle_event_unregister:event_node <- $x21
	.loc	2 221 24 is_stmt 1      // /mnt/disk/jenkins/workspace/chipset_10.1.0_release_5G/opensource/component_code/vendor/huawei/extra/build/build_script/kirin_kernel_release/kernel/block/hisi-blk-busy-idle-notify.c:221:24
	add	x19, x23, #296          // =296
	.loc	2 221 2 is_stmt 0       // /mnt/disk/jenkins/workspace/chipset_10.1.0_release_5G/opensource/component_code/vendor/huawei/extra/build/build_script/kirin_kernel_release/kernel/block/hisi-blk-busy-idle-notify.c:221:2
	mov	x0, x19
.Ltmp348:
	bl	mutex_lock
.Ltmp349:
	//DEBUG_VALUE: busy_idle_find_subscribed_node:pos <- [DW_OP_deref] undef
	//DEBUG_VALUE: __mptr <- [DW_OP_deref] undef
	//DEBUG_VALUE: busy_idle_find_subscribed_node:lld <- $x23
	//DEBUG_VALUE: busy_idle_find_subscribed_node:event_node <- $x21
	.loc	2 0 0                   // /mnt/disk/jenkins/workspace/chipset_10.1.0_release_5G/opensource/component_code/vendor/huawei/extra/build/build_script/kirin_kernel_release/kernel/block/hisi-blk-busy-idle-notify.c:0:0
	mov	x24, x23
	ldr	x20, [x24, #192]!
.Ltmp350:
	//DEBUG_VALUE: busy_idle_find_subscribed_node:pos <- $x20
	.loc	2 111 2 is_stmt 1       // /mnt/disk/jenkins/workspace/chipset_10.1.0_release_5G/opensource/component_code/vendor/huawei/extra/build/build_script/kirin_kernel_release/kernel/block/hisi-blk-busy-idle-notify.c:111:2
	cmp	x20, x24
	b.ne	.LBB15_2
	b	.LBB15_6
.Ltmp351:
.LBB15_1:                               //   in Loop: Header=BB15_2 Depth=1
	//DEBUG_VALUE: hisi_blk_busy_idle_event_unregister:notify_nb <- $x20
	//DEBUG_VALUE: busy_idle_find_subscribed_node:pos <- $x20
	//DEBUG_VALUE: busy_idle_find_subscribed_node:event_node <- $x21
	//DEBUG_VALUE: busy_idle_find_subscribed_node:lld <- $x23
	//DEBUG_VALUE: hisi_blk_busy_idle_event_unregister:event_node <- $x21
	//DEBUG_VALUE: hisi_blk_busy_idle_event_unregister:blk_idle <- [DW_OP_plus_uconst 80, DW_OP_stack_value] $x23
	//DEBUG_VALUE: hisi_blk_busy_idle_event_unregister:lld <- $x23
	//DEBUG_VALUE: busy_idle_find_subscribed_node:pos <- [DW_OP_deref] $x20
	//DEBUG_VALUE: __mptr <- [DW_OP_deref] $x20
	.loc	2 0 0 is_stmt 0         // /mnt/disk/jenkins/workspace/chipset_10.1.0_release_5G/opensource/component_code/vendor/huawei/extra/build/build_script/kirin_kernel_release/kernel/block/hisi-blk-busy-idle-notify.c:0:0
	ldr	x20, [x20]
.Ltmp352:
	//DEBUG_VALUE: busy_idle_find_subscribed_node:pos <- $x20
	.loc	2 111 2                 // /mnt/disk/jenkins/workspace/chipset_10.1.0_release_5G/opensource/component_code/vendor/huawei/extra/build/build_script/kirin_kernel_release/kernel/block/hisi-blk-busy-idle-notify.c:111:2
	cmp	x20, x24
	b.eq	.LBB15_6
.Ltmp353:
.LBB15_2:                               // =>This Inner Loop Header: Depth=1
	//DEBUG_VALUE: busy_idle_find_subscribed_node:pos <- $x20
	//DEBUG_VALUE: busy_idle_find_subscribed_node:event_node <- $x21
	//DEBUG_VALUE: busy_idle_find_subscribed_node:lld <- $x23
	//DEBUG_VALUE: hisi_blk_busy_idle_event_unregister:event_node <- $x21
	//DEBUG_VALUE: hisi_blk_busy_idle_event_unregister:blk_idle <- [DW_OP_plus_uconst 80, DW_OP_stack_value] $x23
	//DEBUG_VALUE: hisi_blk_busy_idle_event_unregister:lld <- $x23
	//DEBUG_VALUE: hisi_blk_busy_idle_event_unregister:notify_nb <- $x20
	.loc	2 112 44 is_stmt 1      // /mnt/disk/jenkins/workspace/chipset_10.1.0_release_5G/opensource/component_code/vendor/huawei/extra/build/build_script/kirin_kernel_release/kernel/block/hisi-blk-busy-idle-notify.c:112:44
	add	x22, x20, #96           // =96
	.loc	2 112 8 is_stmt 0       // /mnt/disk/jenkins/workspace/chipset_10.1.0_release_5G/opensource/component_code/vendor/huawei/extra/build/build_script/kirin_kernel_release/kernel/block/hisi-blk-busy-idle-notify.c:112:8
	mov	x0, x21
	mov	x1, x22
	bl	strcmp
	.loc	2 112 77                // /mnt/disk/jenkins/workspace/chipset_10.1.0_release_5G/opensource/component_code/vendor/huawei/extra/build/build_script/kirin_kernel_release/kernel/block/hisi-blk-busy-idle-notify.c:112:77
	cbnz	w0, .LBB15_1
.Ltmp354:
// %bb.3:                               //   in Loop: Header=BB15_2 Depth=1
	//DEBUG_VALUE: hisi_blk_busy_idle_event_unregister:notify_nb <- $x20
	//DEBUG_VALUE: busy_idle_find_subscribed_node:pos <- $x20
	//DEBUG_VALUE: busy_idle_find_subscribed_node:event_node <- $x21
	//DEBUG_VALUE: busy_idle_find_subscribed_node:lld <- $x23
	//DEBUG_VALUE: hisi_blk_busy_idle_event_unregister:event_node <- $x21
	//DEBUG_VALUE: hisi_blk_busy_idle_event_unregister:blk_idle <- [DW_OP_plus_uconst 80, DW_OP_stack_value] $x23
	//DEBUG_VALUE: hisi_blk_busy_idle_event_unregister:lld <- $x23
	.loc	2 113 17 is_stmt 1      // /mnt/disk/jenkins/workspace/chipset_10.1.0_release_5G/opensource/component_code/vendor/huawei/extra/build/build_script/kirin_kernel_release/kernel/block/hisi-blk-busy-idle-notify.c:113:17
	ldr	x8, [x21, #32]
	.loc	2 114 21                // /mnt/disk/jenkins/workspace/chipset_10.1.0_release_5G/opensource/component_code/vendor/huawei/extra/build/build_script/kirin_kernel_release/kernel/block/hisi-blk-busy-idle-notify.c:114:21
	ldr	x9, [x20, #128]
.Ltmp355:
	.loc	2 112 7                 // /mnt/disk/jenkins/workspace/chipset_10.1.0_release_5G/opensource/component_code/vendor/huawei/extra/build/build_script/kirin_kernel_release/kernel/block/hisi-blk-busy-idle-notify.c:112:7
	cmp	x8, x9
	b.ne	.LBB15_1
.Ltmp356:
// %bb.4:
	//DEBUG_VALUE: hisi_blk_busy_idle_event_unregister:notify_nb <- $x20
	//DEBUG_VALUE: hisi_blk_busy_idle_event_unregister:event_node <- $x21
	//DEBUG_VALUE: hisi_blk_busy_idle_event_unregister:blk_idle <- [DW_OP_plus_uconst 80, DW_OP_stack_value] $x23
	//DEBUG_VALUE: hisi_blk_busy_idle_event_unregister:lld <- $x23
	.loc	2 223 6                 // /mnt/disk/jenkins/workspace/chipset_10.1.0_release_5G/opensource/component_code/vendor/huawei/extra/build/build_script/kirin_kernel_release/kernel/block/hisi-blk-busy-idle-notify.c:223:6
	cbz	x20, .LBB15_6
.Ltmp357:
// %bb.5:
	//DEBUG_VALUE: hisi_blk_busy_idle_event_unregister:notify_nb <- $x20
	//DEBUG_VALUE: hisi_blk_busy_idle_event_unregister:event_node <- $x21
	//DEBUG_VALUE: hisi_blk_busy_idle_event_unregister:blk_idle <- [DW_OP_plus_uconst 80, DW_OP_stack_value] $x23
	//DEBUG_VALUE: hisi_blk_busy_idle_event_unregister:lld <- $x23
	.loc	2 233 15                // /mnt/disk/jenkins/workspace/chipset_10.1.0_release_5G/opensource/component_code/vendor/huawei/extra/build/build_script/kirin_kernel_release/kernel/block/hisi-blk-busy-idle-notify.c:233:15
	add	x21, x20, #72           // =72
.Ltmp358:
	.loc	2 232 14                // /mnt/disk/jenkins/workspace/chipset_10.1.0_release_5G/opensource/component_code/vendor/huawei/extra/build/build_script/kirin_kernel_release/kernel/block/hisi-blk-busy-idle-notify.c:232:14
	add	x0, x23, #208           // =208
	.loc	2 231 2                 // /mnt/disk/jenkins/workspace/chipset_10.1.0_release_5G/opensource/component_code/vendor/huawei/extra/build/build_script/kirin_kernel_release/kernel/block/hisi-blk-busy-idle-notify.c:231:2
	mov	x1, x21
	bl	blocking_notifier_chain_unregister
	.loc	2 234 2                 // /mnt/disk/jenkins/workspace/chipset_10.1.0_release_5G/opensource/component_code/vendor/huawei/extra/build/build_script/kirin_kernel_release/kernel/block/hisi-blk-busy-idle-notify.c:234:2
	adrp	x0, .L.str.41
	add	x0, x0, :lo12:.L.str.41
	mov	x1, x22
	mov	x2, x21
	bl	printk
.Ltmp359:
	//DEBUG_VALUE: __list_del_entry:entry <- $x20
	//DEBUG_VALUE: list_del_init:entry <- $x20
	.loc	140 120 33              // /mnt/disk/jenkins/workspace/chipset_10.1.0_release_5G/opensource/component_code/vendor/huawei/extra/build/build_script/kirin_kernel_release/kernel/include/linux/list.h:120:33
	ldp	x8, x9, [x20]
.Ltmp360:
	//DEBUG_VALUE: __write_once_size:p <- undef
	//DEBUG_VALUE: __write_once_size:res <- undef
	//DEBUG_VALUE: __list_del:prev <- $x9
	//DEBUG_VALUE: __list_del:next <- $x8
	.loc	2 238 2                 // /mnt/disk/jenkins/workspace/chipset_10.1.0_release_5G/opensource/component_code/vendor/huawei/extra/build/build_script/kirin_kernel_release/kernel/block/hisi-blk-busy-idle-notify.c:238:2
	mov	x0, x20
.Ltmp361:
	.loc	140 105 13              // /mnt/disk/jenkins/workspace/chipset_10.1.0_release_5G/opensource/component_code/vendor/huawei/extra/build/build_script/kirin_kernel_release/kernel/include/linux/list.h:105:13
	str	x9, [x8, #8]
.Ltmp362:
	//DEBUG_VALUE: __write_once_size:res <- undef
	//DEBUG_VALUE: __write_once_size:size <- 8
	.loc	137 213 31              // /mnt/disk/jenkins/workspace/chipset_10.1.0_release_5G/opensource/component_code/vendor/huawei/extra/build/build_script/kirin_kernel_release/kernel/include/linux/compiler.h:213:31
	str	x8, [x9]
.Ltmp363:
	//DEBUG_VALUE: __write_once_size:p <- $x20
	//DEBUG_VALUE: __write_once_size:size <- 8
	//DEBUG_VALUE: INIT_LIST_HEAD:list <- $x20
	.loc	137 213 31 is_stmt 0    // /mnt/disk/jenkins/workspace/chipset_10.1.0_release_5G/opensource/component_code/vendor/huawei/extra/build/build_script/kirin_kernel_release/kernel/include/linux/compiler.h:213:31
	str	x20, [x20]
.Ltmp364:
	.loc	140 29 13 is_stmt 1     // /mnt/disk/jenkins/workspace/chipset_10.1.0_release_5G/opensource/component_code/vendor/huawei/extra/build/build_script/kirin_kernel_release/kernel/include/linux/list.h:29:13
	str	x20, [x20, #8]
.Ltmp365:
	.loc	2 238 2                 // /mnt/disk/jenkins/workspace/chipset_10.1.0_release_5G/opensource/component_code/vendor/huawei/extra/build/build_script/kirin_kernel_release/kernel/block/hisi-blk-busy-idle-notify.c:238:2
	bl	kfree
.Ltmp366:
	.loc	2 0 0 is_stmt 0         // /mnt/disk/jenkins/workspace/chipset_10.1.0_release_5G/opensource/component_code/vendor/huawei/extra/build/build_script/kirin_kernel_release/kernel/block/hisi-blk-busy-idle-notify.c:0:0
	mov	w20, wzr
.Ltmp367:
	b	.LBB15_7
.Ltmp368:
.LBB15_6:
	//DEBUG_VALUE: hisi_blk_busy_idle_event_unregister:event_node <- $x21
	//DEBUG_VALUE: hisi_blk_busy_idle_event_unregister:blk_idle <- [DW_OP_plus_uconst 80, DW_OP_stack_value] $x23
	//DEBUG_VALUE: hisi_blk_busy_idle_event_unregister:lld <- $x23
	.loc	2 224 3 is_stmt 1       // /mnt/disk/jenkins/workspace/chipset_10.1.0_release_5G/opensource/component_code/vendor/huawei/extra/build/build_script/kirin_kernel_release/kernel/block/hisi-blk-busy-idle-notify.c:224:3
	adrp	x0, .L.str.40
	adrp	x1, .L__func__.hisi_blk_busy_idle_event_unregister
	add	x0, x0, :lo12:.L.str.40
	add	x1, x1, :lo12:.L__func__.hisi_blk_busy_idle_event_unregister
	mov	w2, #225
	bl	printk
	.loc	2 226 3                 // /mnt/disk/jenkins/workspace/chipset_10.1.0_release_5G/opensource/component_code/vendor/huawei/extra/build/build_script/kirin_kernel_release/kernel/block/hisi-blk-busy-idle-notify.c:226:3
	bl	dump_stack
	mov	w20, #-22
.Ltmp369:
	//DEBUG_VALUE: hisi_blk_busy_idle_event_unregister:ret <- -22
.LBB15_7:
	//DEBUG_VALUE: hisi_blk_busy_idle_event_unregister:blk_idle <- [DW_OP_plus_uconst 80, DW_OP_stack_value] $x23
	//DEBUG_VALUE: hisi_blk_busy_idle_event_unregister:lld <- $x23
	//DEBUG_VALUE: hisi_blk_busy_idle_event_unregister:ret <- $w20
	.loc	2 241 2                 // /mnt/disk/jenkins/workspace/chipset_10.1.0_release_5G/opensource/component_code/vendor/huawei/extra/build/build_script/kirin_kernel_release/kernel/block/hisi-blk-busy-idle-notify.c:241:2
	mov	x0, x19
	bl	mutex_unlock
	.loc	2 242 2                 // /mnt/disk/jenkins/workspace/chipset_10.1.0_release_5G/opensource/component_code/vendor/huawei/extra/build/build_script/kirin_kernel_release/kernel/block/hisi-blk-busy-idle-notify.c:242:2
	mov	w0, w20
	ldp	x29, x30, [sp, #48]     // 16-byte Folded Reload
	ldp	x20, x19, [sp, #32]     // 16-byte Folded Reload
.Ltmp370:
	ldp	x22, x21, [sp, #16]     // 16-byte Folded Reload
	ldp	x24, x23, [sp], #64     // 16-byte Folded Reload
.Ltmp371:
	ret
.Ltmp372:
.Lfunc_end15:
	.size	hisi_blk_busy_idle_event_unregister, .Lfunc_end15-hisi_blk_busy_idle_event_unregister
	.cfi_endproc
                                        // -- End function
	.section	.text.blk_queue_busy_idle_event_unsubscriber,"ax",@progbits
	.hidden	blk_queue_busy_idle_event_unsubscriber // -- Begin function blk_queue_busy_idle_event_unsubscriber
	.globl	blk_queue_busy_idle_event_unsubscriber
	.p2align	2
	.type	blk_queue_busy_idle_event_unsubscriber,@function
blk_queue_busy_idle_event_unsubscriber: // @blk_queue_busy_idle_event_unsubscriber
.Lfunc_begin16:
	.loc	2 604 0                 // /mnt/disk/jenkins/workspace/chipset_10.1.0_release_5G/opensource/component_code/vendor/huawei/extra/build/build_script/kirin_kernel_release/kernel/block/hisi-blk-busy-idle-notify.c:604:0
	.cfi_startproc
// %bb.0:
	stp	x29, x30, [sp, #-16]!   // 16-byte Folded Spill
	mov	x29, sp
	.cfi_def_cfa w29, 16
	.cfi_offset w30, -8
	.cfi_offset w29, -16
	//DEBUG_VALUE: blk_queue_busy_idle_event_unsubscriber:event_node <- $x0
	//DEBUG_VALUE: blk_queue_busy_idle_event_unsubscriber:event_node <- $x0
	//DEBUG_VALUE: blk_queue_busy_idle_event_unsubscriber:event_node <- $x0
.Ltmp373:
	.loc	2 605 9 prologue_end    // /mnt/disk/jenkins/workspace/chipset_10.1.0_release_5G/opensource/component_code/vendor/huawei/extra/build/build_script/kirin_kernel_release/kernel/block/hisi-blk-busy-idle-notify.c:605:9
	bl	hisi_blk_busy_idle_event_unregister
.Ltmp374:
	.loc	2 605 2 is_stmt 0       // /mnt/disk/jenkins/workspace/chipset_10.1.0_release_5G/opensource/component_code/vendor/huawei/extra/build/build_script/kirin_kernel_release/kernel/block/hisi-blk-busy-idle-notify.c:605:2
	ldp	x29, x30, [sp], #16     // 16-byte Folded Reload
	ret
.Ltmp375:
.Lfunc_end16:
	.size	blk_queue_busy_idle_event_unsubscriber, .Lfunc_end16-blk_queue_busy_idle_event_unsubscriber
	.cfi_endproc
                                        // -- End function
	.section	.text.blk_queue_busy_idle_enable,"ax",@progbits
	.hidden	blk_queue_busy_idle_enable // -- Begin function blk_queue_busy_idle_enable
	.globl	blk_queue_busy_idle_enable
	.p2align	2
	.type	blk_queue_busy_idle_enable,@function
blk_queue_busy_idle_enable:             // @blk_queue_busy_idle_enable
.Lfunc_begin17:
	.loc	2 613 0 is_stmt 1       // /mnt/disk/jenkins/workspace/chipset_10.1.0_release_5G/opensource/component_code/vendor/huawei/extra/build/build_script/kirin_kernel_release/kernel/block/hisi-blk-busy-idle-notify.c:613:0
	.cfi_startproc
// %bb.0:
	str	x19, [sp, #-32]!        // 8-byte Folded Spill
	stp	x29, x30, [sp, #16]     // 16-byte Folded Spill
	add	x29, sp, #16            // =16
	.cfi_def_cfa w29, 16
	.cfi_offset w30, -8
	.cfi_offset w29, -16
	.cfi_offset w19, -32
	//DEBUG_VALUE: blk_queue_busy_idle_enable:q <- $x0
	//DEBUG_VALUE: blk_queue_busy_idle_enable:enable <- $w1
	mov	w19, w1
.Ltmp376:
	//DEBUG_VALUE: blk_queue_busy_idle_enable:enable <- $w19
	//DEBUG_VALUE: blk_queue_busy_idle_enable:q <- $x0
	//DEBUG_VALUE: blk_queue_busy_idle_enable:q <- $x0
	.loc	2 614 32 prologue_end   // /mnt/disk/jenkins/workspace/chipset_10.1.0_release_5G/opensource/component_code/vendor/huawei/extra/build/build_script/kirin_kernel_release/kernel/block/hisi-blk-busy-idle-notify.c:614:32
	bl	hisi_blk_get_lld
.Ltmp377:
	//DEBUG_VALUE: blk_queue_busy_idle_enable:blk_lld <- $x0
	.loc	2 0 0 is_stmt 0         // /mnt/disk/jenkins/workspace/chipset_10.1.0_release_5G/opensource/component_code/vendor/huawei/extra/build/build_script/kirin_kernel_release/kernel/block/hisi-blk-busy-idle-notify.c:0:0
	ldr	x8, [x0, #24]
.Ltmp378:
	.loc	2 616 6 is_stmt 1       // /mnt/disk/jenkins/workspace/chipset_10.1.0_release_5G/opensource/component_code/vendor/huawei/extra/build/build_script/kirin_kernel_release/kernel/block/hisi-blk-busy-idle-notify.c:616:6
	cmp	w19, #0                 // =0
	and	x9, x8, #0xfffffffffffffff7
	orr	x8, x8, #0x8
	csel	x8, x9, x8, eq
.Ltmp379:
	.loc	2 0 0 is_stmt 0         // /mnt/disk/jenkins/workspace/chipset_10.1.0_release_5G/opensource/component_code/vendor/huawei/extra/build/build_script/kirin_kernel_release/kernel/block/hisi-blk-busy-idle-notify.c:0:0
	str	x8, [x0, #24]
.Ltmp380:
	.loc	2 620 1 is_stmt 1       // /mnt/disk/jenkins/workspace/chipset_10.1.0_release_5G/opensource/component_code/vendor/huawei/extra/build/build_script/kirin_kernel_release/kernel/block/hisi-blk-busy-idle-notify.c:620:1
	ldp	x29, x30, [sp, #16]     // 16-byte Folded Reload
	ldr	x19, [sp], #32          // 8-byte Folded Reload
.Ltmp381:
	ret
.Ltmp382:
.Lfunc_end17:
	.size	blk_queue_busy_idle_enable, .Lfunc_end17-blk_queue_busy_idle_enable
	.cfi_endproc
                                        // -- End function
	.section	.text.blk_mq_tagset_busy_idle_enable,"ax",@progbits
	.hidden	blk_mq_tagset_busy_idle_enable // -- Begin function blk_mq_tagset_busy_idle_enable
	.globl	blk_mq_tagset_busy_idle_enable
	.p2align	2
	.type	blk_mq_tagset_busy_idle_enable,@function
blk_mq_tagset_busy_idle_enable:         // @blk_mq_tagset_busy_idle_enable
.Lfunc_begin18:
	.loc	2 627 0                 // /mnt/disk/jenkins/workspace/chipset_10.1.0_release_5G/opensource/component_code/vendor/huawei/extra/build/build_script/kirin_kernel_release/kernel/block/hisi-blk-busy-idle-notify.c:627:0
	.cfi_startproc
// %bb.0:
	//DEBUG_VALUE: blk_mq_tagset_busy_idle_enable:tag_set <- $x0
	//DEBUG_VALUE: blk_mq_tagset_busy_idle_enable:tag_set <- $x0
	//DEBUG_VALUE: blk_mq_tagset_busy_idle_enable:enable <- $w1
	//DEBUG_VALUE: blk_mq_tagset_busy_idle_enable:enable <- $w1
	//DEBUG_VALUE: blk_mq_tagset_busy_idle_enable:blk_lld <- [DW_OP_plus_uconst 16, DW_OP_stack_value] $x0
	//DEBUG_VALUE: blk_mq_tagset_busy_idle_enable:blk_lld <- [DW_OP_plus_uconst 16, DW_OP_stack_value] $x0
	.loc	2 0 0 prologue_end      // /mnt/disk/jenkins/workspace/chipset_10.1.0_release_5G/opensource/component_code/vendor/huawei/extra/build/build_script/kirin_kernel_release/kernel/block/hisi-blk-busy-idle-notify.c:0:0
	ldr	x8, [x0, #40]
.Ltmp383:
	.loc	2 630 6                 // /mnt/disk/jenkins/workspace/chipset_10.1.0_release_5G/opensource/component_code/vendor/huawei/extra/build/build_script/kirin_kernel_release/kernel/block/hisi-blk-busy-idle-notify.c:630:6
	cmp	w1, #0                  // =0
	and	x9, x8, #0xfffffffffffffff7
	orr	x8, x8, #0x8
	csel	x8, x9, x8, eq
.Ltmp384:
	.loc	2 0 0 is_stmt 0         // /mnt/disk/jenkins/workspace/chipset_10.1.0_release_5G/opensource/component_code/vendor/huawei/extra/build/build_script/kirin_kernel_release/kernel/block/hisi-blk-busy-idle-notify.c:0:0
	str	x8, [x0, #40]
.Ltmp385:
	.loc	2 634 1 is_stmt 1       // /mnt/disk/jenkins/workspace/chipset_10.1.0_release_5G/opensource/component_code/vendor/huawei/extra/build/build_script/kirin_kernel_release/kernel/block/hisi-blk-busy-idle-notify.c:634:1
	ret
.Ltmp386:
.Lfunc_end18:
	.size	blk_mq_tagset_busy_idle_enable, .Lfunc_end18-blk_mq_tagset_busy_idle_enable
	.cfi_endproc
                                        // -- End function
	.section	.text.blk_mq_tagset_hw_idle_notify_enable,"ax",@progbits
	.hidden	blk_mq_tagset_hw_idle_notify_enable // -- Begin function blk_mq_tagset_hw_idle_notify_enable
	.globl	blk_mq_tagset_hw_idle_notify_enable
	.p2align	2
	.type	blk_mq_tagset_hw_idle_notify_enable,@function
blk_mq_tagset_hw_idle_notify_enable:    // @blk_mq_tagset_hw_idle_notify_enable
.Lfunc_begin19:
	.loc	2 642 0                 // /mnt/disk/jenkins/workspace/chipset_10.1.0_release_5G/opensource/component_code/vendor/huawei/extra/build/build_script/kirin_kernel_release/kernel/block/hisi-blk-busy-idle-notify.c:642:0
	.cfi_startproc
// %bb.0:
	//DEBUG_VALUE: blk_mq_tagset_hw_idle_notify_enable:tag_set <- $x0
	//DEBUG_VALUE: blk_mq_tagset_hw_idle_notify_enable:tag_set <- $x0
	//DEBUG_VALUE: blk_mq_tagset_hw_idle_notify_enable:enable <- $w1
	//DEBUG_VALUE: blk_mq_tagset_hw_idle_notify_enable:enable <- $w1
	//DEBUG_VALUE: blk_mq_tagset_hw_idle_notify_enable:blk_lld <- [DW_OP_plus_uconst 16, DW_OP_stack_value] $x0
	//DEBUG_VALUE: blk_mq_tagset_hw_idle_notify_enable:blk_lld <- [DW_OP_plus_uconst 16, DW_OP_stack_value] $x0
	.loc	2 645 41 prologue_end   // /mnt/disk/jenkins/workspace/chipset_10.1.0_release_5G/opensource/component_code/vendor/huawei/extra/build/build_script/kirin_kernel_release/kernel/block/hisi-blk-busy-idle-notify.c:645:41
	cmp	w1, #0                  // =0
	cset	w8, ne
	.loc	2 645 38 is_stmt 0      // /mnt/disk/jenkins/workspace/chipset_10.1.0_release_5G/opensource/component_code/vendor/huawei/extra/build/build_script/kirin_kernel_release/kernel/block/hisi-blk-busy-idle-notify.c:645:38
	strb	w8, [x0, #96]
	.loc	2 646 1 is_stmt 1       // /mnt/disk/jenkins/workspace/chipset_10.1.0_release_5G/opensource/component_code/vendor/huawei/extra/build/build_script/kirin_kernel_release/kernel/block/hisi-blk-busy-idle-notify.c:646:1
	ret
.Ltmp387:
.Lfunc_end19:
	.size	blk_mq_tagset_hw_idle_notify_enable, .Lfunc_end19-blk_mq_tagset_hw_idle_notify_enable
	.cfi_endproc
                                        // -- End function
	.section	.text.hisi_queue_busy_idle_enable_store,"ax",@progbits
	.hidden	hisi_queue_busy_idle_enable_store // -- Begin function hisi_queue_busy_idle_enable_store
	.globl	hisi_queue_busy_idle_enable_store
	.p2align	2
	.type	hisi_queue_busy_idle_enable_store,@function
hisi_queue_busy_idle_enable_store:      // @hisi_queue_busy_idle_enable_store
.Lfunc_begin20:
	.loc	2 651 0                 // /mnt/disk/jenkins/workspace/chipset_10.1.0_release_5G/opensource/component_code/vendor/huawei/extra/build/build_script/kirin_kernel_release/kernel/block/hisi-blk-busy-idle-notify.c:651:0
	.cfi_startproc
// %bb.0:
	sub	sp, sp, #48             // =48
	stp	x20, x19, [sp, #16]     // 16-byte Folded Spill
	stp	x29, x30, [sp, #32]     // 16-byte Folded Spill
	add	x29, sp, #32            // =32
	.cfi_def_cfa w29, 16
	.cfi_offset w30, -8
	.cfi_offset w29, -16
	.cfi_offset w19, -24
	.cfi_offset w20, -32
	//DEBUG_VALUE: hisi_queue_busy_idle_enable_store:q <- $x0
	//DEBUG_VALUE: hisi_queue_busy_idle_enable_store:page <- $x1
	//DEBUG_VALUE: hisi_queue_busy_idle_enable_store:count <- $x2
.Ltmp388:
	//DEBUG_VALUE: blk_queue_busy_idle_enable:q <- $x0
	//DEBUG_VALUE: blk_queue_busy_idle_enable:q <- $x0
	adrp	x8, __stack_chk_guard
	ldr	x8, [x8, :lo12:__stack_chk_guard]
	mov	x20, x0
.Ltmp389:
	//DEBUG_VALUE: blk_queue_busy_idle_enable:q <- $x20
	//DEBUG_VALUE: blk_queue_busy_idle_enable:q <- $x20
	.loc	2 655 8 prologue_end    // /mnt/disk/jenkins/workspace/chipset_10.1.0_release_5G/opensource/component_code/vendor/huawei/extra/build/build_script/kirin_kernel_release/kernel/block/hisi-blk-busy-idle-notify.c:655:8
	mov	x0, sp
.Ltmp390:
	//DEBUG_VALUE: hisi_queue_busy_idle_enable_store:page <- $x1
	.loc	2 0 8 is_stmt 0         // /mnt/disk/jenkins/workspace/chipset_10.1.0_release_5G/opensource/component_code/vendor/huawei/extra/build/build_script/kirin_kernel_release/kernel/block/hisi-blk-busy-idle-notify.c:0:8
	mov	x19, x2
	str	x8, [sp, #8]
.Ltmp391:
	//DEBUG_VALUE: hisi_queue_busy_idle_enable_store:count <- $x19
	//DEBUG_VALUE: hisi_queue_busy_idle_enable_store:page <- $x1
	//DEBUG_VALUE: hisi_queue_busy_idle_enable_store:q <- $x20
	//DEBUG_VALUE: hisi_queue_busy_idle_enable_store:val <- [DW_OP_deref] $sp
	.loc	2 655 8                 // /mnt/disk/jenkins/workspace/chipset_10.1.0_release_5G/opensource/component_code/vendor/huawei/extra/build/build_script/kirin_kernel_release/kernel/block/hisi-blk-busy-idle-notify.c:655:8
	bl	queue_var_store
.Ltmp392:
	//DEBUG_VALUE: hisi_queue_busy_idle_enable_store:ret <- $x0
	.loc	2 656 17 is_stmt 1      // /mnt/disk/jenkins/workspace/chipset_10.1.0_release_5G/opensource/component_code/vendor/huawei/extra/build/build_script/kirin_kernel_release/kernel/block/hisi-blk-busy-idle-notify.c:656:17
	tbnz	x0, #63, .LBB20_3
.Ltmp393:
// %bb.1:
	//DEBUG_VALUE: hisi_queue_busy_idle_enable_store:ret <- $x0
	//DEBUG_VALUE: hisi_queue_busy_idle_enable_store:val <- [DW_OP_deref] $sp
	//DEBUG_VALUE: hisi_queue_busy_idle_enable_store:q <- $x20
	//DEBUG_VALUE: hisi_queue_busy_idle_enable_store:count <- $x19
	.loc	2 0 0 is_stmt 0         // /mnt/disk/jenkins/workspace/chipset_10.1.0_release_5G/opensource/component_code/vendor/huawei/extra/build/build_script/kirin_kernel_release/kernel/block/hisi-blk-busy-idle-notify.c:0:0
	ldr	x8, [sp]
.Ltmp394:
	//DEBUG_VALUE: hisi_queue_busy_idle_enable_store:val <- $x8
	.loc	2 656 17                // /mnt/disk/jenkins/workspace/chipset_10.1.0_release_5G/opensource/component_code/vendor/huawei/extra/build/build_script/kirin_kernel_release/kernel/block/hisi-blk-busy-idle-notify.c:656:17
	cbz	x8, .LBB20_3
.Ltmp395:
// %bb.2:
	//DEBUG_VALUE: hisi_queue_busy_idle_enable_store:val <- $x8
	//DEBUG_VALUE: hisi_queue_busy_idle_enable_store:ret <- $x0
	//DEBUG_VALUE: hisi_queue_busy_idle_enable_store:q <- $x20
	//DEBUG_VALUE: hisi_queue_busy_idle_enable_store:count <- $x19
	.loc	2 657 3 is_stmt 1       // /mnt/disk/jenkins/workspace/chipset_10.1.0_release_5G/opensource/component_code/vendor/huawei/extra/build/build_script/kirin_kernel_release/kernel/block/hisi-blk-busy-idle-notify.c:657:3
	adrp	x0, .L.str.10
.Ltmp396:
	adrp	x1, .L__func__.hisi_queue_busy_idle_enable_store
	add	x0, x0, :lo12:.L.str.10
	add	x1, x1, :lo12:.L__func__.hisi_queue_busy_idle_enable_store
	bl	printk
.Ltmp397:
	//DEBUG_VALUE: blk_queue_busy_idle_enable:enable <- 1
	.loc	2 614 32                // /mnt/disk/jenkins/workspace/chipset_10.1.0_release_5G/opensource/component_code/vendor/huawei/extra/build/build_script/kirin_kernel_release/kernel/block/hisi-blk-busy-idle-notify.c:614:32
	mov	x0, x20
	bl	hisi_blk_get_lld
.Ltmp398:
	//DEBUG_VALUE: blk_queue_busy_idle_enable:blk_lld <- $x0
	.loc	2 0 0 is_stmt 0         // /mnt/disk/jenkins/workspace/chipset_10.1.0_release_5G/opensource/component_code/vendor/huawei/extra/build/build_script/kirin_kernel_release/kernel/block/hisi-blk-busy-idle-notify.c:0:0
	ldr	x8, [x0, #24]
.Ltmp399:
	.loc	2 616 6 is_stmt 1       // /mnt/disk/jenkins/workspace/chipset_10.1.0_release_5G/opensource/component_code/vendor/huawei/extra/build/build_script/kirin_kernel_release/kernel/block/hisi-blk-busy-idle-notify.c:616:6
	orr	x8, x8, #0x8
	b	.LBB20_4
.Ltmp400:
.LBB20_3:
	//DEBUG_VALUE: hisi_queue_busy_idle_enable_store:ret <- $x0
	//DEBUG_VALUE: hisi_queue_busy_idle_enable_store:q <- $x20
	//DEBUG_VALUE: hisi_queue_busy_idle_enable_store:count <- $x19
	.loc	2 660 3                 // /mnt/disk/jenkins/workspace/chipset_10.1.0_release_5G/opensource/component_code/vendor/huawei/extra/build/build_script/kirin_kernel_release/kernel/block/hisi-blk-busy-idle-notify.c:660:3
	adrp	x0, .L.str.11
.Ltmp401:
	adrp	x1, .L__func__.hisi_queue_busy_idle_enable_store
	add	x0, x0, :lo12:.L.str.11
	add	x1, x1, :lo12:.L__func__.hisi_queue_busy_idle_enable_store
	bl	printk
.Ltmp402:
	//DEBUG_VALUE: blk_queue_busy_idle_enable:enable <- 0
	.loc	2 614 32                // /mnt/disk/jenkins/workspace/chipset_10.1.0_release_5G/opensource/component_code/vendor/huawei/extra/build/build_script/kirin_kernel_release/kernel/block/hisi-blk-busy-idle-notify.c:614:32
	mov	x0, x20
	bl	hisi_blk_get_lld
.Ltmp403:
	//DEBUG_VALUE: blk_queue_busy_idle_enable:blk_lld <- $x0
	.loc	2 0 0 is_stmt 0         // /mnt/disk/jenkins/workspace/chipset_10.1.0_release_5G/opensource/component_code/vendor/huawei/extra/build/build_script/kirin_kernel_release/kernel/block/hisi-blk-busy-idle-notify.c:0:0
	ldr	x8, [x0, #24]
.Ltmp404:
	.loc	2 616 6 is_stmt 1       // /mnt/disk/jenkins/workspace/chipset_10.1.0_release_5G/opensource/component_code/vendor/huawei/extra/build/build_script/kirin_kernel_release/kernel/block/hisi-blk-busy-idle-notify.c:616:6
	and	x8, x8, #0xfffffffffffffff7
.Ltmp405:
.LBB20_4:
	//DEBUG_VALUE: hisi_queue_busy_idle_enable_store:q <- $x20
	//DEBUG_VALUE: hisi_queue_busy_idle_enable_store:count <- $x19
	.loc	2 0 0 is_stmt 0         // /mnt/disk/jenkins/workspace/chipset_10.1.0_release_5G/opensource/component_code/vendor/huawei/extra/build/build_script/kirin_kernel_release/kernel/block/hisi-blk-busy-idle-notify.c:0:0
	str	x8, [x0, #24]
	adrp	x9, __stack_chk_guard
	ldr	x8, [sp, #8]
	ldr	x9, [x9, :lo12:__stack_chk_guard]
	cmp	x9, x8
	b.ne	.LBB20_6
.Ltmp406:
// %bb.5:
	//DEBUG_VALUE: hisi_queue_busy_idle_enable_store:q <- $x20
	//DEBUG_VALUE: hisi_queue_busy_idle_enable_store:count <- $x19
	.loc	2 663 2 is_stmt 1       // /mnt/disk/jenkins/workspace/chipset_10.1.0_release_5G/opensource/component_code/vendor/huawei/extra/build/build_script/kirin_kernel_release/kernel/block/hisi-blk-busy-idle-notify.c:663:2
	mov	x0, x19
	ldp	x29, x30, [sp, #32]     // 16-byte Folded Reload
	ldp	x20, x19, [sp, #16]     // 16-byte Folded Reload
.Ltmp407:
	add	sp, sp, #48             // =48
	ret
.Ltmp408:
.LBB20_6:
	//DEBUG_VALUE: hisi_queue_busy_idle_enable_store:q <- $x20
	//DEBUG_VALUE: hisi_queue_busy_idle_enable_store:count <- $x19
	.loc	2 0 2 is_stmt 0         // /mnt/disk/jenkins/workspace/chipset_10.1.0_release_5G/opensource/component_code/vendor/huawei/extra/build/build_script/kirin_kernel_release/kernel/block/hisi-blk-busy-idle-notify.c:0:2
	bl	__stack_chk_fail
.Lfunc_end20:
	.size	hisi_queue_busy_idle_enable_store, .Lfunc_end20-hisi_queue_busy_idle_enable_store
	.cfi_endproc
                                        // -- End function
	.section	.text.hisi_queue_busy_idle_statistic_reset_store,"ax",@progbits
	.hidden	hisi_queue_busy_idle_statistic_reset_store // -- Begin function hisi_queue_busy_idle_statistic_reset_store
	.globl	hisi_queue_busy_idle_statistic_reset_store
	.p2align	2
	.type	hisi_queue_busy_idle_statistic_reset_store,@function
hisi_queue_busy_idle_statistic_reset_store: // @hisi_queue_busy_idle_statistic_reset_store
.Lfunc_begin21:
	.loc	2 668 0 is_stmt 1       // /mnt/disk/jenkins/workspace/chipset_10.1.0_release_5G/opensource/component_code/vendor/huawei/extra/build/build_script/kirin_kernel_release/kernel/block/hisi-blk-busy-idle-notify.c:668:0
	.cfi_startproc
// %bb.0:
	sub	sp, sp, #64             // =64
	str	x21, [sp, #16]          // 8-byte Folded Spill
	stp	x20, x19, [sp, #32]     // 16-byte Folded Spill
	stp	x29, x30, [sp, #48]     // 16-byte Folded Spill
	add	x29, sp, #48            // =48
	.cfi_def_cfa w29, 16
	.cfi_offset w30, -8
	.cfi_offset w29, -16
	.cfi_offset w19, -24
	.cfi_offset w20, -32
	.cfi_offset w21, -48
	//DEBUG_VALUE: hisi_queue_busy_idle_statistic_reset_store:q <- $x0
	//DEBUG_VALUE: hisi_queue_busy_idle_statistic_reset_store:page <- $x1
	//DEBUG_VALUE: hisi_queue_busy_idle_statistic_reset_store:count <- $x2
	adrp	x8, __stack_chk_guard
	ldr	x8, [x8, :lo12:__stack_chk_guard]
	mov	x19, x2
	mov	x21, x1
	str	x8, [sp, #8]
.Ltmp409:
	//DEBUG_VALUE: hisi_queue_busy_idle_statistic_reset_store:count <- $x19
	//DEBUG_VALUE: hisi_queue_busy_idle_statistic_reset_store:page <- $x21
	//DEBUG_VALUE: hisi_queue_busy_idle_statistic_reset_store:q <- $x0
	//DEBUG_VALUE: hisi_queue_busy_idle_statistic_reset_store:q <- $x0
	.loc	2 671 28 prologue_end   // /mnt/disk/jenkins/workspace/chipset_10.1.0_release_5G/opensource/component_code/vendor/huawei/extra/build/build_script/kirin_kernel_release/kernel/block/hisi-blk-busy-idle-notify.c:671:28
	bl	hisi_blk_get_lld
.Ltmp410:
	mov	x20, x0
.Ltmp411:
	//DEBUG_VALUE: hisi_queue_busy_idle_statistic_reset_store:lld <- $x20
	//DEBUG_VALUE: hisi_queue_busy_idle_statistic_reset_store:val <- [DW_OP_deref] $sp
	.loc	2 673 8                 // /mnt/disk/jenkins/workspace/chipset_10.1.0_release_5G/opensource/component_code/vendor/huawei/extra/build/build_script/kirin_kernel_release/kernel/block/hisi-blk-busy-idle-notify.c:673:8
	mov	x0, sp
	mov	x1, x21
.Ltmp412:
	//DEBUG_VALUE: hisi_queue_busy_idle_statistic_reset_store:page <- $x1
	mov	x2, x19
	bl	queue_var_store
.Ltmp413:
	//DEBUG_VALUE: hisi_queue_busy_idle_statistic_reset_store:ret <- $x0
	.loc	2 674 17                // /mnt/disk/jenkins/workspace/chipset_10.1.0_release_5G/opensource/component_code/vendor/huawei/extra/build/build_script/kirin_kernel_release/kernel/block/hisi-blk-busy-idle-notify.c:674:17
	tbnz	x0, #63, .LBB21_3
.Ltmp414:
// %bb.1:
	//DEBUG_VALUE: hisi_queue_busy_idle_statistic_reset_store:ret <- $x0
	//DEBUG_VALUE: hisi_queue_busy_idle_statistic_reset_store:val <- [DW_OP_deref] $sp
	//DEBUG_VALUE: hisi_queue_busy_idle_statistic_reset_store:lld <- $x20
	//DEBUG_VALUE: hisi_queue_busy_idle_statistic_reset_store:count <- $x19
	.loc	2 0 0 is_stmt 0         // /mnt/disk/jenkins/workspace/chipset_10.1.0_release_5G/opensource/component_code/vendor/huawei/extra/build/build_script/kirin_kernel_release/kernel/block/hisi-blk-busy-idle-notify.c:0:0
	ldr	x8, [sp]
.Ltmp415:
	//DEBUG_VALUE: hisi_queue_busy_idle_statistic_reset_store:val <- $x8
	.loc	2 674 17                // /mnt/disk/jenkins/workspace/chipset_10.1.0_release_5G/opensource/component_code/vendor/huawei/extra/build/build_script/kirin_kernel_release/kernel/block/hisi-blk-busy-idle-notify.c:674:17
	cbz	x8, .LBB21_3
.Ltmp416:
// %bb.2:
	//DEBUG_VALUE: hisi_queue_busy_idle_statistic_reset_store:val <- $x8
	//DEBUG_VALUE: hisi_queue_busy_idle_statistic_reset_store:ret <- $x0
	//DEBUG_VALUE: hisi_queue_busy_idle_statistic_reset_store:lld <- $x20
	//DEBUG_VALUE: hisi_queue_busy_idle_statistic_reset_store:count <- $x19
	.loc	2 675 3 is_stmt 1       // /mnt/disk/jenkins/workspace/chipset_10.1.0_release_5G/opensource/component_code/vendor/huawei/extra/build/build_script/kirin_kernel_release/kernel/block/hisi-blk-busy-idle-notify.c:675:3
	adrp	x0, .L.str.12
.Ltmp417:
	adrp	x1, .L__func__.hisi_queue_busy_idle_statistic_reset_store
	add	x0, x0, :lo12:.L.str.12
	add	x1, x1, :lo12:.L__func__.hisi_queue_busy_idle_statistic_reset_store
	bl	printk
.Ltmp418:
	.loc	2 677 34                // /mnt/disk/jenkins/workspace/chipset_10.1.0_release_5G/opensource/component_code/vendor/huawei/extra/build/build_script/kirin_kernel_release/kernel/block/hisi-blk-busy-idle-notify.c:677:34
	stp	xzr, xzr, [x20, #392]
	str	xzr, [x20, #384]
	.loc	2 680 3                 // /mnt/disk/jenkins/workspace/chipset_10.1.0_release_5G/opensource/component_code/vendor/huawei/extra/build/build_script/kirin_kernel_release/kernel/block/hisi-blk-busy-idle-notify.c:680:3
	str	xzr, [x20, #552]
	str	xzr, [x20, #544]
	str	xzr, [x20, #536]
	str	xzr, [x20, #528]
	str	xzr, [x20, #520]
	stp	xzr, xzr, [x20, #504]
	stp	xzr, xzr, [x20, #488]
	str	xzr, [x20, #480]
.Ltmp419:
.LBB21_3:
	//DEBUG_VALUE: hisi_queue_busy_idle_statistic_reset_store:lld <- $x20
	//DEBUG_VALUE: hisi_queue_busy_idle_statistic_reset_store:count <- $x19
	.loc	2 0 3 is_stmt 0         // /mnt/disk/jenkins/workspace/chipset_10.1.0_release_5G/opensource/component_code/vendor/huawei/extra/build/build_script/kirin_kernel_release/kernel/block/hisi-blk-busy-idle-notify.c:0:3
	adrp	x9, __stack_chk_guard
	ldr	x8, [sp, #8]
	ldr	x9, [x9, :lo12:__stack_chk_guard]
	cmp	x9, x8
	b.ne	.LBB21_5
.Ltmp420:
// %bb.4:
	//DEBUG_VALUE: hisi_queue_busy_idle_statistic_reset_store:lld <- $x20
	//DEBUG_VALUE: hisi_queue_busy_idle_statistic_reset_store:count <- $x19
	.loc	2 684 2 is_stmt 1       // /mnt/disk/jenkins/workspace/chipset_10.1.0_release_5G/opensource/component_code/vendor/huawei/extra/build/build_script/kirin_kernel_release/kernel/block/hisi-blk-busy-idle-notify.c:684:2
	mov	x0, x19
	ldp	x29, x30, [sp, #48]     // 16-byte Folded Reload
	ldp	x20, x19, [sp, #32]     // 16-byte Folded Reload
.Ltmp421:
	ldr	x21, [sp, #16]          // 8-byte Folded Reload
	add	sp, sp, #64             // =64
	ret
.Ltmp422:
.LBB21_5:
	//DEBUG_VALUE: hisi_queue_busy_idle_statistic_reset_store:lld <- $x20
	//DEBUG_VALUE: hisi_queue_busy_idle_statistic_reset_store:count <- $x19
	.loc	2 0 2 is_stmt 0         // /mnt/disk/jenkins/workspace/chipset_10.1.0_release_5G/opensource/component_code/vendor/huawei/extra/build/build_script/kirin_kernel_release/kernel/block/hisi-blk-busy-idle-notify.c:0:2
	bl	__stack_chk_fail
.Lfunc_end21:
	.size	hisi_queue_busy_idle_statistic_reset_store, .Lfunc_end21-hisi_queue_busy_idle_statistic_reset_store
	.cfi_endproc
                                        // -- End function
	.section	.text.hisi_queue_busy_idle_statistic_show,"ax",@progbits
	.hidden	hisi_queue_busy_idle_statistic_show // -- Begin function hisi_queue_busy_idle_statistic_show
	.globl	hisi_queue_busy_idle_statistic_show
	.p2align	2
	.type	hisi_queue_busy_idle_statistic_show,@function
hisi_queue_busy_idle_statistic_show:    // @hisi_queue_busy_idle_statistic_show
.Lfunc_begin22:
	.loc	2 688 0 is_stmt 1       // /mnt/disk/jenkins/workspace/chipset_10.1.0_release_5G/opensource/component_code/vendor/huawei/extra/build/build_script/kirin_kernel_release/kernel/block/hisi-blk-busy-idle-notify.c:688:0
	.cfi_startproc
// %bb.0:
	stp	x22, x21, [sp, #-48]!   // 16-byte Folded Spill
	stp	x20, x19, [sp, #16]     // 16-byte Folded Spill
	stp	x29, x30, [sp, #32]     // 16-byte Folded Spill
	add	x29, sp, #32            // =32
	.cfi_def_cfa w29, 16
	.cfi_offset w30, -8
	.cfi_offset w29, -16
	.cfi_offset w19, -24
	.cfi_offset w20, -32
	.cfi_offset w21, -40
	.cfi_offset w22, -48
	//DEBUG_VALUE: hisi_queue_busy_idle_statistic_show:q <- $x0
	//DEBUG_VALUE: hisi_queue_busy_idle_statistic_show:page <- $x1
	mov	x19, x1
.Ltmp423:
	//DEBUG_VALUE: hisi_queue_busy_idle_statistic_show:offset <- 0
	//DEBUG_VALUE: hisi_queue_busy_idle_statistic_show:page <- $x19
	//DEBUG_VALUE: hisi_queue_busy_idle_statistic_show:q <- $x0
	//DEBUG_VALUE: hisi_queue_busy_idle_statistic_show:q <- $x0
	.loc	2 690 28 prologue_end   // /mnt/disk/jenkins/workspace/chipset_10.1.0_release_5G/opensource/component_code/vendor/huawei/extra/build/build_script/kirin_kernel_release/kernel/block/hisi-blk-busy-idle-notify.c:690:28
	bl	hisi_blk_get_lld
.Ltmp424:
	.loc	2 695 29                // /mnt/disk/jenkins/workspace/chipset_10.1.0_release_5G/opensource/component_code/vendor/huawei/extra/build/build_script/kirin_kernel_release/kernel/block/hisi-blk-busy-idle-notify.c:695:29
	ldp	x8, x9, [x0, #384]
	mov	x10, #13531
	movk	x10, #55222, lsl #16
	movk	x10, #56962, lsl #32
	movk	x10, #17179, lsl #48
.Ltmp425:
	//DEBUG_VALUE: ktime_divns:div <- 1000000
	//DEBUG_VALUE: ktime_divns:kt <- $x8
	//DEBUG_VALUE: ktime_to_ms:kt <- $x8
	.loc	45 169 12               // /mnt/disk/jenkins/workspace/chipset_10.1.0_release_5G/opensource/component_code/vendor/huawei/extra/build/build_script/kirin_kernel_release/kernel/include/linux/ktime.h:169:12
	smulh	x8, x8, x10
.Ltmp426:
	//DEBUG_VALUE: ktime_divns:div <- 1000000
	//DEBUG_VALUE: ktime_divns:kt <- $x9
	//DEBUG_VALUE: ktime_to_ms:kt <- $x9
	.loc	45 169 12 is_stmt 0     // /mnt/disk/jenkins/workspace/chipset_10.1.0_release_5G/opensource/component_code/vendor/huawei/extra/build/build_script/kirin_kernel_release/kernel/include/linux/ktime.h:169:12
	smulh	x9, x9, x10
.Ltmp427:
	.loc	45 169 12               // /mnt/disk/jenkins/workspace/chipset_10.1.0_release_5G/opensource/component_code/vendor/huawei/extra/build/build_script/kirin_kernel_release/kernel/include/linux/ktime.h:169:12
	asr	x10, x8, #18
.Ltmp428:
	//DEBUG_VALUE: ktime_divns:div <- 1000000
	.loc	45 169 12               // /mnt/disk/jenkins/workspace/chipset_10.1.0_release_5G/opensource/component_code/vendor/huawei/extra/build/build_script/kirin_kernel_release/kernel/include/linux/ktime.h:169:12
	asr	x11, x9, #18
.Ltmp429:
	//DEBUG_VALUE: ktime_divns:div <- 1000000
	.loc	2 693 12 is_stmt 1      // /mnt/disk/jenkins/workspace/chipset_10.1.0_release_5G/opensource/component_code/vendor/huawei/extra/build/build_script/kirin_kernel_release/kernel/block/hisi-blk-busy-idle-notify.c:693:12
	adrp	x2, .L.str.13
	.loc	2 690 28                // /mnt/disk/jenkins/workspace/chipset_10.1.0_release_5G/opensource/component_code/vendor/huawei/extra/build/build_script/kirin_kernel_release/kernel/block/hisi-blk-busy-idle-notify.c:690:28
	mov	x20, x0
.Ltmp430:
	//DEBUG_VALUE: hisi_queue_busy_idle_statistic_show:blk_idle <- [DW_OP_plus_uconst 80, DW_OP_stack_value] $x20
	//DEBUG_VALUE: hisi_queue_busy_idle_statistic_show:lld <- $x20
	.loc	45 169 12               // /mnt/disk/jenkins/workspace/chipset_10.1.0_release_5G/opensource/component_code/vendor/huawei/extra/build/build_script/kirin_kernel_release/kernel/include/linux/ktime.h:169:12
	add	x3, x10, x8, lsr #63
.Ltmp431:
	//DEBUG_VALUE: ktime_divns:div <- 1000000
	.loc	45 169 12 is_stmt 0     // /mnt/disk/jenkins/workspace/chipset_10.1.0_release_5G/opensource/component_code/vendor/huawei/extra/build/build_script/kirin_kernel_release/kernel/include/linux/ktime.h:169:12
	add	x4, x11, x9, lsr #63
.Ltmp432:
	//DEBUG_VALUE: ktime_divns:div <- 1000000
	.loc	2 693 12 is_stmt 1      // /mnt/disk/jenkins/workspace/chipset_10.1.0_release_5G/opensource/component_code/vendor/huawei/extra/build/build_script/kirin_kernel_release/kernel/block/hisi-blk-busy-idle-notify.c:693:12
	add	x2, x2, :lo12:.L.str.13
	orr	w1, wzr, #0x1000
	mov	x0, x19
	orr	w21, wzr, #0x1000
	bl	snprintf
	.loc	2 698 48                // /mnt/disk/jenkins/workspace/chipset_10.1.0_release_5G/opensource/component_code/vendor/huawei/extra/build/build_script/kirin_kernel_release/kernel/block/hisi-blk-busy-idle-notify.c:698:48
	ldr	x3, [x20, #400]
                                        // kill: def $w0 killed $w0 def $x0
	.loc	2 693 12                // /mnt/disk/jenkins/workspace/chipset_10.1.0_release_5G/opensource/component_code/vendor/huawei/extra/build/build_script/kirin_kernel_release/kernel/block/hisi-blk-busy-idle-notify.c:693:12
	sxtw	x22, w0
.Ltmp433:
	//DEBUG_VALUE: hisi_queue_busy_idle_statistic_show:offset <- $x22
	.loc	2 697 12                // /mnt/disk/jenkins/workspace/chipset_10.1.0_release_5G/opensource/component_code/vendor/huawei/extra/build/build_script/kirin_kernel_release/kernel/block/hisi-blk-busy-idle-notify.c:697:12
	adrp	x2, .L.str.14
	.loc	2 697 26 is_stmt 0      // /mnt/disk/jenkins/workspace/chipset_10.1.0_release_5G/opensource/component_code/vendor/huawei/extra/build/build_script/kirin_kernel_release/kernel/block/hisi-blk-busy-idle-notify.c:697:26
	add	x0, x19, x22
	.loc	2 697 55                // /mnt/disk/jenkins/workspace/chipset_10.1.0_release_5G/opensource/component_code/vendor/huawei/extra/build/build_script/kirin_kernel_release/kernel/block/hisi-blk-busy-idle-notify.c:697:55
	sub	x1, x21, x22
	.loc	2 697 12                // /mnt/disk/jenkins/workspace/chipset_10.1.0_release_5G/opensource/component_code/vendor/huawei/extra/build/build_script/kirin_kernel_release/kernel/block/hisi-blk-busy-idle-notify.c:697:12
	add	x2, x2, :lo12:.L.str.14
	bl	snprintf
	.loc	2 697 9                 // /mnt/disk/jenkins/workspace/chipset_10.1.0_release_5G/opensource/component_code/vendor/huawei/extra/build/build_script/kirin_kernel_release/kernel/block/hisi-blk-busy-idle-notify.c:697:9
	add	x22, x22, w0, sxtw
.Ltmp434:
	//DEBUG_VALUE: hisi_queue_busy_idle_statistic_show:offset <- $x22
	.loc	2 699 12 is_stmt 1      // /mnt/disk/jenkins/workspace/chipset_10.1.0_release_5G/opensource/component_code/vendor/huawei/extra/build/build_script/kirin_kernel_release/kernel/block/hisi-blk-busy-idle-notify.c:699:12
	adrp	x2, .L.str.15
	.loc	2 699 26 is_stmt 0      // /mnt/disk/jenkins/workspace/chipset_10.1.0_release_5G/opensource/component_code/vendor/huawei/extra/build/build_script/kirin_kernel_release/kernel/block/hisi-blk-busy-idle-notify.c:699:26
	add	x0, x19, x22
	.loc	2 699 55                // /mnt/disk/jenkins/workspace/chipset_10.1.0_release_5G/opensource/component_code/vendor/huawei/extra/build/build_script/kirin_kernel_release/kernel/block/hisi-blk-busy-idle-notify.c:699:55
	sub	x1, x21, x22
	.loc	2 699 12                // /mnt/disk/jenkins/workspace/chipset_10.1.0_release_5G/opensource/component_code/vendor/huawei/extra/build/build_script/kirin_kernel_release/kernel/block/hisi-blk-busy-idle-notify.c:699:12
	add	x2, x2, :lo12:.L.str.15
	bl	snprintf
	.loc	2 702 44 is_stmt 1      // /mnt/disk/jenkins/workspace/chipset_10.1.0_release_5G/opensource/component_code/vendor/huawei/extra/build/build_script/kirin_kernel_release/kernel/block/hisi-blk-busy-idle-notify.c:702:44
	ldr	x3, [x20, #552]
	.loc	2 699 9                 // /mnt/disk/jenkins/workspace/chipset_10.1.0_release_5G/opensource/component_code/vendor/huawei/extra/build/build_script/kirin_kernel_release/kernel/block/hisi-blk-busy-idle-notify.c:699:9
	add	x22, x22, w0, sxtw
.Ltmp435:
	//DEBUG_VALUE: hisi_queue_busy_idle_statistic_show:offset <- $x22
	.loc	2 701 12                // /mnt/disk/jenkins/workspace/chipset_10.1.0_release_5G/opensource/component_code/vendor/huawei/extra/build/build_script/kirin_kernel_release/kernel/block/hisi-blk-busy-idle-notify.c:701:12
	adrp	x2, .L.str.16
	.loc	2 701 26 is_stmt 0      // /mnt/disk/jenkins/workspace/chipset_10.1.0_release_5G/opensource/component_code/vendor/huawei/extra/build/build_script/kirin_kernel_release/kernel/block/hisi-blk-busy-idle-notify.c:701:26
	add	x0, x19, x22
	.loc	2 701 55                // /mnt/disk/jenkins/workspace/chipset_10.1.0_release_5G/opensource/component_code/vendor/huawei/extra/build/build_script/kirin_kernel_release/kernel/block/hisi-blk-busy-idle-notify.c:701:55
	sub	x1, x21, x22
	.loc	2 701 12                // /mnt/disk/jenkins/workspace/chipset_10.1.0_release_5G/opensource/component_code/vendor/huawei/extra/build/build_script/kirin_kernel_release/kernel/block/hisi-blk-busy-idle-notify.c:701:12
	add	x2, x2, :lo12:.L.str.16
	bl	snprintf
	.loc	2 705 3 is_stmt 1       // /mnt/disk/jenkins/workspace/chipset_10.1.0_release_5G/opensource/component_code/vendor/huawei/extra/build/build_script/kirin_kernel_release/kernel/block/hisi-blk-busy-idle-notify.c:705:3
	ldr	x3, [x20, #480]
	.loc	2 701 9                 // /mnt/disk/jenkins/workspace/chipset_10.1.0_release_5G/opensource/component_code/vendor/huawei/extra/build/build_script/kirin_kernel_release/kernel/block/hisi-blk-busy-idle-notify.c:701:9
	add	x22, x22, w0, sxtw
.Ltmp436:
	//DEBUG_VALUE: hisi_queue_busy_idle_statistic_show:offset <- $x22
	.loc	2 703 12                // /mnt/disk/jenkins/workspace/chipset_10.1.0_release_5G/opensource/component_code/vendor/huawei/extra/build/build_script/kirin_kernel_release/kernel/block/hisi-blk-busy-idle-notify.c:703:12
	adrp	x2, .L.str.17
	.loc	2 703 26 is_stmt 0      // /mnt/disk/jenkins/workspace/chipset_10.1.0_release_5G/opensource/component_code/vendor/huawei/extra/build/build_script/kirin_kernel_release/kernel/block/hisi-blk-busy-idle-notify.c:703:26
	add	x0, x19, x22
	.loc	2 703 55                // /mnt/disk/jenkins/workspace/chipset_10.1.0_release_5G/opensource/component_code/vendor/huawei/extra/build/build_script/kirin_kernel_release/kernel/block/hisi-blk-busy-idle-notify.c:703:55
	sub	x1, x21, x22
	.loc	2 703 12                // /mnt/disk/jenkins/workspace/chipset_10.1.0_release_5G/opensource/component_code/vendor/huawei/extra/build/build_script/kirin_kernel_release/kernel/block/hisi-blk-busy-idle-notify.c:703:12
	add	x2, x2, :lo12:.L.str.17
	bl	snprintf
	.loc	2 708 3 is_stmt 1       // /mnt/disk/jenkins/workspace/chipset_10.1.0_release_5G/opensource/component_code/vendor/huawei/extra/build/build_script/kirin_kernel_release/kernel/block/hisi-blk-busy-idle-notify.c:708:3
	ldr	x3, [x20, #488]
	.loc	2 703 9                 // /mnt/disk/jenkins/workspace/chipset_10.1.0_release_5G/opensource/component_code/vendor/huawei/extra/build/build_script/kirin_kernel_release/kernel/block/hisi-blk-busy-idle-notify.c:703:9
	add	x22, x22, w0, sxtw
.Ltmp437:
	//DEBUG_VALUE: hisi_queue_busy_idle_statistic_show:offset <- $x22
	.loc	2 706 12                // /mnt/disk/jenkins/workspace/chipset_10.1.0_release_5G/opensource/component_code/vendor/huawei/extra/build/build_script/kirin_kernel_release/kernel/block/hisi-blk-busy-idle-notify.c:706:12
	adrp	x2, .L.str.18
	.loc	2 706 26 is_stmt 0      // /mnt/disk/jenkins/workspace/chipset_10.1.0_release_5G/opensource/component_code/vendor/huawei/extra/build/build_script/kirin_kernel_release/kernel/block/hisi-blk-busy-idle-notify.c:706:26
	add	x0, x19, x22
	.loc	2 706 55                // /mnt/disk/jenkins/workspace/chipset_10.1.0_release_5G/opensource/component_code/vendor/huawei/extra/build/build_script/kirin_kernel_release/kernel/block/hisi-blk-busy-idle-notify.c:706:55
	sub	x1, x21, x22
	.loc	2 706 12                // /mnt/disk/jenkins/workspace/chipset_10.1.0_release_5G/opensource/component_code/vendor/huawei/extra/build/build_script/kirin_kernel_release/kernel/block/hisi-blk-busy-idle-notify.c:706:12
	add	x2, x2, :lo12:.L.str.18
	bl	snprintf
	.loc	2 711 3 is_stmt 1       // /mnt/disk/jenkins/workspace/chipset_10.1.0_release_5G/opensource/component_code/vendor/huawei/extra/build/build_script/kirin_kernel_release/kernel/block/hisi-blk-busy-idle-notify.c:711:3
	ldr	x3, [x20, #496]
	.loc	2 706 9                 // /mnt/disk/jenkins/workspace/chipset_10.1.0_release_5G/opensource/component_code/vendor/huawei/extra/build/build_script/kirin_kernel_release/kernel/block/hisi-blk-busy-idle-notify.c:706:9
	add	x22, x22, w0, sxtw
.Ltmp438:
	//DEBUG_VALUE: hisi_queue_busy_idle_statistic_show:offset <- $x22
	.loc	2 709 12                // /mnt/disk/jenkins/workspace/chipset_10.1.0_release_5G/opensource/component_code/vendor/huawei/extra/build/build_script/kirin_kernel_release/kernel/block/hisi-blk-busy-idle-notify.c:709:12
	adrp	x2, .L.str.19
	.loc	2 709 26 is_stmt 0      // /mnt/disk/jenkins/workspace/chipset_10.1.0_release_5G/opensource/component_code/vendor/huawei/extra/build/build_script/kirin_kernel_release/kernel/block/hisi-blk-busy-idle-notify.c:709:26
	add	x0, x19, x22
	.loc	2 709 55                // /mnt/disk/jenkins/workspace/chipset_10.1.0_release_5G/opensource/component_code/vendor/huawei/extra/build/build_script/kirin_kernel_release/kernel/block/hisi-blk-busy-idle-notify.c:709:55
	sub	x1, x21, x22
	.loc	2 709 12                // /mnt/disk/jenkins/workspace/chipset_10.1.0_release_5G/opensource/component_code/vendor/huawei/extra/build/build_script/kirin_kernel_release/kernel/block/hisi-blk-busy-idle-notify.c:709:12
	add	x2, x2, :lo12:.L.str.19
	bl	snprintf
	.loc	2 714 3 is_stmt 1       // /mnt/disk/jenkins/workspace/chipset_10.1.0_release_5G/opensource/component_code/vendor/huawei/extra/build/build_script/kirin_kernel_release/kernel/block/hisi-blk-busy-idle-notify.c:714:3
	ldr	x3, [x20, #504]
	.loc	2 709 9                 // /mnt/disk/jenkins/workspace/chipset_10.1.0_release_5G/opensource/component_code/vendor/huawei/extra/build/build_script/kirin_kernel_release/kernel/block/hisi-blk-busy-idle-notify.c:709:9
	add	x22, x22, w0, sxtw
.Ltmp439:
	//DEBUG_VALUE: hisi_queue_busy_idle_statistic_show:offset <- $x22
	.loc	2 712 12                // /mnt/disk/jenkins/workspace/chipset_10.1.0_release_5G/opensource/component_code/vendor/huawei/extra/build/build_script/kirin_kernel_release/kernel/block/hisi-blk-busy-idle-notify.c:712:12
	adrp	x2, .L.str.20
	.loc	2 712 26 is_stmt 0      // /mnt/disk/jenkins/workspace/chipset_10.1.0_release_5G/opensource/component_code/vendor/huawei/extra/build/build_script/kirin_kernel_release/kernel/block/hisi-blk-busy-idle-notify.c:712:26
	add	x0, x19, x22
	.loc	2 712 55                // /mnt/disk/jenkins/workspace/chipset_10.1.0_release_5G/opensource/component_code/vendor/huawei/extra/build/build_script/kirin_kernel_release/kernel/block/hisi-blk-busy-idle-notify.c:712:55
	sub	x1, x21, x22
	.loc	2 712 12                // /mnt/disk/jenkins/workspace/chipset_10.1.0_release_5G/opensource/component_code/vendor/huawei/extra/build/build_script/kirin_kernel_release/kernel/block/hisi-blk-busy-idle-notify.c:712:12
	add	x2, x2, :lo12:.L.str.20
	bl	snprintf
	.loc	2 717 3 is_stmt 1       // /mnt/disk/jenkins/workspace/chipset_10.1.0_release_5G/opensource/component_code/vendor/huawei/extra/build/build_script/kirin_kernel_release/kernel/block/hisi-blk-busy-idle-notify.c:717:3
	ldr	x3, [x20, #512]
	.loc	2 712 9                 // /mnt/disk/jenkins/workspace/chipset_10.1.0_release_5G/opensource/component_code/vendor/huawei/extra/build/build_script/kirin_kernel_release/kernel/block/hisi-blk-busy-idle-notify.c:712:9
	add	x22, x22, w0, sxtw
.Ltmp440:
	//DEBUG_VALUE: hisi_queue_busy_idle_statistic_show:offset <- $x22
	.loc	2 715 12                // /mnt/disk/jenkins/workspace/chipset_10.1.0_release_5G/opensource/component_code/vendor/huawei/extra/build/build_script/kirin_kernel_release/kernel/block/hisi-blk-busy-idle-notify.c:715:12
	adrp	x2, .L.str.21
	.loc	2 715 26 is_stmt 0      // /mnt/disk/jenkins/workspace/chipset_10.1.0_release_5G/opensource/component_code/vendor/huawei/extra/build/build_script/kirin_kernel_release/kernel/block/hisi-blk-busy-idle-notify.c:715:26
	add	x0, x19, x22
	.loc	2 715 55                // /mnt/disk/jenkins/workspace/chipset_10.1.0_release_5G/opensource/component_code/vendor/huawei/extra/build/build_script/kirin_kernel_release/kernel/block/hisi-blk-busy-idle-notify.c:715:55
	sub	x1, x21, x22
	.loc	2 715 12                // /mnt/disk/jenkins/workspace/chipset_10.1.0_release_5G/opensource/component_code/vendor/huawei/extra/build/build_script/kirin_kernel_release/kernel/block/hisi-blk-busy-idle-notify.c:715:12
	add	x2, x2, :lo12:.L.str.21
	bl	snprintf
	.loc	2 720 3 is_stmt 1       // /mnt/disk/jenkins/workspace/chipset_10.1.0_release_5G/opensource/component_code/vendor/huawei/extra/build/build_script/kirin_kernel_release/kernel/block/hisi-blk-busy-idle-notify.c:720:3
	ldr	x3, [x20, #520]
	.loc	2 715 9                 // /mnt/disk/jenkins/workspace/chipset_10.1.0_release_5G/opensource/component_code/vendor/huawei/extra/build/build_script/kirin_kernel_release/kernel/block/hisi-blk-busy-idle-notify.c:715:9
	add	x22, x22, w0, sxtw
.Ltmp441:
	//DEBUG_VALUE: hisi_queue_busy_idle_statistic_show:offset <- $x22
	.loc	2 718 12                // /mnt/disk/jenkins/workspace/chipset_10.1.0_release_5G/opensource/component_code/vendor/huawei/extra/build/build_script/kirin_kernel_release/kernel/block/hisi-blk-busy-idle-notify.c:718:12
	adrp	x2, .L.str.22
	.loc	2 718 26 is_stmt 0      // /mnt/disk/jenkins/workspace/chipset_10.1.0_release_5G/opensource/component_code/vendor/huawei/extra/build/build_script/kirin_kernel_release/kernel/block/hisi-blk-busy-idle-notify.c:718:26
	add	x0, x19, x22
	.loc	2 718 55                // /mnt/disk/jenkins/workspace/chipset_10.1.0_release_5G/opensource/component_code/vendor/huawei/extra/build/build_script/kirin_kernel_release/kernel/block/hisi-blk-busy-idle-notify.c:718:55
	sub	x1, x21, x22
	.loc	2 718 12                // /mnt/disk/jenkins/workspace/chipset_10.1.0_release_5G/opensource/component_code/vendor/huawei/extra/build/build_script/kirin_kernel_release/kernel/block/hisi-blk-busy-idle-notify.c:718:12
	add	x2, x2, :lo12:.L.str.22
	bl	snprintf
	.loc	2 723 3 is_stmt 1       // /mnt/disk/jenkins/workspace/chipset_10.1.0_release_5G/opensource/component_code/vendor/huawei/extra/build/build_script/kirin_kernel_release/kernel/block/hisi-blk-busy-idle-notify.c:723:3
	ldr	x3, [x20, #528]
	.loc	2 718 9                 // /mnt/disk/jenkins/workspace/chipset_10.1.0_release_5G/opensource/component_code/vendor/huawei/extra/build/build_script/kirin_kernel_release/kernel/block/hisi-blk-busy-idle-notify.c:718:9
	add	x22, x22, w0, sxtw
.Ltmp442:
	//DEBUG_VALUE: hisi_queue_busy_idle_statistic_show:offset <- $x22
	.loc	2 721 12                // /mnt/disk/jenkins/workspace/chipset_10.1.0_release_5G/opensource/component_code/vendor/huawei/extra/build/build_script/kirin_kernel_release/kernel/block/hisi-blk-busy-idle-notify.c:721:12
	adrp	x2, .L.str.23
	.loc	2 721 26 is_stmt 0      // /mnt/disk/jenkins/workspace/chipset_10.1.0_release_5G/opensource/component_code/vendor/huawei/extra/build/build_script/kirin_kernel_release/kernel/block/hisi-blk-busy-idle-notify.c:721:26
	add	x0, x19, x22
	.loc	2 721 55                // /mnt/disk/jenkins/workspace/chipset_10.1.0_release_5G/opensource/component_code/vendor/huawei/extra/build/build_script/kirin_kernel_release/kernel/block/hisi-blk-busy-idle-notify.c:721:55
	sub	x1, x21, x22
	.loc	2 721 12                // /mnt/disk/jenkins/workspace/chipset_10.1.0_release_5G/opensource/component_code/vendor/huawei/extra/build/build_script/kirin_kernel_release/kernel/block/hisi-blk-busy-idle-notify.c:721:12
	add	x2, x2, :lo12:.L.str.23
	bl	snprintf
	.loc	2 726 3 is_stmt 1       // /mnt/disk/jenkins/workspace/chipset_10.1.0_release_5G/opensource/component_code/vendor/huawei/extra/build/build_script/kirin_kernel_release/kernel/block/hisi-blk-busy-idle-notify.c:726:3
	ldr	x3, [x20, #536]
	.loc	2 721 9                 // /mnt/disk/jenkins/workspace/chipset_10.1.0_release_5G/opensource/component_code/vendor/huawei/extra/build/build_script/kirin_kernel_release/kernel/block/hisi-blk-busy-idle-notify.c:721:9
	add	x22, x22, w0, sxtw
.Ltmp443:
	//DEBUG_VALUE: hisi_queue_busy_idle_statistic_show:offset <- $x22
	.loc	2 724 12                // /mnt/disk/jenkins/workspace/chipset_10.1.0_release_5G/opensource/component_code/vendor/huawei/extra/build/build_script/kirin_kernel_release/kernel/block/hisi-blk-busy-idle-notify.c:724:12
	adrp	x2, .L.str.24
	.loc	2 724 26 is_stmt 0      // /mnt/disk/jenkins/workspace/chipset_10.1.0_release_5G/opensource/component_code/vendor/huawei/extra/build/build_script/kirin_kernel_release/kernel/block/hisi-blk-busy-idle-notify.c:724:26
	add	x0, x19, x22
	.loc	2 724 55                // /mnt/disk/jenkins/workspace/chipset_10.1.0_release_5G/opensource/component_code/vendor/huawei/extra/build/build_script/kirin_kernel_release/kernel/block/hisi-blk-busy-idle-notify.c:724:55
	sub	x1, x21, x22
	.loc	2 724 12                // /mnt/disk/jenkins/workspace/chipset_10.1.0_release_5G/opensource/component_code/vendor/huawei/extra/build/build_script/kirin_kernel_release/kernel/block/hisi-blk-busy-idle-notify.c:724:12
	add	x2, x2, :lo12:.L.str.24
	bl	snprintf
	.loc	2 729 3 is_stmt 1       // /mnt/disk/jenkins/workspace/chipset_10.1.0_release_5G/opensource/component_code/vendor/huawei/extra/build/build_script/kirin_kernel_release/kernel/block/hisi-blk-busy-idle-notify.c:729:3
	ldr	x3, [x20, #544]
	.loc	2 724 9                 // /mnt/disk/jenkins/workspace/chipset_10.1.0_release_5G/opensource/component_code/vendor/huawei/extra/build/build_script/kirin_kernel_release/kernel/block/hisi-blk-busy-idle-notify.c:724:9
	add	x22, x22, w0, sxtw
.Ltmp444:
	//DEBUG_VALUE: hisi_queue_busy_idle_statistic_show:offset <- $x22
	.loc	2 727 12                // /mnt/disk/jenkins/workspace/chipset_10.1.0_release_5G/opensource/component_code/vendor/huawei/extra/build/build_script/kirin_kernel_release/kernel/block/hisi-blk-busy-idle-notify.c:727:12
	adrp	x2, .L.str.25
	.loc	2 727 26 is_stmt 0      // /mnt/disk/jenkins/workspace/chipset_10.1.0_release_5G/opensource/component_code/vendor/huawei/extra/build/build_script/kirin_kernel_release/kernel/block/hisi-blk-busy-idle-notify.c:727:26
	add	x0, x19, x22
	.loc	2 727 55                // /mnt/disk/jenkins/workspace/chipset_10.1.0_release_5G/opensource/component_code/vendor/huawei/extra/build/build_script/kirin_kernel_release/kernel/block/hisi-blk-busy-idle-notify.c:727:55
	sub	x1, x21, x22
	.loc	2 727 12                // /mnt/disk/jenkins/workspace/chipset_10.1.0_release_5G/opensource/component_code/vendor/huawei/extra/build/build_script/kirin_kernel_release/kernel/block/hisi-blk-busy-idle-notify.c:727:12
	add	x2, x2, :lo12:.L.str.25
	bl	snprintf
	.loc	2 731 42 is_stmt 1      // /mnt/disk/jenkins/workspace/chipset_10.1.0_release_5G/opensource/component_code/vendor/huawei/extra/build/build_script/kirin_kernel_release/kernel/block/hisi-blk-busy-idle-notify.c:731:42
	ldr	x3, [x20, #400]
	.loc	2 727 9                 // /mnt/disk/jenkins/workspace/chipset_10.1.0_release_5G/opensource/component_code/vendor/huawei/extra/build/build_script/kirin_kernel_release/kernel/block/hisi-blk-busy-idle-notify.c:727:9
	add	x20, x22, w0, sxtw
.Ltmp445:
	//DEBUG_VALUE: hisi_queue_busy_idle_statistic_show:offset <- $x20
	.loc	2 730 12                // /mnt/disk/jenkins/workspace/chipset_10.1.0_release_5G/opensource/component_code/vendor/huawei/extra/build/build_script/kirin_kernel_release/kernel/block/hisi-blk-busy-idle-notify.c:730:12
	adrp	x2, .L.str.26
	.loc	2 730 26 is_stmt 0      // /mnt/disk/jenkins/workspace/chipset_10.1.0_release_5G/opensource/component_code/vendor/huawei/extra/build/build_script/kirin_kernel_release/kernel/block/hisi-blk-busy-idle-notify.c:730:26
	add	x0, x19, x20
	.loc	2 730 55                // /mnt/disk/jenkins/workspace/chipset_10.1.0_release_5G/opensource/component_code/vendor/huawei/extra/build/build_script/kirin_kernel_release/kernel/block/hisi-blk-busy-idle-notify.c:730:55
	sub	x1, x21, x20
	.loc	2 730 12                // /mnt/disk/jenkins/workspace/chipset_10.1.0_release_5G/opensource/component_code/vendor/huawei/extra/build/build_script/kirin_kernel_release/kernel/block/hisi-blk-busy-idle-notify.c:730:12
	add	x2, x2, :lo12:.L.str.26
	bl	snprintf
	.loc	2 730 9                 // /mnt/disk/jenkins/workspace/chipset_10.1.0_release_5G/opensource/component_code/vendor/huawei/extra/build/build_script/kirin_kernel_release/kernel/block/hisi-blk-busy-idle-notify.c:730:9
	add	x0, x20, w0, sxtw
.Ltmp446:
	//DEBUG_VALUE: hisi_queue_busy_idle_statistic_show:offset <- $x0
	.loc	2 732 2 is_stmt 1       // /mnt/disk/jenkins/workspace/chipset_10.1.0_release_5G/opensource/component_code/vendor/huawei/extra/build/build_script/kirin_kernel_release/kernel/block/hisi-blk-busy-idle-notify.c:732:2
	ldp	x29, x30, [sp, #32]     // 16-byte Folded Reload
	ldp	x20, x19, [sp, #16]     // 16-byte Folded Reload
.Ltmp447:
	ldp	x22, x21, [sp], #48     // 16-byte Folded Reload
	ret
.Ltmp448:
.Lfunc_end22:
	.size	hisi_queue_busy_idle_statistic_show, .Lfunc_end22-hisi_queue_busy_idle_statistic_show
	.cfi_endproc
                                        // -- End function
	.section	.text.hisi_queue_hw_idle_enable_show,"ax",@progbits
	.hidden	hisi_queue_hw_idle_enable_show // -- Begin function hisi_queue_hw_idle_enable_show
	.globl	hisi_queue_hw_idle_enable_show
	.p2align	2
	.type	hisi_queue_hw_idle_enable_show,@function
hisi_queue_hw_idle_enable_show:         // @hisi_queue_hw_idle_enable_show
.Lfunc_begin23:
	.loc	2 736 0                 // /mnt/disk/jenkins/workspace/chipset_10.1.0_release_5G/opensource/component_code/vendor/huawei/extra/build/build_script/kirin_kernel_release/kernel/block/hisi-blk-busy-idle-notify.c:736:0
	.cfi_startproc
// %bb.0:
	str	x19, [sp, #-32]!        // 8-byte Folded Spill
	stp	x29, x30, [sp, #16]     // 16-byte Folded Spill
	add	x29, sp, #16            // =16
	.cfi_def_cfa w29, 16
	.cfi_offset w30, -8
	.cfi_offset w29, -16
	.cfi_offset w19, -32
	//DEBUG_VALUE: hisi_queue_hw_idle_enable_show:q <- $x0
	//DEBUG_VALUE: hisi_queue_hw_idle_enable_show:page <- $x1
	mov	x19, x1
.Ltmp449:
	//DEBUG_VALUE: hisi_queue_hw_idle_enable_show:page <- $x19
	//DEBUG_VALUE: hisi_queue_hw_idle_enable_show:q <- $x0
	//DEBUG_VALUE: hisi_queue_hw_idle_enable_show:q <- $x0
	.loc	2 737 28 prologue_end   // /mnt/disk/jenkins/workspace/chipset_10.1.0_release_5G/opensource/component_code/vendor/huawei/extra/build/build_script/kirin_kernel_release/kernel/block/hisi-blk-busy-idle-notify.c:737:28
	bl	hisi_blk_get_lld
.Ltmp450:
	//DEBUG_VALUE: hisi_queue_hw_idle_enable_show:lld <- $x0
	.loc	2 740 17                // /mnt/disk/jenkins/workspace/chipset_10.1.0_release_5G/opensource/component_code/vendor/huawei/extra/build/build_script/kirin_kernel_release/kernel/block/hisi-blk-busy-idle-notify.c:740:17
	ldrb	w8, [x0, #80]
	.loc	2 740 3 is_stmt 0       // /mnt/disk/jenkins/workspace/chipset_10.1.0_release_5G/opensource/component_code/vendor/huawei/extra/build/build_script/kirin_kernel_release/kernel/block/hisi-blk-busy-idle-notify.c:740:3
	adrp	x9, .L.str.28
	adrp	x10, .L.str.29
	add	x9, x9, :lo12:.L.str.28
	add	x10, x10, :lo12:.L.str.29
	cmp	w8, #0                  // =0
	.loc	2 739 9 is_stmt 1       // /mnt/disk/jenkins/workspace/chipset_10.1.0_release_5G/opensource/component_code/vendor/huawei/extra/build/build_script/kirin_kernel_release/kernel/block/hisi-blk-busy-idle-notify.c:739:9
	adrp	x2, .L.str.27
	.loc	2 740 3                 // /mnt/disk/jenkins/workspace/chipset_10.1.0_release_5G/opensource/component_code/vendor/huawei/extra/build/build_script/kirin_kernel_release/kernel/block/hisi-blk-busy-idle-notify.c:740:3
	csel	x3, x10, x9, eq
	.loc	2 739 9                 // /mnt/disk/jenkins/workspace/chipset_10.1.0_release_5G/opensource/component_code/vendor/huawei/extra/build/build_script/kirin_kernel_release/kernel/block/hisi-blk-busy-idle-notify.c:739:9
	add	x2, x2, :lo12:.L.str.27
	orr	w1, wzr, #0x1000
	mov	x0, x19
.Ltmp451:
	//DEBUG_VALUE: hisi_queue_hw_idle_enable_show:page <- $x0
	bl	snprintf
.Ltmp452:
	.loc	2 739 2 is_stmt 0       // /mnt/disk/jenkins/workspace/chipset_10.1.0_release_5G/opensource/component_code/vendor/huawei/extra/build/build_script/kirin_kernel_release/kernel/block/hisi-blk-busy-idle-notify.c:739:2
	ldp	x29, x30, [sp, #16]     // 16-byte Folded Reload
                                        // kill: def $w0 killed $w0 def $x0
	.loc	2 739 9                 // /mnt/disk/jenkins/workspace/chipset_10.1.0_release_5G/opensource/component_code/vendor/huawei/extra/build/build_script/kirin_kernel_release/kernel/block/hisi-blk-busy-idle-notify.c:739:9
	sxtw	x0, w0
	.loc	2 739 2                 // /mnt/disk/jenkins/workspace/chipset_10.1.0_release_5G/opensource/component_code/vendor/huawei/extra/build/build_script/kirin_kernel_release/kernel/block/hisi-blk-busy-idle-notify.c:739:2
	ldr	x19, [sp], #32          // 8-byte Folded Reload
	ret
.Ltmp453:
.Lfunc_end23:
	.size	hisi_queue_hw_idle_enable_show, .Lfunc_end23-hisi_queue_hw_idle_enable_show
	.cfi_endproc
                                        // -- End function
	.section	.text.hisi_queue_idle_state_show,"ax",@progbits
	.hidden	hisi_queue_idle_state_show // -- Begin function hisi_queue_idle_state_show
	.globl	hisi_queue_idle_state_show
	.p2align	2
	.type	hisi_queue_idle_state_show,@function
hisi_queue_idle_state_show:             // @hisi_queue_idle_state_show
.Lfunc_begin24:
	.loc	2 746 0 is_stmt 1       // /mnt/disk/jenkins/workspace/chipset_10.1.0_release_5G/opensource/component_code/vendor/huawei/extra/build/build_script/kirin_kernel_release/kernel/block/hisi-blk-busy-idle-notify.c:746:0
	.cfi_startproc
// %bb.0:
	str	x21, [sp, #-48]!        // 8-byte Folded Spill
	stp	x20, x19, [sp, #16]     // 16-byte Folded Spill
	stp	x29, x30, [sp, #32]     // 16-byte Folded Spill
	add	x29, sp, #32            // =32
	.cfi_def_cfa w29, 16
	.cfi_offset w30, -8
	.cfi_offset w29, -16
	.cfi_offset w19, -24
	.cfi_offset w20, -32
	.cfi_offset w21, -48
	//DEBUG_VALUE: hisi_queue_idle_state_show:q <- $x0
	//DEBUG_VALUE: hisi_queue_idle_state_show:page <- $x1
	mov	x19, x1
.Ltmp454:
	//DEBUG_VALUE: hisi_queue_idle_state_show:page <- $x19
	//DEBUG_VALUE: hisi_queue_idle_state_show:q <- $x0
	//DEBUG_VALUE: hisi_queue_idle_state_show:q <- $x0
	.loc	2 747 28 prologue_end   // /mnt/disk/jenkins/workspace/chipset_10.1.0_release_5G/opensource/component_code/vendor/huawei/extra/build/build_script/kirin_kernel_release/kernel/block/hisi-blk-busy-idle-notify.c:747:28
	bl	hisi_blk_get_lld
.Ltmp455:
	.loc	2 752 13                // /mnt/disk/jenkins/workspace/chipset_10.1.0_release_5G/opensource/component_code/vendor/huawei/extra/build/build_script/kirin_kernel_release/kernel/block/hisi-blk-busy-idle-notify.c:752:13
	ldr	w8, [x0, #360]
	.loc	2 752 3 is_stmt 0       // /mnt/disk/jenkins/workspace/chipset_10.1.0_release_5G/opensource/component_code/vendor/huawei/extra/build/build_script/kirin_kernel_release/kernel/block/hisi-blk-busy-idle-notify.c:752:3
	adrp	x9, .L.str.32
	adrp	x10, .L.str.31
	add	x9, x9, :lo12:.L.str.32
	add	x10, x10, :lo12:.L.str.31
	cmp	w8, #1                  // =1
	.loc	2 751 7 is_stmt 1       // /mnt/disk/jenkins/workspace/chipset_10.1.0_release_5G/opensource/component_code/vendor/huawei/extra/build/build_script/kirin_kernel_release/kernel/block/hisi-blk-busy-idle-notify.c:751:7
	adrp	x2, .L.str.30
