	.text
	.file	"hisi-blk-flush.c"
                                        // Start of file scope inline assembly
	.section "___kcrctab_gpl+blk_power_off_flush", "a"	
	.weak	__crc_blk_power_off_flush	
	.long	__crc_blk_power_off_flush	
	.previous					
	.section "___kcrctab_gpl+blk_mq_tagset_direct_flush_register", "a"	
	.weak	__crc_blk_mq_tagset_direct_flush_register	
	.long	__crc_blk_mq_tagset_direct_flush_register	
	.previous					
	.section "___kcrctab_gpl+blk_flush_set_async", "a"	
	.weak	__crc_blk_flush_set_async	
	.long	__crc_blk_flush_set_async	
	.previous					
	.section "___kcrctab_gpl+blk_queue_direct_flush_register", "a"	
	.weak	__crc_blk_queue_direct_flush_register	
	.long	__crc_blk_queue_direct_flush_register	
	.previous					
	.section "___kcrctab_gpl+blk_queue_flush_reduce_config", "a"	
	.weak	__crc_blk_queue_flush_reduce_config	
	.long	__crc_blk_queue_flush_reduce_config	
	.previous					
	.section "___kcrctab_gpl+blk_mq_tagset_flush_reduce_config", "a"	
	.weak	__crc_blk_mq_tagset_flush_reduce_config	
	.long	__crc_blk_mq_tagset_flush_reduce_config	
	.previous					
	.section "___kcrctab_gpl+blk_flush_async_support", "a"	
	.weak	__crc_blk_flush_async_support	
	.long	__crc_blk_flush_async_support	
	.previous					

                                        // End of file scope inline assembly
	.file	1 "/mnt/disk/jenkins/workspace/chipset_10.1.0_release_5G/opensource/component_code/vendor/huawei/extra/build/build_script/kirin_kernel_release/kernel/include/linux/export.h"
	.file	2 "/mnt/disk/jenkins/workspace/chipset_10.1.0_release_5G/opensource/component_code/vendor/huawei/extra/build/build_script/kirin_kernel_release/kernel/block/hisi-blk-flush.c"
	.file	3 "/mnt/disk/jenkins/workspace/chipset_10.1.0_release_5G/opensource/component_code/vendor/huawei/extra/build/build_script/kirin_kernel_release/kernel/include/linux/init.h"
	.file	4 "/mnt/disk/jenkins/workspace/chipset_10.1.0_release_5G/opensource/component_code/vendor/huawei/extra/build/build_script/kirin_kernel_release/kernel/include/asm-generic/int-ll64.h"
	.file	5 "/mnt/disk/jenkins/workspace/chipset_10.1.0_release_5G/opensource/component_code/vendor/huawei/extra/build/build_script/kirin_kernel_release/kernel/arch/arm64/include/asm/spinlock_types.h"
	.file	6 "/mnt/disk/jenkins/workspace/chipset_10.1.0_release_5G/opensource/component_code/vendor/huawei/extra/build/build_script/kirin_kernel_release/kernel/include/linux/spinlock_types.h"
	.file	7 "/mnt/disk/jenkins/workspace/chipset_10.1.0_release_5G/opensource/component_code/vendor/huawei/extra/build/build_script/kirin_kernel_release/kernel/include/linux/types.h"
	.file	8 "/mnt/disk/jenkins/workspace/chipset_10.1.0_release_5G/opensource/component_code/vendor/huawei/extra/build/build_script/kirin_kernel_release/kernel/include/linux/notifier.h"
	.file	9 "/mnt/disk/jenkins/workspace/chipset_10.1.0_release_5G/opensource/component_code/vendor/huawei/extra/build/build_script/kirin_kernel_release/kernel/include/linux/kobject_ns.h"
	.file	10 "/mnt/disk/jenkins/workspace/chipset_10.1.0_release_5G/opensource/component_code/vendor/huawei/extra/build/build_script/kirin_kernel_release/kernel/include/linux/hrtimer.h"
	.file	11 "/mnt/disk/jenkins/workspace/chipset_10.1.0_release_5G/opensource/component_code/vendor/huawei/extra/build/build_script/kirin_kernel_release/kernel/include/linux/module.h"
	.file	12 "/mnt/disk/jenkins/workspace/chipset_10.1.0_release_5G/opensource/component_code/vendor/huawei/extra/build/build_script/kirin_kernel_release/kernel/include/linux/quota.h"
	.file	13 "/mnt/disk/jenkins/workspace/chipset_10.1.0_release_5G/opensource/component_code/vendor/huawei/extra/build/build_script/kirin_kernel_release/kernel/include/linux/blkdev.h"
	.file	14 "/mnt/disk/jenkins/workspace/chipset_10.1.0_release_5G/opensource/component_code/vendor/huawei/extra/build/build_script/kirin_kernel_release/kernel/include/linux/elevator.h"
	.file	15 "/mnt/disk/jenkins/workspace/chipset_10.1.0_release_5G/opensource/component_code/vendor/huawei/extra/build/build_script/kirin_kernel_release/kernel/block/hisi-blk.h"
	.file	16 "/mnt/disk/jenkins/workspace/chipset_10.1.0_release_5G/opensource/component_code/vendor/huawei/extra/build/build_script/kirin_kernel_release/kernel/include/linux/rcu_sync.h"
	.file	17 "/mnt/disk/jenkins/workspace/chipset_10.1.0_release_5G/opensource/component_code/vendor/huawei/extra/build/build_script/kirin_kernel_release/kernel/include/linux/fs.h"
	.file	18 "/mnt/disk/jenkins/workspace/chipset_10.1.0_release_5G/opensource/component_code/vendor/huawei/extra/build/build_script/kirin_kernel_release/kernel/include/linux/pid.h"
	.file	19 "/mnt/disk/jenkins/workspace/chipset_10.1.0_release_5G/opensource/component_code/vendor/huawei/extra/build/build_script/kirin_kernel_release/kernel/include/linux/migrate_mode.h"
	.file	20 "/mnt/disk/jenkins/workspace/chipset_10.1.0_release_5G/opensource/component_code/vendor/huawei/extra/build/build_script/kirin_kernel_release/kernel/include/linux/memremap.h"
	.file	21 "/mnt/disk/jenkins/workspace/chipset_10.1.0_release_5G/opensource/component_code/vendor/huawei/extra/build/build_script/kirin_kernel_release/kernel/include/linux/mm.h"
	.file	22 "/mnt/disk/jenkins/workspace/chipset_10.1.0_release_5G/opensource/component_code/vendor/huawei/extra/build/build_script/kirin_kernel_release/kernel/include/linux/restart_block.h"
	.file	23 "/mnt/disk/jenkins/workspace/chipset_10.1.0_release_5G/opensource/component_code/vendor/huawei/extra/build/build_script/kirin_kernel_release/kernel/include/linux/device.h"
	.file	24 "/mnt/disk/jenkins/workspace/chipset_10.1.0_release_5G/opensource/component_code/vendor/huawei/extra/build/build_script/kirin_kernel_release/kernel/include/linux/pm.h"
	.file	25 "/mnt/disk/jenkins/workspace/chipset_10.1.0_release_5G/opensource/component_code/vendor/huawei/extra/build/build_script/kirin_kernel_release/kernel/include/linux/blk_types.h"
	.file	26 "/mnt/disk/jenkins/workspace/chipset_10.1.0_release_5G/opensource/component_code/vendor/huawei/extra/build/build_script/kirin_kernel_release/kernel/include/linux/stddef.h"
	.file	27 "/mnt/disk/jenkins/workspace/chipset_10.1.0_release_5G/opensource/component_code/vendor/huawei/extra/build/build_script/kirin_kernel_release/kernel/include/linux/hisi/hisi_powerkey_event.h"
	.file	28 "/mnt/disk/jenkins/workspace/chipset_10.1.0_release_5G/opensource/component_code/vendor/huawei/extra/build/build_script/kirin_kernel_release/kernel/include/linux/workqueue.h"
	.file	29 "/mnt/disk/jenkins/workspace/chipset_10.1.0_release_5G/opensource/component_code/vendor/huawei/extra/build/build_script/kirin_kernel_release/kernel/include/linux/genhd.h"
	.file	30 "/mnt/disk/jenkins/workspace/chipset_10.1.0_release_5G/opensource/component_code/vendor/huawei/extra/build/build_script/kirin_kernel_release/kernel/include/linux/seqlock.h"
	.file	31 "/mnt/disk/jenkins/workspace/chipset_10.1.0_release_5G/opensource/component_code/vendor/huawei/extra/build/build_script/kirin_kernel_release/kernel/include/linux/kobject.h"
	.file	32 "/mnt/disk/jenkins/workspace/chipset_10.1.0_release_5G/opensource/component_code/vendor/huawei/extra/build/build_script/kirin_kernel_release/kernel/include/uapi/asm-generic/posix_types.h"
	.file	33 "/mnt/disk/jenkins/workspace/chipset_10.1.0_release_5G/opensource/component_code/vendor/huawei/extra/build/build_script/kirin_kernel_release/kernel/include/linux/sysfs.h"
	.file	34 "/mnt/disk/jenkins/workspace/chipset_10.1.0_release_5G/opensource/component_code/vendor/huawei/extra/build/build_script/kirin_kernel_release/kernel/include/linux/kernfs.h"
	.file	35 "/mnt/disk/jenkins/workspace/chipset_10.1.0_release_5G/opensource/component_code/vendor/huawei/extra/build/build_script/kirin_kernel_release/kernel/include/linux/rbtree.h"
	.file	36 "/mnt/disk/jenkins/workspace/chipset_10.1.0_release_5G/opensource/component_code/vendor/huawei/extra/build/build_script/kirin_kernel_release/kernel/include/linux/radix-tree.h"
	.file	37 "/mnt/disk/jenkins/workspace/chipset_10.1.0_release_5G/opensource/component_code/vendor/huawei/extra/build/build_script/kirin_kernel_release/kernel/include/linux/idr.h"
	.file	38 "/mnt/disk/jenkins/workspace/chipset_10.1.0_release_5G/opensource/component_code/vendor/huawei/extra/build/build_script/kirin_kernel_release/kernel/include/linux/seq_file.h"
	.file	39 "/mnt/disk/jenkins/workspace/chipset_10.1.0_release_5G/opensource/component_code/vendor/huawei/extra/build/build_script/kirin_kernel_release/kernel/include/asm-generic/atomic-long.h"
	.file	40 "/mnt/disk/jenkins/workspace/chipset_10.1.0_release_5G/opensource/component_code/vendor/huawei/extra/build/build_script/kirin_kernel_release/kernel/include/linux/mutex.h"
	.file	41 "/mnt/disk/jenkins/workspace/chipset_10.1.0_release_5G/opensource/component_code/vendor/huawei/extra/build/build_script/kirin_kernel_release/kernel/include/linux/osq_lock.h"
	.file	42 "/mnt/disk/jenkins/workspace/chipset_10.1.0_release_5G/opensource/component_code/vendor/huawei/extra/build/build_script/kirin_kernel_release/kernel/arch/arm64/include/asm/thread_info.h"
	.file	43 "/mnt/disk/jenkins/workspace/chipset_10.1.0_release_5G/opensource/component_code/vendor/huawei/extra/build/build_script/kirin_kernel_release/kernel/include/linux/sched.h"
	.file	44 "/mnt/disk/jenkins/workspace/chipset_10.1.0_release_5G/opensource/component_code/vendor/huawei/extra/build/build_script/kirin_kernel_release/kernel/include/linux/llist.h"
	.file	45 "/mnt/disk/jenkins/workspace/chipset_10.1.0_release_5G/opensource/component_code/vendor/huawei/extra/build/build_script/kirin_kernel_release/kernel/include/linux/cpumask.h"
	.file	46 "/mnt/disk/jenkins/workspace/chipset_10.1.0_release_5G/opensource/component_code/vendor/huawei/extra/build/build_script/kirin_kernel_release/kernel/include/linux/timerqueue.h"
	.file	47 "/mnt/disk/jenkins/workspace/chipset_10.1.0_release_5G/opensource/component_code/vendor/huawei/extra/build/build_script/kirin_kernel_release/kernel/include/linux/ktime.h"
	.file	48 "/mnt/disk/jenkins/workspace/chipset_10.1.0_release_5G/opensource/component_code/vendor/huawei/extra/build/build_script/kirin_kernel_release/kernel/include/linux/plist.h"
	.file	49 "/mnt/disk/jenkins/workspace/chipset_10.1.0_release_5G/opensource/component_code/vendor/huawei/extra/build/build_script/kirin_kernel_release/kernel/include/linux/mm_types.h"
	.file	50 "/mnt/disk/jenkins/workspace/chipset_10.1.0_release_5G/opensource/component_code/vendor/huawei/extra/build/build_script/kirin_kernel_release/kernel/arch/arm64/include/asm/pgtable-types.h"
	.file	51 "/mnt/disk/jenkins/workspace/chipset_10.1.0_release_5G/opensource/component_code/vendor/huawei/extra/build/build_script/kirin_kernel_release/kernel/include/asm-generic/pgtable-nop4d-hack.h"
	.file	52 "/mnt/disk/jenkins/workspace/chipset_10.1.0_release_5G/opensource/component_code/vendor/huawei/extra/build/build_script/kirin_kernel_release/kernel/include/linux/uidgid.h"
	.file	53 "/mnt/disk/jenkins/workspace/chipset_10.1.0_release_5G/opensource/component_code/vendor/huawei/extra/build/build_script/kirin_kernel_release/kernel/include/linux/dcache.h"
	.file	54 "/mnt/disk/jenkins/workspace/chipset_10.1.0_release_5G/opensource/component_code/vendor/huawei/extra/build/build_script/kirin_kernel_release/kernel/include/linux/list_bl.h"
	.file	55 "/mnt/disk/jenkins/workspace/chipset_10.1.0_release_5G/opensource/component_code/vendor/huawei/extra/build/build_script/kirin_kernel_release/kernel/include/linux/lockref.h"
	.file	56 "/mnt/disk/jenkins/workspace/chipset_10.1.0_release_5G/opensource/component_code/vendor/huawei/extra/build/build_script/kirin_kernel_release/kernel/include/linux/path.h"
	.file	57 "/mnt/disk/jenkins/workspace/chipset_10.1.0_release_5G/opensource/component_code/vendor/huawei/extra/build/build_script/kirin_kernel_release/kernel/include/uapi/asm-generic/int-ll64.h"
	.file	58 "/mnt/disk/jenkins/workspace/chipset_10.1.0_release_5G/opensource/component_code/vendor/huawei/extra/build/build_script/kirin_kernel_release/kernel/include/linux/completion.h"
	.file	59 "/mnt/disk/jenkins/workspace/chipset_10.1.0_release_5G/opensource/component_code/vendor/huawei/extra/build/build_script/kirin_kernel_release/kernel/include/linux/wait.h"
	.file	60 "/mnt/disk/jenkins/workspace/chipset_10.1.0_release_5G/opensource/component_code/vendor/huawei/extra/build/build_script/kirin_kernel_release/kernel/include/linux/cfi.h"
	.file	61 "/mnt/disk/jenkins/workspace/chipset_10.1.0_release_5G/opensource/component_code/vendor/huawei/extra/build/build_script/kirin_kernel_release/kernel/include/linux/moduleparam.h"
	.file	62 "/mnt/disk/jenkins/workspace/chipset_10.1.0_release_5G/opensource/component_code/vendor/huawei/extra/build/build_script/kirin_kernel_release/kernel/arch/arm64/include/asm/extable.h"
	.file	63 "/mnt/disk/jenkins/workspace/chipset_10.1.0_release_5G/opensource/component_code/vendor/huawei/extra/build/build_script/kirin_kernel_release/kernel/include/linux/rbtree_latch.h"
	.file	64 "/mnt/disk/jenkins/workspace/chipset_10.1.0_release_5G/opensource/component_code/vendor/huawei/extra/build/build_script/kirin_kernel_release/kernel/include/uapi/linux/elf.h"
	.file	65 "/mnt/disk/jenkins/workspace/chipset_10.1.0_release_5G/opensource/component_code/vendor/huawei/extra/build/build_script/kirin_kernel_release/kernel/arch/arm64/include/asm/module.h"
	.file	66 "/mnt/disk/jenkins/workspace/chipset_10.1.0_release_5G/opensource/component_code/vendor/huawei/extra/build/build_script/kirin_kernel_release/kernel/include/uapi/linux/types.h"
	.file	67 "/mnt/disk/jenkins/workspace/chipset_10.1.0_release_5G/opensource/component_code/vendor/huawei/extra/build/build_script/kirin_kernel_release/kernel/include/asm-generic/bug.h"
	.file	68 "/mnt/disk/jenkins/workspace/chipset_10.1.0_release_5G/opensource/component_code/vendor/huawei/extra/build/build_script/kirin_kernel_release/kernel/include/linux/tracepoint-defs.h"
	.file	69 "/mnt/disk/jenkins/workspace/chipset_10.1.0_release_5G/opensource/component_code/vendor/huawei/extra/build/build_script/kirin_kernel_release/kernel/include/linux/jump_label.h"
	.file	70 "/mnt/disk/jenkins/workspace/chipset_10.1.0_release_5G/opensource/component_code/vendor/huawei/extra/build/build_script/kirin_kernel_release/kernel/include/linux/tracepoint.h"
	.file	71 "/mnt/disk/jenkins/workspace/chipset_10.1.0_release_5G/opensource/component_code/vendor/huawei/extra/build/build_script/kirin_kernel_release/kernel/include/linux/lockdep.h"
	.file	72 "/mnt/disk/jenkins/workspace/chipset_10.1.0_release_5G/opensource/component_code/vendor/huawei/extra/build/build_script/kirin_kernel_release/kernel/include/linux/projid.h"
	.file	73 "/mnt/disk/jenkins/workspace/chipset_10.1.0_release_5G/opensource/component_code/vendor/huawei/extra/build/build_script/kirin_kernel_release/kernel/include/linux/time64.h"
	.file	74 "/mnt/disk/jenkins/workspace/chipset_10.1.0_release_5G/opensource/component_code/vendor/huawei/extra/build/build_script/kirin_kernel_release/kernel/include/linux/shrinker.h"
	.file	75 "/mnt/disk/jenkins/workspace/chipset_10.1.0_release_5G/opensource/component_code/vendor/huawei/extra/build/build_script/kirin_kernel_release/kernel/include/linux/rwsem.h"
	.file	76 "/mnt/disk/jenkins/workspace/chipset_10.1.0_release_5G/opensource/component_code/vendor/huawei/extra/build/build_script/kirin_kernel_release/kernel/include/linux/smp.h"
	.file	77 "/mnt/disk/jenkins/workspace/chipset_10.1.0_release_5G/opensource/component_code/vendor/huawei/extra/build/build_script/kirin_kernel_release/kernel/block/blk-mq.h"
	.file	78 "/mnt/disk/jenkins/workspace/chipset_10.1.0_release_5G/opensource/component_code/vendor/huawei/extra/build/build_script/kirin_kernel_release/kernel/include/linux/bvec.h"
	.file	79 "/mnt/disk/jenkins/workspace/chipset_10.1.0_release_5G/opensource/component_code/vendor/huawei/extra/build/build_script/kirin_kernel_release/kernel/include/linux/timer.h"
	.file	80 "/mnt/disk/jenkins/workspace/chipset_10.1.0_release_5G/opensource/component_code/vendor/huawei/extra/build/build_script/kirin_kernel_release/kernel/include/uapi/linux/time.h"
	.file	81 "/mnt/disk/jenkins/workspace/chipset_10.1.0_release_5G/opensource/component_code/vendor/huawei/extra/build/build_script/kirin_kernel_release/kernel/include/linux/iocontext.h"
	.file	82 "/mnt/disk/jenkins/workspace/chipset_10.1.0_release_5G/opensource/component_code/vendor/huawei/extra/build/build_script/kirin_kernel_release/kernel/include/linux/bio.h"
	.file	83 "/mnt/disk/jenkins/workspace/chipset_10.1.0_release_5G/opensource/component_code/vendor/huawei/extra/build/build_script/kirin_kernel_release/kernel/include/linux/mempool.h"
	.file	84 "/mnt/disk/jenkins/workspace/chipset_10.1.0_release_5G/opensource/component_code/vendor/huawei/extra/build/build_script/kirin_kernel_release/kernel/include/linux/blk-mq.h"
	.file	85 "/mnt/disk/jenkins/workspace/chipset_10.1.0_release_5G/opensource/component_code/vendor/huawei/extra/build/build_script/kirin_kernel_release/kernel/block/blk.h"
	.file	86 "/mnt/disk/jenkins/workspace/chipset_10.1.0_release_5G/opensource/component_code/vendor/huawei/extra/build/build_script/kirin_kernel_release/kernel/include/linux/sbitmap.h"
	.file	87 "/mnt/disk/jenkins/workspace/chipset_10.1.0_release_5G/opensource/component_code/vendor/huawei/extra/build/build_script/kirin_kernel_release/kernel/include/linux/srcutree.h"
	.file	88 "/mnt/disk/jenkins/workspace/chipset_10.1.0_release_5G/opensource/component_code/vendor/huawei/extra/build/build_script/kirin_kernel_release/kernel/include/linux/rcu_segcblist.h"
	.file	89 "/mnt/disk/jenkins/workspace/chipset_10.1.0_release_5G/opensource/component_code/vendor/huawei/extra/build/build_script/kirin_kernel_release/kernel/include/linux/backing-dev-defs.h"
	.file	90 "/mnt/disk/jenkins/workspace/chipset_10.1.0_release_5G/opensource/component_code/vendor/huawei/extra/build/build_script/kirin_kernel_release/kernel/include/linux/refcount.h"
	.file	91 "/mnt/disk/jenkins/workspace/chipset_10.1.0_release_5G/opensource/component_code/vendor/huawei/extra/build/build_script/kirin_kernel_release/kernel/include/linux/kref.h"
	.file	92 "/mnt/disk/jenkins/workspace/chipset_10.1.0_release_5G/opensource/component_code/vendor/huawei/extra/build/build_script/kirin_kernel_release/kernel/include/linux/percpu_counter.h"
	.file	93 "/mnt/disk/jenkins/workspace/chipset_10.1.0_release_5G/opensource/component_code/vendor/huawei/extra/build/build_script/kirin_kernel_release/kernel/include/linux/flex_proportions.h"
	.file	94 "/mnt/disk/jenkins/workspace/chipset_10.1.0_release_5G/opensource/component_code/vendor/huawei/extra/build/build_script/kirin_kernel_release/kernel/include/linux/percpu-refcount.h"
	.file	95 "/mnt/disk/jenkins/workspace/chipset_10.1.0_release_5G/opensource/component_code/vendor/huawei/extra/build/build_script/kirin_kernel_release/kernel/block/blk-stat.h"
	.file	96 "/mnt/disk/jenkins/workspace/chipset_10.1.0_release_5G/opensource/component_code/vendor/huawei/extra/build/build_script/kirin_kernel_release/kernel/include/linux/bsg.h"
	.file	97 "/mnt/disk/jenkins/workspace/chipset_10.1.0_release_5G/opensource/component_code/vendor/huawei/extra/build/build_script/kirin_kernel_release/kernel/include/linux/percpu-rwsem.h"
	.file	98 "/mnt/disk/jenkins/workspace/chipset_10.1.0_release_5G/opensource/component_code/vendor/huawei/extra/build/build_script/kirin_kernel_release/kernel/include/linux/rcuwait.h"
	.file	99 "/mnt/disk/jenkins/workspace/chipset_10.1.0_release_5G/opensource/component_code/vendor/huawei/extra/build/build_script/kirin_kernel_release/kernel/include/linux/uuid.h"
	.file	100 "/mnt/disk/jenkins/workspace/chipset_10.1.0_release_5G/opensource/component_code/vendor/huawei/extra/build/build_script/kirin_kernel_release/kernel/include/linux/list_lru.h"
	.file	101 "/mnt/disk/jenkins/workspace/chipset_10.1.0_release_5G/opensource/component_code/vendor/huawei/extra/build/build_script/kirin_kernel_release/kernel/include/linux/delayed_call.h"
	.file	102 "/mnt/disk/jenkins/workspace/chipset_10.1.0_release_5G/opensource/component_code/vendor/huawei/extra/build/build_script/kirin_kernel_release/kernel/include/linux/uio.h"
	.file	103 "/mnt/disk/jenkins/workspace/chipset_10.1.0_release_5G/opensource/component_code/vendor/huawei/extra/build/build_script/kirin_kernel_release/kernel/include/uapi/linux/uio.h"
	.file	104 "/mnt/disk/jenkins/workspace/chipset_10.1.0_release_5G/opensource/component_code/vendor/huawei/extra/build/build_script/kirin_kernel_release/kernel/include/linux/poll.h"
	.file	105 "/mnt/disk/jenkins/workspace/chipset_10.1.0_release_5G/opensource/component_code/vendor/huawei/extra/build/build_script/kirin_kernel_release/kernel/include/linux/nfs_fs_i.h"
	.file	106 "/mnt/disk/jenkins/workspace/chipset_10.1.0_release_5G/opensource/component_code/vendor/huawei/extra/build/build_script/kirin_kernel_release/kernel/include/linux/rwlock_types.h"
	.file	107 "/mnt/disk/jenkins/workspace/chipset_10.1.0_release_5G/opensource/component_code/vendor/huawei/extra/build/build_script/kirin_kernel_release/kernel/include/linux/cred.h"
	.file	108 "/mnt/disk/jenkins/workspace/chipset_10.1.0_release_5G/opensource/component_code/vendor/huawei/extra/build/build_script/kirin_kernel_release/kernel/include/linux/capability.h"
	.file	109 "/mnt/disk/jenkins/workspace/chipset_10.1.0_release_5G/opensource/component_code/vendor/huawei/extra/build/build_script/kirin_kernel_release/kernel/include/linux/key.h"
	.file	110 "/mnt/disk/jenkins/workspace/chipset_10.1.0_release_5G/opensource/component_code/vendor/huawei/extra/build/build_script/kirin_kernel_release/kernel/include/linux/assoc_array.h"
	.file	111 "/mnt/disk/jenkins/workspace/chipset_10.1.0_release_5G/opensource/component_code/vendor/huawei/extra/build/build_script/kirin_kernel_release/kernel/include/linux/sched/user.h"
	.file	112 "/mnt/disk/jenkins/workspace/chipset_10.1.0_release_5G/opensource/component_code/vendor/huawei/extra/build/build_script/kirin_kernel_release/kernel/include/linux/errseq.h"
	.file	113 "/mnt/disk/jenkins/workspace/chipset_10.1.0_release_5G/opensource/component_code/vendor/huawei/extra/build/build_script/kirin_kernel_release/kernel/include/linux/stat.h"
	.file	114 "/mnt/disk/jenkins/workspace/chipset_10.1.0_release_5G/opensource/component_code/vendor/huawei/extra/build/build_script/kirin_kernel_release/kernel/include/uapi/linux/fiemap.h"
	.file	115 "/mnt/disk/jenkins/workspace/chipset_10.1.0_release_5G/opensource/component_code/vendor/huawei/extra/build/build_script/kirin_kernel_release/kernel/include/linux/mmzone.h"
	.file	116 "/mnt/disk/jenkins/workspace/chipset_10.1.0_release_5G/opensource/component_code/vendor/huawei/extra/build/build_script/kirin_kernel_release/kernel/include/linux/ioport.h"
	.file	117 "/mnt/disk/jenkins/workspace/chipset_10.1.0_release_5G/opensource/component_code/vendor/huawei/extra/build/build_script/kirin_kernel_release/kernel/arch/arm64/include/asm/page.h"
	.file	118 "/mnt/disk/jenkins/workspace/chipset_10.1.0_release_5G/opensource/component_code/vendor/huawei/extra/build/build_script/kirin_kernel_release/kernel/include/linux/mm_types_task.h"
	.file	119 "/mnt/disk/jenkins/workspace/chipset_10.1.0_release_5G/opensource/component_code/vendor/huawei/extra/build/build_script/kirin_kernel_release/kernel/arch/arm64/include/asm/mmu.h"
	.file	120 "/mnt/disk/jenkins/workspace/chipset_10.1.0_release_5G/opensource/component_code/vendor/huawei/extra/build/build_script/kirin_kernel_release/kernel/include/linux/uprobes.h"
	.file	121 "/mnt/disk/jenkins/workspace/chipset_10.1.0_release_5G/opensource/component_code/vendor/huawei/extra/build/build_script/kirin_kernel_release/kernel/arch/arm64/include/asm/compat.h"
	.file	122 "/mnt/disk/jenkins/workspace/chipset_10.1.0_release_5G/opensource/component_code/vendor/huawei/extra/build/build_script/kirin_kernel_release/kernel/include/uapi/asm-generic/poll.h"
	.file	123 "/mnt/disk/jenkins/workspace/chipset_10.1.0_release_5G/opensource/component_code/vendor/huawei/extra/build/build_script/kirin_kernel_release/kernel/include/uapi/asm-generic/signal.h"
	.file	124 "/mnt/disk/jenkins/workspace/chipset_10.1.0_release_5G/opensource/component_code/vendor/huawei/extra/build/build_script/kirin_kernel_release/kernel/include/linux/signal_types.h"
	.file	125 "/mnt/disk/jenkins/workspace/chipset_10.1.0_release_5G/opensource/component_code/vendor/huawei/extra/build/build_script/kirin_kernel_release/kernel/include/linux/seccomp.h"
	.file	126 "/mnt/disk/jenkins/workspace/chipset_10.1.0_release_5G/opensource/component_code/vendor/huawei/extra/build/build_script/kirin_kernel_release/kernel/include/uapi/asm-generic/siginfo.h"
	.file	127 "/mnt/disk/jenkins/workspace/chipset_10.1.0_release_5G/opensource/component_code/vendor/huawei/extra/build/build_script/kirin_kernel_release/kernel/include/linux/task_io_accounting.h"
	.file	128 "/mnt/disk/jenkins/workspace/chipset_10.1.0_release_5G/opensource/component_code/vendor/huawei/extra/build/build_script/kirin_kernel_release/kernel/include/linux/nodemask.h"
	.file	129 "/mnt/disk/jenkins/workspace/chipset_10.1.0_release_5G/opensource/component_code/vendor/huawei/extra/build/build_script/kirin_kernel_release/kernel/include/linux/compat.h"
	.file	130 "/mnt/disk/jenkins/workspace/chipset_10.1.0_release_5G/opensource/component_code/vendor/huawei/extra/build/build_script/kirin_kernel_release/kernel/arch/arm64/include/asm/processor.h"
	.file	131 "/mnt/disk/jenkins/workspace/chipset_10.1.0_release_5G/opensource/component_code/vendor/huawei/extra/build/build_script/kirin_kernel_release/kernel/arch/arm64/include/uapi/asm/ptrace.h"
	.file	132 "/mnt/disk/jenkins/workspace/chipset_10.1.0_release_5G/opensource/component_code/vendor/huawei/extra/build/build_script/kirin_kernel_release/kernel/arch/arm64/include/asm/fpsimd.h"
	.file	133 "/mnt/disk/jenkins/workspace/chipset_10.1.0_release_5G/opensource/component_code/vendor/huawei/extra/build/build_script/kirin_kernel_release/kernel/include/linux/pm_wakeup.h"
	.file	134 "/mnt/disk/jenkins/workspace/chipset_10.1.0_release_5G/opensource/component_code/vendor/huawei/extra/build/build_script/kirin_kernel_release/kernel/include/linux/pinctrl/devinfo.h"
	.file	135 "/mnt/disk/jenkins/workspace/chipset_10.1.0_release_5G/opensource/component_code/vendor/huawei/extra/build/build_script/kirin_kernel_release/kernel/arch/arm64/include/asm/device.h"
	.file	136 "/mnt/disk/jenkins/workspace/chipset_10.1.0_release_5G/opensource/component_code/vendor/huawei/extra/build/build_script/kirin_kernel_release/kernel/include/linux/klist.h"
	.section	.text.hisi_blk_flush_work_fn,"ax",@progbits
	.hidden	hisi_blk_flush_work_fn  // -- Begin function hisi_blk_flush_work_fn
	.globl	hisi_blk_flush_work_fn
	.p2align	2
	.type	hisi_blk_flush_work_fn,@function
hisi_blk_flush_work_fn:                 // @hisi_blk_flush_work_fn
.Lfunc_begin0:
	.loc	2 22 0                  // /mnt/disk/jenkins/workspace/chipset_10.1.0_release_5G/opensource/component_code/vendor/huawei/extra/build/build_script/kirin_kernel_release/kernel/block/hisi-blk-flush.c:22:0
	.cfi_sections .debug_frame
	.cfi_startproc
// %bb.0:
	str	x19, [sp, #-32]!        // 8-byte Folded Spill
	stp	x29, x30, [sp, #16]     // 16-byte Folded Spill
	add	x29, sp, #16            // =16
	.cfi_def_cfa w29, 16
	.cfi_offset w30, -8
	.cfi_offset w29, -16
	.cfi_offset w19, -32
	//DEBUG_VALUE: hisi_blk_flush_work_fn:work <- $x0
	//DEBUG_VALUE: hisi_blk_flush_work_fn:work <- $x0
.Ltmp0:
	//DEBUG_VALUE: __mptr <- $x0
	//DEBUG_VALUE: __mptr <- $x0
	//DEBUG_VALUE: hisi_blk_flush_work_fn:member <- [DW_OP_constu 24, DW_OP_minus, DW_OP_stack_value] $x0
	//DEBUG_VALUE: hisi_blk_flush_work_fn:q <- [DW_OP_constu 24, DW_OP_minus, DW_OP_constu 1536, DW_OP_minus, DW_OP_stack_value] $x0
	.loc	2 27 55 prologue_end    // /mnt/disk/jenkins/workspace/chipset_10.1.0_release_5G/opensource/component_code/vendor/huawei/extra/build/build_script/kirin_kernel_release/kernel/block/hisi-blk-flush.c:27:55
	ldur	x0, [x0, #-24]
.Ltmp1:
	.loc	2 27 30 is_stmt 0       // /mnt/disk/jenkins/workspace/chipset_10.1.0_release_5G/opensource/component_code/vendor/huawei/extra/build/build_script/kirin_kernel_release/kernel/block/hisi-blk-flush.c:27:30
	mov	w1, wzr
	bl	bdget_disk
	.loc	2 29 6 is_stmt 1        // /mnt/disk/jenkins/workspace/chipset_10.1.0_release_5G/opensource/component_code/vendor/huawei/extra/build/build_script/kirin_kernel_release/kernel/block/hisi-blk-flush.c:29:6
	cbz	x0, .LBB0_6
// %bb.1:
.Ltmp2:
	.loc	2 30 13                 // /mnt/disk/jenkins/workspace/chipset_10.1.0_release_5G/opensource/component_code/vendor/huawei/extra/build/build_script/kirin_kernel_release/kernel/block/hisi-blk-flush.c:30:13
	orr	w1, wzr, #0x2
	mov	x2, xzr
.Ltmp3:
	.loc	2 0 0 is_stmt 0         // /mnt/disk/jenkins/workspace/chipset_10.1.0_release_5G/opensource/component_code/vendor/huawei/extra/build/build_script/kirin_kernel_release/kernel/block/hisi-blk-flush.c:0:0
	mov	x19, x0
.Ltmp4:
	//DEBUG_VALUE: hisi_blk_flush_work_fn:bdev <- $x19
	.loc	2 30 13                 // /mnt/disk/jenkins/workspace/chipset_10.1.0_release_5G/opensource/component_code/vendor/huawei/extra/build/build_script/kirin_kernel_release/kernel/block/hisi-blk-flush.c:30:13
	bl	blkdev_get
.Ltmp5:
	//DEBUG_VALUE: ret <- $w0
	.loc	2 32 7 is_stmt 1        // /mnt/disk/jenkins/workspace/chipset_10.1.0_release_5G/opensource/component_code/vendor/huawei/extra/build/build_script/kirin_kernel_release/kernel/block/hisi-blk-flush.c:32:7
	cbz	w0, .LBB0_3
.Ltmp6:
// %bb.2:
	//DEBUG_VALUE: ret <- $w0
	//DEBUG_VALUE: hisi_blk_flush_work_fn:bdev <- $x19
	.loc	2 33 4                  // /mnt/disk/jenkins/workspace/chipset_10.1.0_release_5G/opensource/component_code/vendor/huawei/extra/build/build_script/kirin_kernel_release/kernel/block/hisi-blk-flush.c:33:4
	adrp	x0, .L.str
.Ltmp7:
	adrp	x1, .L__func__.hisi_blk_flush_work_fn
	add	x0, x0, :lo12:.L.str
	add	x1, x1, :lo12:.L__func__.hisi_blk_flush_work_fn
	bl	printk
	b	.LBB0_6
.Ltmp8:
.LBB0_3:
	//DEBUG_VALUE: ret <- $w0
	//DEBUG_VALUE: hisi_blk_flush_work_fn:bdev <- $x19
	.loc	2 36 9                  // /mnt/disk/jenkins/workspace/chipset_10.1.0_release_5G/opensource/component_code/vendor/huawei/extra/build/build_script/kirin_kernel_release/kernel/block/hisi-blk-flush.c:36:9
	mov	w1, #192
	movk	w1, #320, lsl #16
	mov	x0, x19
.Ltmp9:
	mov	x2, xzr
	bl	blkdev_issue_flush
.Ltmp10:
	//DEBUG_VALUE: ret <- $w0
	.loc	2 37 7                  // /mnt/disk/jenkins/workspace/chipset_10.1.0_release_5G/opensource/component_code/vendor/huawei/extra/build/build_script/kirin_kernel_release/kernel/block/hisi-blk-flush.c:37:7
	cbz	w0, .LBB0_5
.Ltmp11:
// %bb.4:
	//DEBUG_VALUE: ret <- $w0
	//DEBUG_VALUE: hisi_blk_flush_work_fn:bdev <- $x19
	.loc	2 38 4                  // /mnt/disk/jenkins/workspace/chipset_10.1.0_release_5G/opensource/component_code/vendor/huawei/extra/build/build_script/kirin_kernel_release/kernel/block/hisi-blk-flush.c:38:4
	adrp	x0, .L.str.1
.Ltmp12:
	adrp	x1, .L__func__.hisi_blk_flush_work_fn
	add	x0, x0, :lo12:.L.str.1
	add	x1, x1, :lo12:.L__func__.hisi_blk_flush_work_fn
	bl	printk
.Ltmp13:
.LBB0_5:
	//DEBUG_VALUE: hisi_blk_flush_work_fn:bdev <- $x19
	.loc	2 39 3                  // /mnt/disk/jenkins/workspace/chipset_10.1.0_release_5G/opensource/component_code/vendor/huawei/extra/build/build_script/kirin_kernel_release/kernel/block/hisi-blk-flush.c:39:3
	orr	w1, wzr, #0x2
	mov	x0, x19
	bl	blkdev_put
.Ltmp14:
.LBB0_6:
	.loc	2 41 1                  // /mnt/disk/jenkins/workspace/chipset_10.1.0_release_5G/opensource/component_code/vendor/huawei/extra/build/build_script/kirin_kernel_release/kernel/block/hisi-blk-flush.c:41:1
	ldp	x29, x30, [sp, #16]     // 16-byte Folded Reload
	ldr	x19, [sp], #32          // 8-byte Folded Reload
	ret
.Ltmp15:
.Lfunc_end0:
	.size	hisi_blk_flush_work_fn, .Lfunc_end0-hisi_blk_flush_work_fn
	.cfi_endproc
                                        // -- End function
	.section	.text.hisi_blk_flush_sync_dispatch,"ax",@progbits
	.hidden	hisi_blk_flush_sync_dispatch // -- Begin function hisi_blk_flush_sync_dispatch
	.globl	hisi_blk_flush_sync_dispatch
	.p2align	2
	.type	hisi_blk_flush_sync_dispatch,@function
hisi_blk_flush_sync_dispatch:           // @hisi_blk_flush_sync_dispatch
.Lfunc_begin1:
	.loc	2 47 0                  // /mnt/disk/jenkins/workspace/chipset_10.1.0_release_5G/opensource/component_code/vendor/huawei/extra/build/build_script/kirin_kernel_release/kernel/block/hisi-blk-flush.c:47:0
	.cfi_startproc
// %bb.0:
	//DEBUG_VALUE: hisi_blk_flush_sync_dispatch:q <- $x0
	//DEBUG_VALUE: hisi_blk_flush_sync_dispatch:bio <- $x1
	//DEBUG_VALUE: hisi_blk_flush_sync_dispatch:bio <- $x1
	//DEBUG_VALUE: atomic_add:v <- [DW_OP_plus_uconst 1660, DW_OP_stack_value] $x0
	.loc	2 48 6 prologue_end     // /mnt/disk/jenkins/workspace/chipset_10.1.0_release_5G/opensource/component_code/vendor/huawei/extra/build/build_script/kirin_kernel_release/kernel/block/hisi-blk-flush.c:48:6
	ldr	w8, [x1, #16]
.Ltmp16:
	//DEBUG_VALUE: atomic_add:v <- [DW_OP_plus_uconst 1660, DW_OP_stack_value] $x0
	//DEBUG_VALUE: hisi_blk_flush_sync_dispatch:q <- $x0
	.loc	2 48 6 is_stmt 0        // /mnt/disk/jenkins/workspace/chipset_10.1.0_release_5G/opensource/component_code/vendor/huawei/extra/build/build_script/kirin_kernel_release/kernel/block/hisi-blk-flush.c:48:6
	tbnz	w8, #19, .LBB1_4
.Ltmp17:
.LBB1_1:
	//DEBUG_VALUE: hisi_blk_flush_sync_dispatch:bio <- $x1
	//DEBUG_VALUE: hisi_blk_flush_sync_dispatch:q <- $x0
	.loc	2 82 6 is_stmt 1        // /mnt/disk/jenkins/workspace/chipset_10.1.0_release_5G/opensource/component_code/vendor/huawei/extra/build/build_script/kirin_kernel_release/kernel/block/hisi-blk-flush.c:82:6
	and	w8, w8, #0xff
.Ltmp18:
	.loc	2 82 6 is_stmt 0        // /mnt/disk/jenkins/workspace/chipset_10.1.0_release_5G/opensource/component_code/vendor/huawei/extra/build/build_script/kirin_kernel_release/kernel/block/hisi-blk-flush.c:82:6
	cmp	w8, #1                  // =1
	b.ne	.LBB1_3
.Ltmp19:
// %bb.2:
	//DEBUG_VALUE: hisi_blk_flush_sync_dispatch:bio <- $x1
	//DEBUG_VALUE: hisi_blk_flush_sync_dispatch:q <- $x0
	//DEBUG_VALUE: atomic_add:i <- 1
	.file	137 "/mnt/disk/jenkins/workspace/chipset_10.1.0_release_5G/opensource/component_code/vendor/huawei/extra/build/build_script/kirin_kernel_release/kernel/arch/arm64/include/asm/atomic_ll_sc.h"
	.loc	137 113 1 is_stmt 1     // /mnt/disk/jenkins/workspace/chipset_10.1.0_release_5G/opensource/component_code/vendor/huawei/extra/build/build_script/kirin_kernel_release/kernel/arch/arm64/include/asm/atomic_ll_sc.h:113:1
	add	x8, x0, #1660           // =1660
	//APP
	// atomic_add
	prfm	pstl1strm, [x8]
1:	ldxr	w9, [x8]
	add	w9, w9, #1
	stxr	w10, w9, [x8]
	cbnz	w10, 1b
	//NO_APP
.Ltmp20:
.LBB1_3:
	//DEBUG_VALUE: hisi_blk_flush_sync_dispatch:bio <- $x1
	//DEBUG_VALUE: hisi_blk_flush_sync_dispatch:q <- $x0
	.loc	137 0 1 is_stmt 0       // /mnt/disk/jenkins/workspace/chipset_10.1.0_release_5G/opensource/component_code/vendor/huawei/extra/build/build_script/kirin_kernel_release/kernel/arch/arm64/include/asm/atomic_ll_sc.h:0:1
	orr	w0, wzr, #0x1
.Ltmp21:
	.loc	2 88 1 is_stmt 1        // /mnt/disk/jenkins/workspace/chipset_10.1.0_release_5G/opensource/component_code/vendor/huawei/extra/build/build_script/kirin_kernel_release/kernel/block/hisi-blk-flush.c:88:1
	ret
.Ltmp22:
.LBB1_4:
	//DEBUG_VALUE: hisi_blk_flush_sync_dispatch:bio <- $x1
	//DEBUG_VALUE: hisi_blk_flush_sync_dispatch:q <- $x0
	.loc	2 56 7                  // /mnt/disk/jenkins/workspace/chipset_10.1.0_release_5G/opensource/component_code/vendor/huawei/extra/build/build_script/kirin_kernel_release/kernel/block/hisi-blk-flush.c:56:7
	ldrb	w9, [x1, #138]
	cmp	w9, #1                  // =1
	b.ne	.LBB1_7
.Ltmp23:
// %bb.5:
	//DEBUG_VALUE: hisi_blk_flush_sync_dispatch:bio <- $x1
	//DEBUG_VALUE: hisi_blk_flush_sync_dispatch:q <- $x0
	ldr	w9, [x1, #48]
	cbnz	w9, .LBB1_7
.Ltmp24:
// %bb.6:
	//DEBUG_VALUE: hisi_blk_flush_sync_dispatch:bio <- $x1
	//DEBUG_VALUE: hisi_blk_flush_sync_dispatch:q <- $x0
	ldr	w9, [x0, #1680]
.Ltmp25:
	.loc	2 56 7 is_stmt 0        // /mnt/disk/jenkins/workspace/chipset_10.1.0_release_5G/opensource/component_code/vendor/huawei/extra/build/build_script/kirin_kernel_release/kernel/block/hisi-blk-flush.c:56:7
	cbnz	w9, .LBB1_10
.Ltmp26:
.LBB1_7:
	//DEBUG_VALUE: hisi_blk_flush_sync_dispatch:bio <- $x1
	//DEBUG_VALUE: hisi_blk_flush_sync_dispatch:q <- $x0
	//DEBUG_VALUE: __read_once_size:res <- undef
	//DEBUG_VALUE: __read_once_size:size <- 4
	//DEBUG_VALUE: __read_once_size:p <- [DW_OP_plus_uconst 1660, DW_OP_stack_value] $x0
	.file	138 "/mnt/disk/jenkins/workspace/chipset_10.1.0_release_5G/opensource/component_code/vendor/huawei/extra/build/build_script/kirin_kernel_release/kernel/include/linux/compiler.h"
	.loc	138 186 2 is_stmt 1     // /mnt/disk/jenkins/workspace/chipset_10.1.0_release_5G/opensource/component_code/vendor/huawei/extra/build/build_script/kirin_kernel_release/kernel/include/linux/compiler.h:186:2
	ldr	w9, [x0, #1660]
.Ltmp27:
	.loc	2 69 64                 // /mnt/disk/jenkins/workspace/chipset_10.1.0_release_5G/opensource/component_code/vendor/huawei/extra/build/build_script/kirin_kernel_release/kernel/block/hisi-blk-flush.c:69:64
	cbnz	w9, .LBB1_1
.Ltmp28:
// %bb.8:
	//DEBUG_VALUE: hisi_blk_flush_sync_dispatch:bio <- $x1
	//DEBUG_VALUE: hisi_blk_flush_sync_dispatch:q <- $x0
	.loc	2 70 18                 // /mnt/disk/jenkins/workspace/chipset_10.1.0_release_5G/opensource/component_code/vendor/huawei/extra/build/build_script/kirin_kernel_release/kernel/block/hisi-blk-flush.c:70:18
	ldr	w9, [x1, #48]
.Ltmp29:
	.loc	2 69 7                  // /mnt/disk/jenkins/workspace/chipset_10.1.0_release_5G/opensource/component_code/vendor/huawei/extra/build/build_script/kirin_kernel_release/kernel/block/hisi-blk-flush.c:69:7
	cbnz	w9, .LBB1_1
.Ltmp30:
// %bb.9:
	//DEBUG_VALUE: hisi_blk_flush_sync_dispatch:bio <- $x1
	//DEBUG_VALUE: hisi_blk_flush_sync_dispatch:q <- $x0
	.loc	2 0 0 is_stmt 0         // /mnt/disk/jenkins/workspace/chipset_10.1.0_release_5G/opensource/component_code/vendor/huawei/extra/build/build_script/kirin_kernel_release/kernel/block/hisi-blk-flush.c:0:0
	mov	w0, wzr
.Ltmp31:
	.loc	2 88 1 is_stmt 1        // /mnt/disk/jenkins/workspace/chipset_10.1.0_release_5G/opensource/component_code/vendor/huawei/extra/build/build_script/kirin_kernel_release/kernel/block/hisi-blk-flush.c:88:1
	ret
.Ltmp32:
.LBB1_10:
	//DEBUG_VALUE: hisi_blk_flush_sync_dispatch:bio <- $x1
	//DEBUG_VALUE: hisi_blk_flush_sync_dispatch:q <- $x0
	stp	x20, x19, [sp, #-32]!   // 16-byte Folded Spill
	stp	x29, x30, [sp, #16]     // 16-byte Folded Spill
	add	x29, sp, #16            // =16
	.cfi_def_cfa w29, 16
	.cfi_offset w30, -8
	.cfi_offset w29, -16
	.cfi_offset w19, -24
	.cfi_offset w20, -32
.Ltmp33:
	.loc	2 59 39                 // /mnt/disk/jenkins/workspace/chipset_10.1.0_release_5G/opensource/component_code/vendor/huawei/extra/build/build_script/kirin_kernel_release/kernel/block/hisi-blk-flush.c:59:39
	add	x19, x0, #1560          // =1560
	.loc	2 59 4 is_stmt 0        // /mnt/disk/jenkins/workspace/chipset_10.1.0_release_5G/opensource/component_code/vendor/huawei/extra/build/build_script/kirin_kernel_release/kernel/block/hisi-blk-flush.c:59:4
	mov	x0, x19
.Ltmp34:
	bl	cancel_delayed_work
.Ltmp35:
	.loc	2 60 23 is_stmt 1       // /mnt/disk/jenkins/workspace/chipset_10.1.0_release_5G/opensource/component_code/vendor/huawei/extra/build/build_script/kirin_kernel_release/kernel/block/hisi-blk-flush.c:60:23
	adrp	x8, blk_async_flush_workqueue
	ldr	x20, [x8, :lo12:blk_async_flush_workqueue]
.Ltmp36:
	//DEBUG_VALUE: msecs_to_jiffies:m <- 20
	.file	139 "/mnt/disk/jenkins/workspace/chipset_10.1.0_release_5G/opensource/component_code/vendor/huawei/extra/build/build_script/kirin_kernel_release/kernel/include/linux/jiffies.h"
	.loc	139 370 10              // /mnt/disk/jenkins/workspace/chipset_10.1.0_release_5G/opensource/component_code/vendor/huawei/extra/build/build_script/kirin_kernel_release/kernel/include/linux/jiffies.h:370:10
	mov	w0, #20
	bl	__msecs_to_jiffies
	mov	x3, x0
.Ltmp37:
	//DEBUG_VALUE: queue_delayed_work:delay <- $x3
	//DEBUG_VALUE: queue_delayed_work:wq <- $x20
	//DEBUG_VALUE: queue_delayed_work:dwork <- $x19
	.loc	28 506 9                // /mnt/disk/jenkins/workspace/chipset_10.1.0_release_5G/opensource/component_code/vendor/huawei/extra/build/build_script/kirin_kernel_release/kernel/include/linux/workqueue.h:506:9
	orr	w0, wzr, #0x8
	mov	x1, x20
	mov	x2, x19
	bl	queue_delayed_work_on
.Ltmp38:
	.loc	2 67 4                  // /mnt/disk/jenkins/workspace/chipset_10.1.0_release_5G/opensource/component_code/vendor/huawei/extra/build/build_script/kirin_kernel_release/kernel/block/hisi-blk-flush.c:67:4
	ldp	x29, x30, [sp, #16]     // 16-byte Folded Reload
.Ltmp39:
	.loc	2 0 0 is_stmt 0         // /mnt/disk/jenkins/workspace/chipset_10.1.0_release_5G/opensource/component_code/vendor/huawei/extra/build/build_script/kirin_kernel_release/kernel/block/hisi-blk-flush.c:0:0
	mov	w0, wzr
.Ltmp40:
	.loc	2 67 4                  // /mnt/disk/jenkins/workspace/chipset_10.1.0_release_5G/opensource/component_code/vendor/huawei/extra/build/build_script/kirin_kernel_release/kernel/block/hisi-blk-flush.c:67:4
	ldp	x20, x19, [sp], #32     // 16-byte Folded Reload
.Ltmp41:
	.loc	2 88 1 is_stmt 1        // /mnt/disk/jenkins/workspace/chipset_10.1.0_release_5G/opensource/component_code/vendor/huawei/extra/build/build_script/kirin_kernel_release/kernel/block/hisi-blk-flush.c:88:1
	ret
.Ltmp42:
.Lfunc_end1:
	.size	hisi_blk_flush_sync_dispatch, .Lfunc_end1-hisi_blk_flush_sync_dispatch
	.cfi_endproc
                                        // -- End function
	.section	.text.hisi_blk_flush_update,"ax",@progbits
	.hidden	hisi_blk_flush_update   // -- Begin function hisi_blk_flush_update
	.globl	hisi_blk_flush_update
	.p2align	2
	.type	hisi_blk_flush_update,@function
hisi_blk_flush_update:                  // @hisi_blk_flush_update
.Lfunc_begin2:
	.loc	2 91 0                  // /mnt/disk/jenkins/workspace/chipset_10.1.0_release_5G/opensource/component_code/vendor/huawei/extra/build/build_script/kirin_kernel_release/kernel/block/hisi-blk-flush.c:91:0
	.cfi_startproc
// %bb.0:
	//DEBUG_VALUE: hisi_blk_flush_update:req <- $x0
	//DEBUG_VALUE: hisi_blk_flush_update:req <- $x0
	//DEBUG_VALUE: hisi_blk_flush_update:error <- $w1
	//DEBUG_VALUE: hisi_blk_flush_update:error <- $w1
	.loc	2 92 6 prologue_end     // /mnt/disk/jenkins/workspace/chipset_10.1.0_release_5G/opensource/component_code/vendor/huawei/extra/build/build_script/kirin_kernel_release/kernel/block/hisi-blk-flush.c:92:6
	cbnz	w1, .LBB2_2
// %bb.1:
	//DEBUG_VALUE: hisi_blk_flush_update:error <- $w1
	//DEBUG_VALUE: hisi_blk_flush_update:req <- $x0
.Ltmp43:
	.loc	2 93 3                  // /mnt/disk/jenkins/workspace/chipset_10.1.0_release_5G/opensource/component_code/vendor/huawei/extra/build/build_script/kirin_kernel_release/kernel/block/hisi-blk-flush.c:93:3
	ldr	x8, [x0, #64]
.Ltmp44:
	//DEBUG_VALUE: __write_once_size:p <- [DW_OP_plus_uconst 1660, DW_OP_stack_value] $x8
	//DEBUG_VALUE: __write_once_size:size <- 4
	//DEBUG_VALUE: __write_once_size:res <- undef
	.loc	138 212 31              // /mnt/disk/jenkins/workspace/chipset_10.1.0_release_5G/opensource/component_code/vendor/huawei/extra/build/build_script/kirin_kernel_release/kernel/include/linux/compiler.h:212:31
	str	wzr, [x8, #1660]
.Ltmp45:
.LBB2_2:
	//DEBUG_VALUE: hisi_blk_flush_update:error <- $w1
	//DEBUG_VALUE: hisi_blk_flush_update:req <- $x0
	.loc	2 94 1                  // /mnt/disk/jenkins/workspace/chipset_10.1.0_release_5G/opensource/component_code/vendor/huawei/extra/build/build_script/kirin_kernel_release/kernel/block/hisi-blk-flush.c:94:1
	ret
.Ltmp46:
.Lfunc_end2:
	.size	hisi_blk_flush_update, .Lfunc_end2-hisi_blk_flush_update
	.cfi_endproc
                                        // -- End function
	.section	.text.blk_power_off_flush,"ax",@progbits
	.hidden	blk_power_off_flush     // -- Begin function blk_power_off_flush
	.globl	blk_power_off_flush
	.p2align	2
	.type	blk_power_off_flush,@function
blk_power_off_flush:                    // @blk_power_off_flush
.Lfunc_begin3:
	.loc	2 101 0                 // /mnt/disk/jenkins/workspace/chipset_10.1.0_release_5G/opensource/component_code/vendor/huawei/extra/build/build_script/kirin_kernel_release/kernel/block/hisi-blk-flush.c:101:0
	.cfi_startproc
// %bb.0:
	str	x27, [sp, #-96]!        // 8-byte Folded Spill
	stp	x26, x25, [sp, #16]     // 16-byte Folded Spill
	stp	x24, x23, [sp, #32]     // 16-byte Folded Spill
	stp	x22, x21, [sp, #48]     // 16-byte Folded Spill
	stp	x20, x19, [sp, #64]     // 16-byte Folded Spill
	stp	x29, x30, [sp, #80]     // 16-byte Folded Spill
	add	x29, sp, #80            // =80
	.cfi_def_cfa w29, 16
	.cfi_offset w30, -8
	.cfi_offset w29, -16
	.cfi_offset w19, -24
	.cfi_offset w20, -32
	.cfi_offset w21, -40
	.cfi_offset w22, -48
	.cfi_offset w23, -56
	.cfi_offset w24, -64
	.cfi_offset w25, -72
	.cfi_offset w26, -80
	.cfi_offset w27, -96
	//DEBUG_VALUE: blk_power_off_flush:emergency <- $w0
.Ltmp47:
	.loc	2 107 6 prologue_end    // /mnt/disk/jenkins/workspace/chipset_10.1.0_release_5G/opensource/component_code/vendor/huawei/extra/build/build_script/kirin_kernel_release/kernel/block/hisi-blk-flush.c:107:6
	adrp	x25, blk_power_off_flush_executing
	ldrb	w8, [x25, :lo12:blk_power_off_flush_executing]
.Ltmp48:
	.loc	2 107 6 is_stmt 0       // /mnt/disk/jenkins/workspace/chipset_10.1.0_release_5G/opensource/component_code/vendor/huawei/extra/build/build_script/kirin_kernel_release/kernel/block/hisi-blk-flush.c:107:6
	tbnz	w8, #0, .LBB3_12
.Ltmp49:
// %bb.1:
	//DEBUG_VALUE: blk_power_off_flush:emergency <- $w0
	.loc	2 0 6                   // /mnt/disk/jenkins/workspace/chipset_10.1.0_release_5G/opensource/component_code/vendor/huawei/extra/build/build_script/kirin_kernel_release/kernel/block/hisi-blk-flush.c:0:6
	mov	w2, w0
.Ltmp50:
	//DEBUG_VALUE: blk_power_off_flush:emergency <- $w2
	.loc	2 109 2 is_stmt 1       // /mnt/disk/jenkins/workspace/chipset_10.1.0_release_5G/opensource/component_code/vendor/huawei/extra/build/build_script/kirin_kernel_release/kernel/block/hisi-blk-flush.c:109:2
	adrp	x0, .L.str.2
	adrp	x1, .L__func__.blk_power_off_flush
	add	x0, x0, :lo12:.L.str.2
	add	x1, x1, :lo12:.L__func__.blk_power_off_flush
	bl	printk
.Ltmp51:
	.loc	2 111 2                 // /mnt/disk/jenkins/workspace/chipset_10.1.0_release_5G/opensource/component_code/vendor/huawei/extra/build/build_script/kirin_kernel_release/kernel/block/hisi-blk-flush.c:111:2
	adrp	x0, all_flush_q_lock
	orr	w8, wzr, #0x1
	add	x0, x0, :lo12:all_flush_q_lock
.Ltmp52:
	.loc	2 110 32                // /mnt/disk/jenkins/workspace/chipset_10.1.0_release_5G/opensource/component_code/vendor/huawei/extra/build/build_script/kirin_kernel_release/kernel/block/hisi-blk-flush.c:110:32
	strb	w8, [x25, :lo12:blk_power_off_flush_executing]
.Ltmp53:
	.loc	2 111 2                 // /mnt/disk/jenkins/workspace/chipset_10.1.0_release_5G/opensource/component_code/vendor/huawei/extra/build/build_script/kirin_kernel_release/kernel/block/hisi-blk-flush.c:111:2
	bl	_raw_spin_lock_irqsave
.Ltmp54:
	.loc	2 0 0 is_stmt 0         // /mnt/disk/jenkins/workspace/chipset_10.1.0_release_5G/opensource/component_code/vendor/huawei/extra/build/build_script/kirin_kernel_release/kernel/block/hisi-blk-flush.c:0:0
	adrp	x26, all_flush_q_list
	add	x26, x26, :lo12:all_flush_q_list
.Ltmp55:
	//DEBUG_VALUE: blk_power_off_flush:hisi_queue <- [DW_OP_deref, DW_OP_constu 128, DW_OP_minus, DW_OP_stack_value] $x26
	ldr	x27, [x26]
.Ltmp56:
	//DEBUG_VALUE: blk_power_off_flush:hisi_queue <- [DW_OP_constu 128, DW_OP_minus, DW_OP_stack_value] $x27
	.loc	2 111 2                 // /mnt/disk/jenkins/workspace/chipset_10.1.0_release_5G/opensource/component_code/vendor/huawei/extra/build/build_script/kirin_kernel_release/kernel/block/hisi-blk-flush.c:111:2
	mov	x19, x0
.Ltmp57:
	//DEBUG_VALUE: blk_power_off_flush:flag <- $x19
	//DEBUG_VALUE: spin_unlock_irqrestore:flags <- $x19
	.loc	2 112 2 is_stmt 1       // /mnt/disk/jenkins/workspace/chipset_10.1.0_release_5G/opensource/component_code/vendor/huawei/extra/build/build_script/kirin_kernel_release/kernel/block/hisi-blk-flush.c:112:2
	cmp	x27, x26
	b.eq	.LBB3_11
.Ltmp58:
// %bb.2:
	//DEBUG_VALUE: spin_unlock_irqrestore:flags <- $x19
	//DEBUG_VALUE: blk_power_off_flush:flag <- $x19
	//DEBUG_VALUE: blk_power_off_flush:hisi_queue <- [DW_OP_constu 128, DW_OP_minus, DW_OP_stack_value] $x27
	.loc	2 0 2 is_stmt 0         // /mnt/disk/jenkins/workspace/chipset_10.1.0_release_5G/opensource/component_code/vendor/huawei/extra/build/build_script/kirin_kernel_release/kernel/block/hisi-blk-flush.c:0:2
	adrp	x20, .L.str.4
	adrp	x21, .L__func__.blk_power_off_flush
	adrp	x22, .L.str.3
	add	x20, x20, :lo12:.L.str.4
	add	x21, x21, :lo12:.L__func__.blk_power_off_flush
	add	x22, x22, :lo12:.L.str.3
.Ltmp59:
.LBB3_3:                                // =>This Inner Loop Header: Depth=1
	//DEBUG_VALUE: blk_power_off_flush:flag <- $x19
	//DEBUG_VALUE: blk_power_off_flush:hisi_queue <- [DW_OP_constu 128, DW_OP_minus, DW_OP_stack_value] $x27
	//DEBUG_VALUE: __mptr <- [DW_OP_constu 128, DW_OP_minus, DW_OP_stack_value] $x27
	.loc	2 113 19 is_stmt 1      // /mnt/disk/jenkins/workspace/chipset_10.1.0_release_5G/opensource/component_code/vendor/huawei/extra/build/build_script/kirin_kernel_release/kernel/block/hisi-blk-flush.c:113:19
	ldurb	w8, [x27, #-120]
.Ltmp60:
	.loc	2 113 7 is_stmt 0       // /mnt/disk/jenkins/workspace/chipset_10.1.0_release_5G/opensource/component_code/vendor/huawei/extra/build/build_script/kirin_kernel_release/kernel/block/hisi-blk-flush.c:113:7
	cbz	w8, .LBB3_10
.Ltmp61:
// %bb.4:                               //   in Loop: Header=BB3_3 Depth=1
	//DEBUG_VALUE: __mptr <- [DW_OP_constu 128, DW_OP_minus, DW_OP_stack_value] $x27
	//DEBUG_VALUE: blk_power_off_flush:flag <- $x19
	//DEBUG_VALUE: blk_power_off_flush:hisi_queue <- [DW_OP_constu 128, DW_OP_minus, DW_OP_stack_value] $x27
	.loc	2 114 32 is_stmt 1      // /mnt/disk/jenkins/workspace/chipset_10.1.0_release_5G/opensource/component_code/vendor/huawei/extra/build/build_script/kirin_kernel_release/kernel/block/hisi-blk-flush.c:114:32
	sub	x23, x27, #1664         // =1664
.Ltmp62:
	//DEBUG_VALUE: blk_power_off_flush:q <- $x23
	.loc	2 116 14                // /mnt/disk/jenkins/workspace/chipset_10.1.0_release_5G/opensource/component_code/vendor/huawei/extra/build/build_script/kirin_kernel_release/kernel/block/hisi-blk-flush.c:116:14
	mov	x0, x23
	bl	hisi_blk_get_lld
.Ltmp63:
	.loc	2 117 16                // /mnt/disk/jenkins/workspace/chipset_10.1.0_release_5G/opensource/component_code/vendor/huawei/extra/build/build_script/kirin_kernel_release/kernel/block/hisi-blk-flush.c:117:16
	cbz	x0, .LBB3_10
.Ltmp64:
// %bb.5:                               //   in Loop: Header=BB3_3 Depth=1
	//DEBUG_VALUE: blk_power_off_flush:q <- $x23
	//DEBUG_VALUE: blk_power_off_flush:flag <- $x19
	//DEBUG_VALUE: blk_power_off_flush:hisi_queue <- [DW_OP_constu 128, DW_OP_minus, DW_OP_stack_value] $x27
	.loc	2 117 28 is_stmt 0      // /mnt/disk/jenkins/workspace/chipset_10.1.0_release_5G/opensource/component_code/vendor/huawei/extra/build/build_script/kirin_kernel_release/kernel/block/hisi-blk-flush.c:117:28
	ldr	x8, [x0, #56]
.Ltmp65:
	.loc	2 0 0                   // /mnt/disk/jenkins/workspace/chipset_10.1.0_release_5G/opensource/component_code/vendor/huawei/extra/build/build_script/kirin_kernel_release/kernel/block/hisi-blk-flush.c:0:0
	mov	x24, x0
.Ltmp66:
	//DEBUG_VALUE: blk_power_off_flush:blk_lld <- $x24
	.loc	2 117 8                 // /mnt/disk/jenkins/workspace/chipset_10.1.0_release_5G/opensource/component_code/vendor/huawei/extra/build/build_script/kirin_kernel_release/kernel/block/hisi-blk-flush.c:117:8
	cbz	x8, .LBB3_10
.Ltmp67:
// %bb.6:                               //   in Loop: Header=BB3_3 Depth=1
	//DEBUG_VALUE: blk_power_off_flush:blk_lld <- $x24
	//DEBUG_VALUE: blk_power_off_flush:q <- $x23
	//DEBUG_VALUE: blk_power_off_flush:flag <- $x19
	//DEBUG_VALUE: blk_power_off_flush:hisi_queue <- [DW_OP_constu 128, DW_OP_minus, DW_OP_stack_value] $x27
	.loc	2 118 23 is_stmt 1      // /mnt/disk/jenkins/workspace/chipset_10.1.0_release_5G/opensource/component_code/vendor/huawei/extra/build/build_script/kirin_kernel_release/kernel/block/hisi-blk-flush.c:118:23
	ldur	x9, [x27, #-128]
.Ltmp68:
	.loc	2 118 9 is_stmt 0       // /mnt/disk/jenkins/workspace/chipset_10.1.0_release_5G/opensource/component_code/vendor/huawei/extra/build/build_script/kirin_kernel_release/kernel/block/hisi-blk-flush.c:118:9
	cbz	x9, .LBB3_8
.Ltmp69:
// %bb.7:                               //   in Loop: Header=BB3_3 Depth=1
	//DEBUG_VALUE: blk_power_off_flush:blk_lld <- $x24
	//DEBUG_VALUE: blk_power_off_flush:q <- $x23
	//DEBUG_VALUE: blk_power_off_flush:flag <- $x19
	//DEBUG_VALUE: blk_power_off_flush:hisi_queue <- [DW_OP_constu 128, DW_OP_minus, DW_OP_stack_value] $x27
	.loc	2 119 6 is_stmt 1       // /mnt/disk/jenkins/workspace/chipset_10.1.0_release_5G/opensource/component_code/vendor/huawei/extra/build/build_script/kirin_kernel_release/kernel/block/hisi-blk-flush.c:119:6
	add	x2, x9, #12             // =12
	mov	x0, x22
	mov	x1, x21
	bl	printk
.Ltmp70:
	.loc	2 124 14                // /mnt/disk/jenkins/workspace/chipset_10.1.0_release_5G/opensource/component_code/vendor/huawei/extra/build/build_script/kirin_kernel_release/kernel/block/hisi-blk-flush.c:124:14
	ldr	x8, [x24, #56]
.Ltmp71:
.LBB3_8:                                //   in Loop: Header=BB3_3 Depth=1
	//DEBUG_VALUE: blk_power_off_flush:blk_lld <- $x24
	//DEBUG_VALUE: blk_power_off_flush:q <- $x23
	//DEBUG_VALUE: blk_power_off_flush:flag <- $x19
	//DEBUG_VALUE: blk_power_off_flush:hisi_queue <- [DW_OP_constu 128, DW_OP_minus, DW_OP_stack_value] $x27
	.loc	2 124 5 is_stmt 0       // /mnt/disk/jenkins/workspace/chipset_10.1.0_release_5G/opensource/component_code/vendor/huawei/extra/build/build_script/kirin_kernel_release/kernel/block/hisi-blk-flush.c:124:5
	mov	x0, x23
	blr	x8
.Ltmp72:
	.loc	2 125 23 is_stmt 1      // /mnt/disk/jenkins/workspace/chipset_10.1.0_release_5G/opensource/component_code/vendor/huawei/extra/build/build_script/kirin_kernel_release/kernel/block/hisi-blk-flush.c:125:23
	ldur	x8, [x27, #-128]
.Ltmp73:
	.loc	2 125 9 is_stmt 0       // /mnt/disk/jenkins/workspace/chipset_10.1.0_release_5G/opensource/component_code/vendor/huawei/extra/build/build_script/kirin_kernel_release/kernel/block/hisi-blk-flush.c:125:9
	cbz	x8, .LBB3_10
.Ltmp74:
// %bb.9:                               //   in Loop: Header=BB3_3 Depth=1
	//DEBUG_VALUE: blk_power_off_flush:blk_lld <- $x24
	//DEBUG_VALUE: blk_power_off_flush:q <- $x23
	//DEBUG_VALUE: blk_power_off_flush:flag <- $x19
	//DEBUG_VALUE: blk_power_off_flush:hisi_queue <- [DW_OP_constu 128, DW_OP_minus, DW_OP_stack_value] $x27
	.loc	2 126 6 is_stmt 1       // /mnt/disk/jenkins/workspace/chipset_10.1.0_release_5G/opensource/component_code/vendor/huawei/extra/build/build_script/kirin_kernel_release/kernel/block/hisi-blk-flush.c:126:6
	add	x2, x8, #12             // =12
	mov	x0, x20
	mov	x1, x21
	bl	printk
.Ltmp75:
.LBB3_10:                               //   in Loop: Header=BB3_3 Depth=1
	//DEBUG_VALUE: blk_power_off_flush:flag <- $x19
	//DEBUG_VALUE: blk_power_off_flush:hisi_queue <- [DW_OP_constu 128, DW_OP_minus, DW_OP_stack_value] $x27
	//DEBUG_VALUE: blk_power_off_flush:hisi_queue <- [DW_OP_deref, DW_OP_constu 128, DW_OP_minus, DW_OP_stack_value] $x27
	//DEBUG_VALUE: __mptr <- [DW_OP_deref] $x27
	.loc	2 0 0 is_stmt 0         // /mnt/disk/jenkins/workspace/chipset_10.1.0_release_5G/opensource/component_code/vendor/huawei/extra/build/build_script/kirin_kernel_release/kernel/block/hisi-blk-flush.c:0:0
	ldr	x27, [x27]
.Ltmp76:
	//DEBUG_VALUE: blk_power_off_flush:hisi_queue <- [DW_OP_constu 128, DW_OP_minus, DW_OP_stack_value] $x27
	.loc	2 112 2 is_stmt 1       // /mnt/disk/jenkins/workspace/chipset_10.1.0_release_5G/opensource/component_code/vendor/huawei/extra/build/build_script/kirin_kernel_release/kernel/block/hisi-blk-flush.c:112:2
	cmp	x27, x26
	b.ne	.LBB3_3
.Ltmp77:
.LBB3_11:
	//DEBUG_VALUE: blk_power_off_flush:flag <- $x19
	//DEBUG_VALUE: blk_power_off_flush:hisi_queue <- [DW_OP_constu 128, DW_OP_minus, DW_OP_stack_value] $x27
	.file	140 "/mnt/disk/jenkins/workspace/chipset_10.1.0_release_5G/opensource/component_code/vendor/huawei/extra/build/build_script/kirin_kernel_release/kernel/include/linux/spinlock.h"
	.loc	140 372 2               // /mnt/disk/jenkins/workspace/chipset_10.1.0_release_5G/opensource/component_code/vendor/huawei/extra/build/build_script/kirin_kernel_release/kernel/include/linux/spinlock.h:372:2
	adrp	x0, all_flush_q_lock
	add	x0, x0, :lo12:all_flush_q_lock
.Ltmp78:
	//DEBUG_VALUE: spin_unlock_irqrestore:lock <- $x0
	mov	x1, x19
	bl	_raw_spin_unlock_irqrestore
.Ltmp79:
	.loc	2 136 2                 // /mnt/disk/jenkins/workspace/chipset_10.1.0_release_5G/opensource/component_code/vendor/huawei/extra/build/build_script/kirin_kernel_release/kernel/block/hisi-blk-flush.c:136:2
	adrp	x0, .L.str.5
	adrp	x1, .L__func__.blk_power_off_flush
	add	x0, x0, :lo12:.L.str.5
	add	x1, x1, :lo12:.L__func__.blk_power_off_flush
	.loc	2 135 32                // /mnt/disk/jenkins/workspace/chipset_10.1.0_release_5G/opensource/component_code/vendor/huawei/extra/build/build_script/kirin_kernel_release/kernel/block/hisi-blk-flush.c:135:32
	strb	wzr, [x25, :lo12:blk_power_off_flush_executing]
	.loc	2 136 2                 // /mnt/disk/jenkins/workspace/chipset_10.1.0_release_5G/opensource/component_code/vendor/huawei/extra/build/build_script/kirin_kernel_release/kernel/block/hisi-blk-flush.c:136:2
	bl	printk
.Ltmp80:
.LBB3_12:
	.loc	2 137 1                 // /mnt/disk/jenkins/workspace/chipset_10.1.0_release_5G/opensource/component_code/vendor/huawei/extra/build/build_script/kirin_kernel_release/kernel/block/hisi-blk-flush.c:137:1
	ldp	x29, x30, [sp, #80]     // 16-byte Folded Reload
	ldp	x20, x19, [sp, #64]     // 16-byte Folded Reload
	ldp	x22, x21, [sp, #48]     // 16-byte Folded Reload
	ldp	x24, x23, [sp, #32]     // 16-byte Folded Reload
	ldp	x26, x25, [sp, #16]     // 16-byte Folded Reload
	ldr	x27, [sp], #96          // 8-byte Folded Reload
	ret
.Ltmp81:
.Lfunc_end3:
	.size	blk_power_off_flush, .Lfunc_end3-blk_power_off_flush
	.cfi_endproc
                                        // -- End function
	.section	.text.hisi_blk_poweroff_flush_notifier_call,"ax",@progbits
	.hidden	hisi_blk_poweroff_flush_notifier_call // -- Begin function hisi_blk_poweroff_flush_notifier_call
	.globl	hisi_blk_poweroff_flush_notifier_call
	.p2align	2
	.type	hisi_blk_poweroff_flush_notifier_call,@function
hisi_blk_poweroff_flush_notifier_call:  // @hisi_blk_poweroff_flush_notifier_call
.Lfunc_begin4:
	.loc	2 142 0                 // /mnt/disk/jenkins/workspace/chipset_10.1.0_release_5G/opensource/component_code/vendor/huawei/extra/build/build_script/kirin_kernel_release/kernel/block/hisi-blk-flush.c:142:0
	.cfi_startproc
// %bb.0:
	//DEBUG_VALUE: hisi_blk_poweroff_flush_notifier_call:powerkey_nb <- $x0
	//DEBUG_VALUE: hisi_blk_poweroff_flush_notifier_call:event <- $x1
	//DEBUG_VALUE: hisi_blk_poweroff_flush_notifier_call:event <- $x1
	//DEBUG_VALUE: hisi_blk_poweroff_flush_notifier_call:data <- $x2
	.loc	2 143 6 prologue_end    // /mnt/disk/jenkins/workspace/chipset_10.1.0_release_5G/opensource/component_code/vendor/huawei/extra/build/build_script/kirin_kernel_release/kernel/block/hisi-blk-flush.c:143:6
	cmp	x1, #3                  // =3
	b.ne	.LBB4_2
.Ltmp82:
// %bb.1:
	//DEBUG_VALUE: hisi_blk_poweroff_flush_notifier_call:data <- $x2
	//DEBUG_VALUE: hisi_blk_poweroff_flush_notifier_call:event <- $x1
	//DEBUG_VALUE: hisi_blk_poweroff_flush_notifier_call:powerkey_nb <- $x0
	stp	x29, x30, [sp, #-16]!   // 16-byte Folded Spill
	mov	x29, sp
	.cfi_def_cfa w29, 16
	.cfi_offset w30, -8
	.cfi_offset w29, -16
.Ltmp83:
	.loc	2 144 3                 // /mnt/disk/jenkins/workspace/chipset_10.1.0_release_5G/opensource/component_code/vendor/huawei/extra/build/build_script/kirin_kernel_release/kernel/block/hisi-blk-flush.c:144:3
	orr	w0, wzr, #0x1
.Ltmp84:
	bl	blk_power_off_flush
.Ltmp85:
	.loc	2 0 3 is_stmt 0         // /mnt/disk/jenkins/workspace/chipset_10.1.0_release_5G/opensource/component_code/vendor/huawei/extra/build/build_script/kirin_kernel_release/kernel/block/hisi-blk-flush.c:0:3
	ldp	x29, x30, [sp], #16     // 16-byte Folded Reload
.Ltmp86:
.LBB4_2:
	.loc	2 145 2 is_stmt 1       // /mnt/disk/jenkins/workspace/chipset_10.1.0_release_5G/opensource/component_code/vendor/huawei/extra/build/build_script/kirin_kernel_release/kernel/block/hisi-blk-flush.c:145:2
	mov	w0, wzr
	ret
.Ltmp87:
.Lfunc_end4:
	.size	hisi_blk_poweroff_flush_notifier_call, .Lfunc_end4-hisi_blk_poweroff_flush_notifier_call
	.cfi_endproc
                                        // -- End function
	.section	.init.text,"ax",@progbits
	.hidden	hisi_blk_flush_init     // -- Begin function hisi_blk_flush_init
	.globl	hisi_blk_flush_init
	.p2align	2
	.type	hisi_blk_flush_init,@function
hisi_blk_flush_init:                    // @hisi_blk_flush_init
.Lfunc_begin5:
	.loc	2 154 0                 // /mnt/disk/jenkins/workspace/chipset_10.1.0_release_5G/opensource/component_code/vendor/huawei/extra/build/build_script/kirin_kernel_release/kernel/block/hisi-blk-flush.c:154:0
	.cfi_startproc
// %bb.0:
	stp	x29, x30, [sp, #-16]!   // 16-byte Folded Spill
	mov	x29, sp
	.cfi_def_cfa w29, 16
	.cfi_offset w30, -8
	.cfi_offset w29, -16
.Ltmp88:
	.loc	2 155 9 prologue_end    // /mnt/disk/jenkins/workspace/chipset_10.1.0_release_5G/opensource/component_code/vendor/huawei/extra/build/build_script/kirin_kernel_release/kernel/block/hisi-blk-flush.c:155:9
	adrp	x0, hisi_blk_poweroff_flush_nb
	add	x0, x0, :lo12:hisi_blk_poweroff_flush_nb
	bl	hisi_powerkey_register_notifier
	.loc	2 155 2 is_stmt 0       // /mnt/disk/jenkins/workspace/chipset_10.1.0_release_5G/opensource/component_code/vendor/huawei/extra/build/build_script/kirin_kernel_release/kernel/block/hisi-blk-flush.c:155:2
	ldp	x29, x30, [sp], #16     // 16-byte Folded Reload
	ret
.Ltmp89:
.Lfunc_end5:
	.size	hisi_blk_flush_init, .Lfunc_end5-hisi_blk_flush_init
	.cfi_endproc
                                        // -- End function
	.section	.exit.text,"ax",@progbits
	.hidden	hisi_blk_flush_exit     // -- Begin function hisi_blk_flush_exit
	.globl	hisi_blk_flush_exit
	.p2align	2
	.type	hisi_blk_flush_exit,@function
hisi_blk_flush_exit:                    // @hisi_blk_flush_exit
.Lfunc_begin6:
	.loc	2 159 0 is_stmt 1       // /mnt/disk/jenkins/workspace/chipset_10.1.0_release_5G/opensource/component_code/vendor/huawei/extra/build/build_script/kirin_kernel_release/kernel/block/hisi-blk-flush.c:159:0
	.cfi_startproc
// %bb.0:
	.loc	2 160 1 prologue_end    // /mnt/disk/jenkins/workspace/chipset_10.1.0_release_5G/opensource/component_code/vendor/huawei/extra/build/build_script/kirin_kernel_release/kernel/block/hisi-blk-flush.c:160:1
	ret
.Ltmp90:
.Lfunc_end6:
	.size	hisi_blk_flush_exit, .Lfunc_end6-hisi_blk_flush_exit
	.cfi_endproc
                                        // -- End function
	.section	.text.hisi_blk_flush_reduced_queue_unregister,"ax",@progbits
	.hidden	hisi_blk_flush_reduced_queue_unregister // -- Begin function hisi_blk_flush_reduced_queue_unregister
	.globl	hisi_blk_flush_reduced_queue_unregister
	.p2align	2
	.type	hisi_blk_flush_reduced_queue_unregister,@function
hisi_blk_flush_reduced_queue_unregister: // @hisi_blk_flush_reduced_queue_unregister
.Lfunc_begin7:
	.loc	2 175 0                 // /mnt/disk/jenkins/workspace/chipset_10.1.0_release_5G/opensource/component_code/vendor/huawei/extra/build/build_script/kirin_kernel_release/kernel/block/hisi-blk-flush.c:175:0
	.cfi_startproc
// %bb.0:
	stp	x20, x19, [sp, #-32]!   // 16-byte Folded Spill
	stp	x29, x30, [sp, #16]     // 16-byte Folded Spill
	add	x29, sp, #16            // =16
	.cfi_def_cfa w29, 16
	.cfi_offset w30, -8
	.cfi_offset w29, -16
	.cfi_offset w19, -24
	.cfi_offset w20, -32
	//DEBUG_VALUE: hisi_blk_flush_reduced_queue_unregister:q <- $x0
.Ltmp91:
	//DEBUG_VALUE: list_del:entry <- [DW_OP_plus_uconst 1664, DW_OP_stack_value] $x0
	//DEBUG_VALUE: __list_del_entry:entry <- [DW_OP_plus_uconst 1664, DW_OP_stack_value] $x0
	.loc	2 178 20 prologue_end   // /mnt/disk/jenkins/workspace/chipset_10.1.0_release_5G/opensource/component_code/vendor/huawei/extra/build/build_script/kirin_kernel_release/kernel/block/hisi-blk-flush.c:178:20
	ldr	w8, [x0, #1680]
.Ltmp92:
	.loc	2 178 6 is_stmt 0       // /mnt/disk/jenkins/workspace/chipset_10.1.0_release_5G/opensource/component_code/vendor/huawei/extra/build/build_script/kirin_kernel_release/kernel/block/hisi-blk-flush.c:178:6
	cbz	w8, .LBB7_4
.Ltmp93:
// %bb.1:
	//DEBUG_VALUE: __list_del_entry:entry <- [DW_OP_plus_uconst 1664, DW_OP_stack_value] $x0
	//DEBUG_VALUE: list_del:entry <- [DW_OP_plus_uconst 1664, DW_OP_stack_value] $x0
	//DEBUG_VALUE: hisi_blk_flush_reduced_queue_unregister:q <- $x0
	.loc	2 179 38 is_stmt 1      // /mnt/disk/jenkins/workspace/chipset_10.1.0_release_5G/opensource/component_code/vendor/huawei/extra/build/build_script/kirin_kernel_release/kernel/block/hisi-blk-flush.c:179:38
	ldr	x8, [x0, #1664]
	mov	x19, x0
.Ltmp94:
	//DEBUG_VALUE: hisi_blk_flush_reduced_queue_unregister:q <- $x19
	//DEBUG_VALUE: list_del:entry <- [DW_OP_plus_uconst 1664, DW_OP_stack_value] $x19
	//DEBUG_VALUE: __list_del_entry:entry <- [DW_OP_plus_uconst 1664, DW_OP_stack_value] $x19
	.loc	2 179 51 is_stmt 0      // /mnt/disk/jenkins/workspace/chipset_10.1.0_release_5G/opensource/component_code/vendor/huawei/extra/build/build_script/kirin_kernel_release/kernel/block/hisi-blk-flush.c:179:51
	cbz	x8, .LBB7_4
.Ltmp95:
// %bb.2:
	//DEBUG_VALUE: hisi_blk_flush_reduced_queue_unregister:q <- $x19
	.loc	2 180 34 is_stmt 1      // /mnt/disk/jenkins/workspace/chipset_10.1.0_release_5G/opensource/component_code/vendor/huawei/extra/build/build_script/kirin_kernel_release/kernel/block/hisi-blk-flush.c:180:34
	ldr	x8, [x19, #1672]
.Ltmp96:
	.loc	2 179 7                 // /mnt/disk/jenkins/workspace/chipset_10.1.0_release_5G/opensource/component_code/vendor/huawei/extra/build/build_script/kirin_kernel_release/kernel/block/hisi-blk-flush.c:179:7
	cbz	x8, .LBB7_4
.Ltmp97:
// %bb.3:
	//DEBUG_VALUE: hisi_blk_flush_reduced_queue_unregister:q <- $x19
	.loc	2 186 3                 // /mnt/disk/jenkins/workspace/chipset_10.1.0_release_5G/opensource/component_code/vendor/huawei/extra/build/build_script/kirin_kernel_release/kernel/block/hisi-blk-flush.c:186:3
	adrp	x20, all_flush_q_lock
	add	x20, x20, :lo12:all_flush_q_lock
	mov	x0, x20
	bl	_raw_spin_lock_irqsave
.Ltmp98:
	.file	141 "/mnt/disk/jenkins/workspace/chipset_10.1.0_release_5G/opensource/component_code/vendor/huawei/extra/build/build_script/kirin_kernel_release/kernel/include/linux/list.h"
	.loc	141 120 20              // /mnt/disk/jenkins/workspace/chipset_10.1.0_release_5G/opensource/component_code/vendor/huawei/extra/build/build_script/kirin_kernel_release/kernel/include/linux/list.h:120:20
	ldr	x8, [x19, #1672]
	.loc	141 120 33 is_stmt 0    // /mnt/disk/jenkins/workspace/chipset_10.1.0_release_5G/opensource/component_code/vendor/huawei/extra/build/build_script/kirin_kernel_release/kernel/include/linux/list.h:120:33
	ldr	x9, [x19, #1664]
.Ltmp99:
	//DEBUG_VALUE: __write_once_size:res <- undef
	.loc	141 0 33                // /mnt/disk/jenkins/workspace/chipset_10.1.0_release_5G/opensource/component_code/vendor/huawei/extra/build/build_script/kirin_kernel_release/kernel/include/linux/list.h:0:33
	mov	x10, #256
	movk	x10, #57005, lsl #48
.Ltmp100:
	.loc	2 186 3 is_stmt 1       // /mnt/disk/jenkins/workspace/chipset_10.1.0_release_5G/opensource/component_code/vendor/huawei/extra/build/build_script/kirin_kernel_release/kernel/block/hisi-blk-flush.c:186:3
	mov	x1, x0
.Ltmp101:
	//DEBUG_VALUE: hisi_blk_flush_reduced_queue_unregister:flag <- $x1
	.loc	141 127 14              // /mnt/disk/jenkins/workspace/chipset_10.1.0_release_5G/opensource/component_code/vendor/huawei/extra/build/build_script/kirin_kernel_release/kernel/include/linux/list.h:127:14
	add	x11, x10, #256          // =256
.Ltmp102:
	//DEBUG_VALUE: __list_del:next <- $x9
	//DEBUG_VALUE: __list_del:prev <- $x8
	.loc	140 372 2               // /mnt/disk/jenkins/workspace/chipset_10.1.0_release_5G/opensource/component_code/vendor/huawei/extra/build/build_script/kirin_kernel_release/kernel/include/linux/spinlock.h:372:2
	mov	x0, x20
.Ltmp103:
	.loc	141 105 13              // /mnt/disk/jenkins/workspace/chipset_10.1.0_release_5G/opensource/component_code/vendor/huawei/extra/build/build_script/kirin_kernel_release/kernel/include/linux/list.h:105:13
	str	x8, [x9, #8]
.Ltmp104:
	//DEBUG_VALUE: __write_once_size:p <- $x8
	//DEBUG_VALUE: __write_once_size:size <- 8
	.loc	138 213 31              // /mnt/disk/jenkins/workspace/chipset_10.1.0_release_5G/opensource/component_code/vendor/huawei/extra/build/build_script/kirin_kernel_release/kernel/include/linux/compiler.h:213:31
	str	x9, [x8]
.Ltmp105:
	.loc	141 126 14              // /mnt/disk/jenkins/workspace/chipset_10.1.0_release_5G/opensource/component_code/vendor/huawei/extra/build/build_script/kirin_kernel_release/kernel/include/linux/list.h:126:14
	str	x10, [x19, #1664]
	.loc	141 127 14              // /mnt/disk/jenkins/workspace/chipset_10.1.0_release_5G/opensource/component_code/vendor/huawei/extra/build/build_script/kirin_kernel_release/kernel/include/linux/list.h:127:14
	str	x11, [x19, #1672]
.Ltmp106:
	//DEBUG_VALUE: spin_unlock_irqrestore:flags <- $x1
	//DEBUG_VALUE: spin_unlock_irqrestore:lock <- $x20
	.loc	140 372 2               // /mnt/disk/jenkins/workspace/chipset_10.1.0_release_5G/opensource/component_code/vendor/huawei/extra/build/build_script/kirin_kernel_release/kernel/include/linux/spinlock.h:372:2
	bl	_raw_spin_unlock_irqrestore
.Ltmp107:
.LBB7_4:
	.loc	2 190 1                 // /mnt/disk/jenkins/workspace/chipset_10.1.0_release_5G/opensource/component_code/vendor/huawei/extra/build/build_script/kirin_kernel_release/kernel/block/hisi-blk-flush.c:190:1
	ldp	x29, x30, [sp, #16]     // 16-byte Folded Reload
	ldp	x20, x19, [sp], #32     // 16-byte Folded Reload
	ret
.Ltmp108:
.Lfunc_end7:
	.size	hisi_blk_flush_reduced_queue_unregister, .Lfunc_end7-hisi_blk_flush_reduced_queue_unregister
	.cfi_endproc
                                        // -- End function
	.section	.text.blk_mq_tagset_direct_flush_register,"ax",@progbits
	.hidden	blk_mq_tagset_direct_flush_register // -- Begin function blk_mq_tagset_direct_flush_register
	.globl	blk_mq_tagset_direct_flush_register
	.p2align	2
	.type	blk_mq_tagset_direct_flush_register,@function
blk_mq_tagset_direct_flush_register:    // @blk_mq_tagset_direct_flush_register
.Lfunc_begin8:
	.loc	2 197 0                 // /mnt/disk/jenkins/workspace/chipset_10.1.0_release_5G/opensource/component_code/vendor/huawei/extra/build/build_script/kirin_kernel_release/kernel/block/hisi-blk-flush.c:197:0
	.cfi_startproc
// %bb.0:
	//DEBUG_VALUE: blk_mq_tagset_direct_flush_register:tag_set <- $x0
	//DEBUG_VALUE: blk_mq_tagset_direct_flush_register:tag_set <- $x0
	//DEBUG_VALUE: blk_mq_tagset_direct_flush_register:func <- $x1
	//DEBUG_VALUE: blk_mq_tagset_direct_flush_register:func <- $x1
	.loc	2 198 29 prologue_end   // /mnt/disk/jenkins/workspace/chipset_10.1.0_release_5G/opensource/component_code/vendor/huawei/extra/build/build_script/kirin_kernel_release/kernel/block/hisi-blk-flush.c:198:29
	str	x1, [x0, #72]
	.loc	2 199 1                 // /mnt/disk/jenkins/workspace/chipset_10.1.0_release_5G/opensource/component_code/vendor/huawei/extra/build/build_script/kirin_kernel_release/kernel/block/hisi-blk-flush.c:199:1
	ret
.Ltmp109:
.Lfunc_end8:
	.size	blk_mq_tagset_direct_flush_register, .Lfunc_end8-blk_mq_tagset_direct_flush_register
	.cfi_endproc
                                        // -- End function
	.section	.text.hisi_blk_queue_async_flush_init,"ax",@progbits
	.hidden	hisi_blk_queue_async_flush_init // -- Begin function hisi_blk_queue_async_flush_init
	.globl	hisi_blk_queue_async_flush_init
	.p2align	2
	.type	hisi_blk_queue_async_flush_init,@function
hisi_blk_queue_async_flush_init:        // @hisi_blk_queue_async_flush_init
.Lfunc_begin9:
	.loc	2 203 0                 // /mnt/disk/jenkins/workspace/chipset_10.1.0_release_5G/opensource/component_code/vendor/huawei/extra/build/build_script/kirin_kernel_release/kernel/block/hisi-blk-flush.c:203:0
	.cfi_startproc
// %bb.0:
	stp	x22, x21, [sp, #-48]!   // 16-byte Folded Spill
	stp	x20, x19, [sp, #16]     // 16-byte Folded Spill
	stp	x29, x30, [sp, #32]     // 16-byte Folded Spill
	add	x29, sp, #32            // =32
	.cfi_def_cfa w29, 16
	.cfi_offset w30, -8
	.cfi_offset w29, -16
	.cfi_offset w19, -24
	.cfi_offset w20, -32
	.cfi_offset w21, -40
	.cfi_offset w22, -48
	//DEBUG_VALUE: hisi_blk_queue_async_flush_init:q <- $x0
.Ltmp110:
	//DEBUG_VALUE: hisi_blk_flush_reduced_queue_register:q <- $x0
	mov	x19, x0
.Ltmp111:
	//DEBUG_VALUE: hisi_blk_flush_reduced_queue_register:q <- $x19
	//DEBUG_VALUE: hisi_blk_queue_async_flush_init:q <- $x19
	.loc	2 204 32 prologue_end   // /mnt/disk/jenkins/workspace/chipset_10.1.0_release_5G/opensource/component_code/vendor/huawei/extra/build/build_script/kirin_kernel_release/kernel/block/hisi-blk-flush.c:204:32
	bl	hisi_blk_get_lld
.Ltmp112:
	.loc	138 212 31              // /mnt/disk/jenkins/workspace/chipset_10.1.0_release_5G/opensource/component_code/vendor/huawei/extra/build/build_script/kirin_kernel_release/kernel/include/linux/compiler.h:212:31
	str	wzr, [x19, #1660]
.Ltmp113:
	.loc	2 207 37                // /mnt/disk/jenkins/workspace/chipset_10.1.0_release_5G/opensource/component_code/vendor/huawei/extra/build/build_script/kirin_kernel_release/kernel/block/hisi-blk-flush.c:207:37
	ldr	x8, [x19, #1664]
.Ltmp114:
	.loc	2 204 32                // /mnt/disk/jenkins/workspace/chipset_10.1.0_release_5G/opensource/component_code/vendor/huawei/extra/build/build_script/kirin_kernel_release/kernel/block/hisi-blk-flush.c:204:32
	mov	x20, x0
.Ltmp115:
	//DEBUG_VALUE: __write_once_size:p <- [DW_OP_plus_uconst 1660, DW_OP_stack_value] $x19
	//DEBUG_VALUE: __write_once_size:size <- 4
	//DEBUG_VALUE: __write_once_size:res <- undef
	//DEBUG_VALUE: hisi_blk_queue_async_flush_init:blk_lld <- $x20
	.loc	2 207 20                // /mnt/disk/jenkins/workspace/chipset_10.1.0_release_5G/opensource/component_code/vendor/huawei/extra/build/build_script/kirin_kernel_release/kernel/block/hisi-blk-flush.c:207:20
	add	x22, x19, #1664         // =1664
.Ltmp116:
	//DEBUG_VALUE: INIT_LIST_HEAD:list <- $x22
	//DEBUG_VALUE: __write_once_size:p <- $x22
	//DEBUG_VALUE: list_empty:head <- $x22
	//DEBUG_VALUE: list_add:new <- $x22
	//DEBUG_VALUE: __list_add:new <- $x22
	.loc	2 207 50 is_stmt 0      // /mnt/disk/jenkins/workspace/chipset_10.1.0_release_5G/opensource/component_code/vendor/huawei/extra/build/build_script/kirin_kernel_release/kernel/block/hisi-blk-flush.c:207:50
	cbnz	x8, .LBB9_3
.Ltmp117:
// %bb.1:
	//DEBUG_VALUE: hisi_blk_queue_async_flush_init:blk_lld <- $x20
	//DEBUG_VALUE: hisi_blk_queue_async_flush_init:q <- $x19
	.loc	2 208 34 is_stmt 1      // /mnt/disk/jenkins/workspace/chipset_10.1.0_release_5G/opensource/component_code/vendor/huawei/extra/build/build_script/kirin_kernel_release/kernel/block/hisi-blk-flush.c:208:34
	ldr	x8, [x19, #1672]
.Ltmp118:
	.loc	2 207 6                 // /mnt/disk/jenkins/workspace/chipset_10.1.0_release_5G/opensource/component_code/vendor/huawei/extra/build/build_script/kirin_kernel_release/kernel/block/hisi-blk-flush.c:207:6
	cbnz	x8, .LBB9_3
.Ltmp119:
// %bb.2:
	//DEBUG_VALUE: hisi_blk_queue_async_flush_init:blk_lld <- $x20
	//DEBUG_VALUE: hisi_blk_queue_async_flush_init:q <- $x19
	//DEBUG_VALUE: __write_once_size:res <- undef
	//DEBUG_VALUE: __write_once_size:size <- 8
	.loc	138 213 31              // /mnt/disk/jenkins/workspace/chipset_10.1.0_release_5G/opensource/component_code/vendor/huawei/extra/build/build_script/kirin_kernel_release/kernel/include/linux/compiler.h:213:31
	str	x22, [x19, #1664]
.Ltmp120:
	.loc	141 29 13               // /mnt/disk/jenkins/workspace/chipset_10.1.0_release_5G/opensource/component_code/vendor/huawei/extra/build/build_script/kirin_kernel_release/kernel/include/linux/list.h:29:13
	str	x22, [x19, #1672]
.Ltmp121:
.LBB9_3:
	//DEBUG_VALUE: hisi_blk_queue_async_flush_init:blk_lld <- $x20
	//DEBUG_VALUE: hisi_blk_queue_async_flush_init:q <- $x19
	.loc	2 210 2                 // /mnt/disk/jenkins/workspace/chipset_10.1.0_release_5G/opensource/component_code/vendor/huawei/extra/build/build_script/kirin_kernel_release/kernel/block/hisi-blk-flush.c:210:2
	adrp	x10, __cfi_hisi_blk_flush_work_fn
	mov	x8, #68719476704
	add	x9, x19, #1568          // =1568
.Ltmp122:
	//DEBUG_VALUE: __write_once_size:res <- undef
	add	x10, x10, :lo12:__cfi_hisi_blk_flush_work_fn
.Ltmp123:
	.loc	2 210 2 is_stmt 0       // /mnt/disk/jenkins/workspace/chipset_10.1.0_release_5G/opensource/component_code/vendor/huawei/extra/build/build_script/kirin_kernel_release/kernel/block/hisi-blk-flush.c:210:2
	add	x0, x19, #1592          // =1592
	orr	w1, wzr, #0x200000
	mov	x2, xzr
	mov	x3, xzr
.Ltmp124:
	.loc	2 210 2                 // /mnt/disk/jenkins/workspace/chipset_10.1.0_release_5G/opensource/component_code/vendor/huawei/extra/build/build_script/kirin_kernel_release/kernel/block/hisi-blk-flush.c:210:2
	add	x21, x19, #1560         // =1560
	str	x8, [x19, #1560]
.Ltmp125:
	//DEBUG_VALUE: __write_once_size:p <- $x9
	//DEBUG_VALUE: __write_once_size:size <- 8
	//DEBUG_VALUE: INIT_LIST_HEAD:list <- $x9
	.loc	138 213 31 is_stmt 1    // /mnt/disk/jenkins/workspace/chipset_10.1.0_release_5G/opensource/component_code/vendor/huawei/extra/build/build_script/kirin_kernel_release/kernel/include/linux/compiler.h:213:31
	str	x9, [x19, #1568]
.Ltmp126:
	.loc	141 29 13               // /mnt/disk/jenkins/workspace/chipset_10.1.0_release_5G/opensource/component_code/vendor/huawei/extra/build/build_script/kirin_kernel_release/kernel/include/linux/list.h:29:13
	str	x9, [x19, #1576]
.Ltmp127:
	.loc	2 210 2                 // /mnt/disk/jenkins/workspace/chipset_10.1.0_release_5G/opensource/component_code/vendor/huawei/extra/build/build_script/kirin_kernel_release/kernel/block/hisi-blk-flush.c:210:2
	str	x10, [x19, #1584]
.Ltmp128:
	.loc	2 210 2 is_stmt 0       // /mnt/disk/jenkins/workspace/chipset_10.1.0_release_5G/opensource/component_code/vendor/huawei/extra/build/build_script/kirin_kernel_release/kernel/block/hisi-blk-flush.c:210:2
	bl	init_timer_key
.Ltmp129:
	adrp	x8, delayed_work_timer_fn
	add	x8, x8, :lo12:delayed_work_timer_fn
	str	x8, [x19, #1616]
	str	x21, [x19, #1624]
.Ltmp130:
	.loc	2 211 15 is_stmt 1      // /mnt/disk/jenkins/workspace/chipset_10.1.0_release_5G/opensource/component_code/vendor/huawei/extra/build/build_script/kirin_kernel_release/kernel/block/hisi-blk-flush.c:211:15
	ldr	x8, [x20, #56]
	.loc	2 211 24 is_stmt 0      // /mnt/disk/jenkins/workspace/chipset_10.1.0_release_5G/opensource/component_code/vendor/huawei/extra/build/build_script/kirin_kernel_release/kernel/block/hisi-blk-flush.c:211:24
	cbz	x8, .LBB9_6
.Ltmp131:
// %bb.4:
	//DEBUG_VALUE: hisi_blk_queue_async_flush_init:blk_lld <- $x20
	//DEBUG_VALUE: hisi_blk_queue_async_flush_init:q <- $x19
	//DEBUG_VALUE: __read_once_size:res <- undef
	//DEBUG_VALUE: __read_once_size:size <- 8
	//DEBUG_VALUE: __read_once_size:p <- $x22
	.loc	138 186 2 is_stmt 1     // /mnt/disk/jenkins/workspace/chipset_10.1.0_release_5G/opensource/component_code/vendor/huawei/extra/build/build_script/kirin_kernel_release/kernel/include/linux/compiler.h:186:2
	ldr	x8, [x22]
.Ltmp132:
	.loc	2 211 6                 // /mnt/disk/jenkins/workspace/chipset_10.1.0_release_5G/opensource/component_code/vendor/huawei/extra/build/build_script/kirin_kernel_release/kernel/block/hisi-blk-flush.c:211:6
	cmp	x22, x8
	b.ne	.LBB9_6
.Ltmp133:
// %bb.5:
	//DEBUG_VALUE: hisi_blk_queue_async_flush_init:blk_lld <- $x20
	//DEBUG_VALUE: hisi_blk_queue_async_flush_init:q <- $x19
	.loc	2 169 2                 // /mnt/disk/jenkins/workspace/chipset_10.1.0_release_5G/opensource/component_code/vendor/huawei/extra/build/build_script/kirin_kernel_release/kernel/block/hisi-blk-flush.c:169:2
	adrp	x21, all_flush_q_lock
	add	x21, x21, :lo12:all_flush_q_lock
.Ltmp134:
	//DEBUG_VALUE: __write_once_size:res <- undef
	mov	x0, x21
	bl	_raw_spin_lock_irqsave
.Ltmp135:
	.loc	141 79 30               // /mnt/disk/jenkins/workspace/chipset_10.1.0_release_5G/opensource/component_code/vendor/huawei/extra/build/build_script/kirin_kernel_release/kernel/include/linux/list.h:79:30
	adrp	x8, all_flush_q_list
	add	x8, x8, :lo12:all_flush_q_list
.Ltmp136:
	//DEBUG_VALUE: list_add:head <- $x8
	ldr	x9, [x8]
.Ltmp137:
	.loc	2 169 2                 // /mnt/disk/jenkins/workspace/chipset_10.1.0_release_5G/opensource/component_code/vendor/huawei/extra/build/build_script/kirin_kernel_release/kernel/block/hisi-blk-flush.c:169:2
	mov	x1, x0
.Ltmp138:
	//DEBUG_VALUE: hisi_blk_flush_reduced_queue_register:flag <- $x1
	.loc	141 79 30               // /mnt/disk/jenkins/workspace/chipset_10.1.0_release_5G/opensource/component_code/vendor/huawei/extra/build/build_script/kirin_kernel_release/kernel/include/linux/list.h:79:30
	adrp	x10, all_flush_q_list
.Ltmp139:
	//DEBUG_VALUE: __list_add:next <- $x9
	//DEBUG_VALUE: __list_add:prev <- $x8
	.loc	140 372 2               // /mnt/disk/jenkins/workspace/chipset_10.1.0_release_5G/opensource/component_code/vendor/huawei/extra/build/build_script/kirin_kernel_release/kernel/include/linux/spinlock.h:372:2
	mov	x0, x21
.Ltmp140:
	.loc	141 63 13               // /mnt/disk/jenkins/workspace/chipset_10.1.0_release_5G/opensource/component_code/vendor/huawei/extra/build/build_script/kirin_kernel_release/kernel/include/linux/list.h:63:13
	str	x22, [x9, #8]
	.loc	141 64 12               // /mnt/disk/jenkins/workspace/chipset_10.1.0_release_5G/opensource/component_code/vendor/huawei/extra/build/build_script/kirin_kernel_release/kernel/include/linux/list.h:64:12
	str	x9, [x19, #1664]
	.loc	141 65 12               // /mnt/disk/jenkins/workspace/chipset_10.1.0_release_5G/opensource/component_code/vendor/huawei/extra/build/build_script/kirin_kernel_release/kernel/include/linux/list.h:65:12
	str	x8, [x19, #1672]
.Ltmp141:
	//DEBUG_VALUE: __write_once_size:size <- 8
	.loc	138 213 31              // /mnt/disk/jenkins/workspace/chipset_10.1.0_release_5G/opensource/component_code/vendor/huawei/extra/build/build_script/kirin_kernel_release/kernel/include/linux/compiler.h:213:31
	str	x22, [x10, :lo12:all_flush_q_list]
.Ltmp142:
	//DEBUG_VALUE: spin_unlock_irqrestore:flags <- $x1
	//DEBUG_VALUE: spin_unlock_irqrestore:lock <- $x21
	.loc	140 372 2               // /mnt/disk/jenkins/workspace/chipset_10.1.0_release_5G/opensource/component_code/vendor/huawei/extra/build/build_script/kirin_kernel_release/kernel/include/linux/spinlock.h:372:2
	bl	_raw_spin_unlock_irqrestore
.Ltmp143:
.LBB9_6:
	//DEBUG_VALUE: hisi_blk_queue_async_flush_init:blk_lld <- $x20
	//DEBUG_VALUE: hisi_blk_queue_async_flush_init:q <- $x19
	.loc	2 215 12                // /mnt/disk/jenkins/workspace/chipset_10.1.0_release_5G/opensource/component_code/vendor/huawei/extra/build/build_script/kirin_kernel_release/kernel/block/hisi-blk-flush.c:215:12
	ldr	w8, [x20, #24]
	.loc	2 215 3 is_stmt 0       // /mnt/disk/jenkins/workspace/chipset_10.1.0_release_5G/opensource/component_code/vendor/huawei/extra/build/build_script/kirin_kernel_release/kernel/block/hisi-blk-flush.c:215:3
	ubfx	w8, w8, #2, #1
	.loc	2 214 31 is_stmt 1      // /mnt/disk/jenkins/workspace/chipset_10.1.0_release_5G/opensource/component_code/vendor/huawei/extra/build/build_script/kirin_kernel_release/kernel/block/hisi-blk-flush.c:214:31
	str	w8, [x19, #1680]
.Ltmp144:
	.loc	2 216 6                 // /mnt/disk/jenkins/workspace/chipset_10.1.0_release_5G/opensource/component_code/vendor/huawei/extra/build/build_script/kirin_kernel_release/kernel/block/hisi-blk-flush.c:216:6
	adrp	x19, blk_async_flush_workqueue
.Ltmp145:
	ldr	x8, [x19, :lo12:blk_async_flush_workqueue]
.Ltmp146:
	.loc	2 216 6 is_stmt 0       // /mnt/disk/jenkins/workspace/chipset_10.1.0_release_5G/opensource/component_code/vendor/huawei/extra/build/build_script/kirin_kernel_release/kernel/block/hisi-blk-flush.c:216:6
	cbnz	x8, .LBB9_8
.Ltmp147:
// %bb.7:
	//DEBUG_VALUE: hisi_blk_queue_async_flush_init:blk_lld <- $x20
	.loc	2 218 4 is_stmt 1       // /mnt/disk/jenkins/workspace/chipset_10.1.0_release_5G/opensource/component_code/vendor/huawei/extra/build/build_script/kirin_kernel_release/kernel/block/hisi-blk-flush.c:218:4
	adrp	x0, .L.str.6
	add	x0, x0, :lo12:.L.str.6
	orr	w1, wzr, #0x2
	mov	w2, wzr
	mov	x3, xzr
	mov	x4, xzr
	bl	__alloc_workqueue_key
	.loc	2 217 29                // /mnt/disk/jenkins/workspace/chipset_10.1.0_release_5G/opensource/component_code/vendor/huawei/extra/build/build_script/kirin_kernel_release/kernel/block/hisi-blk-flush.c:217:29
	str	x0, [x19, :lo12:blk_async_flush_workqueue]
.Ltmp148:
.LBB9_8:
	//DEBUG_VALUE: hisi_blk_queue_async_flush_init:blk_lld <- $x20
	.loc	2 219 1                 // /mnt/disk/jenkins/workspace/chipset_10.1.0_release_5G/opensource/component_code/vendor/huawei/extra/build/build_script/kirin_kernel_release/kernel/block/hisi-blk-flush.c:219:1
	ldp	x29, x30, [sp, #32]     // 16-byte Folded Reload
	ldp	x20, x19, [sp, #16]     // 16-byte Folded Reload
.Ltmp149:
	ldp	x22, x21, [sp], #48     // 16-byte Folded Reload
	ret
.Ltmp150:
.Lfunc_end9:
	.size	hisi_blk_queue_async_flush_init, .Lfunc_end9-hisi_blk_queue_async_flush_init
	.cfi_endproc
                                        // -- End function
	.section	.text.blk_flush_set_async,"ax",@progbits
	.hidden	blk_flush_set_async     // -- Begin function blk_flush_set_async
	.globl	blk_flush_set_async
	.p2align	2
	.type	blk_flush_set_async,@function
blk_flush_set_async:                    // @blk_flush_set_async
.Lfunc_begin10:
	.loc	2 225 0                 // /mnt/disk/jenkins/workspace/chipset_10.1.0_release_5G/opensource/component_code/vendor/huawei/extra/build/build_script/kirin_kernel_release/kernel/block/hisi-blk-flush.c:225:0
	.cfi_startproc
// %bb.0:
	//DEBUG_VALUE: blk_flush_set_async:bio <- $x0
	orr	w8, wzr, #0x1
	//DEBUG_VALUE: blk_flush_set_async:bio <- $x0
.Ltmp151:
	.loc	2 226 31 prologue_end   // /mnt/disk/jenkins/workspace/chipset_10.1.0_release_5G/opensource/component_code/vendor/huawei/extra/build/build_script/kirin_kernel_release/kernel/block/hisi-blk-flush.c:226:31
	strb	w8, [x0, #138]
	.loc	2 227 1                 // /mnt/disk/jenkins/workspace/chipset_10.1.0_release_5G/opensource/component_code/vendor/huawei/extra/build/build_script/kirin_kernel_release/kernel/block/hisi-blk-flush.c:227:1
	ret
.Ltmp152:
.Lfunc_end10:
	.size	blk_flush_set_async, .Lfunc_end10-blk_flush_set_async
	.cfi_endproc
                                        // -- End function
	.section	.text.blk_queue_direct_flush_register,"ax",@progbits
	.hidden	blk_queue_direct_flush_register // -- Begin function blk_queue_direct_flush_register
	.globl	blk_queue_direct_flush_register
	.p2align	2
	.type	blk_queue_direct_flush_register,@function
blk_queue_direct_flush_register:        // @blk_queue_direct_flush_register
.Lfunc_begin11:
	.loc	2 236 0                 // /mnt/disk/jenkins/workspace/chipset_10.1.0_release_5G/opensource/component_code/vendor/huawei/extra/build/build_script/kirin_kernel_release/kernel/block/hisi-blk-flush.c:236:0
	.cfi_startproc
// %bb.0:
	str	x21, [sp, #-48]!        // 8-byte Folded Spill
	stp	x20, x19, [sp, #16]     // 16-byte Folded Spill
	stp	x29, x30, [sp, #32]     // 16-byte Folded Spill
	add	x29, sp, #32            // =32
	.cfi_def_cfa w29, 16
	.cfi_offset w30, -8
	.cfi_offset w29, -16
	.cfi_offset w19, -24
	.cfi_offset w20, -32
	.cfi_offset w21, -48
	//DEBUG_VALUE: blk_queue_direct_flush_register:q <- $x0
	//DEBUG_VALUE: blk_queue_direct_flush_register:func <- $x1
.Ltmp153:
	//DEBUG_VALUE: hisi_blk_flush_reduced_queue_register:q <- $x0
	//DEBUG_VALUE: hisi_blk_flush_reduced_queue_unregister:q <- $x0
	//DEBUG_VALUE: list_del:entry <- [DW_OP_plus_uconst 1664, DW_OP_stack_value] $x0
	//DEBUG_VALUE: __list_del_entry:entry <- [DW_OP_plus_uconst 1664, DW_OP_stack_value] $x0
	mov	x20, x1
	mov	x19, x0
.Ltmp154:
	//DEBUG_VALUE: __list_del_entry:entry <- [DW_OP_plus_uconst 1664, DW_OP_stack_value] $x19
	//DEBUG_VALUE: list_del:entry <- [DW_OP_plus_uconst 1664, DW_OP_stack_value] $x19
	//DEBUG_VALUE: hisi_blk_flush_reduced_queue_unregister:q <- $x19
	//DEBUG_VALUE: hisi_blk_flush_reduced_queue_register:q <- $x19
	//DEBUG_VALUE: blk_queue_direct_flush_register:func <- $x20
	//DEBUG_VALUE: blk_queue_direct_flush_register:q <- $x19
	.loc	2 237 32 prologue_end   // /mnt/disk/jenkins/workspace/chipset_10.1.0_release_5G/opensource/component_code/vendor/huawei/extra/build/build_script/kirin_kernel_release/kernel/block/hisi-blk-flush.c:237:32
	bl	hisi_blk_get_lld
.Ltmp155:
	//DEBUG_VALUE: blk_queue_direct_flush_register:blk_lld <- $x0
	.loc	2 239 37                // /mnt/disk/jenkins/workspace/chipset_10.1.0_release_5G/opensource/component_code/vendor/huawei/extra/build/build_script/kirin_kernel_release/kernel/block/hisi-blk-flush.c:239:37
	ldr	x8, [x19, #1664]
	.loc	2 239 20 is_stmt 0      // /mnt/disk/jenkins/workspace/chipset_10.1.0_release_5G/opensource/component_code/vendor/huawei/extra/build/build_script/kirin_kernel_release/kernel/block/hisi-blk-flush.c:239:20
	add	x21, x19, #1664         // =1664
.Ltmp156:
	//DEBUG_VALUE: INIT_LIST_HEAD:list <- $x21
	//DEBUG_VALUE: __write_once_size:p <- $x21
	//DEBUG_VALUE: list_add:new <- $x21
	//DEBUG_VALUE: __list_add:new <- $x21
	.loc	2 239 50                // /mnt/disk/jenkins/workspace/chipset_10.1.0_release_5G/opensource/component_code/vendor/huawei/extra/build/build_script/kirin_kernel_release/kernel/block/hisi-blk-flush.c:239:50
	cbnz	x8, .LBB11_2
.Ltmp157:
// %bb.1:
	//DEBUG_VALUE: blk_queue_direct_flush_register:blk_lld <- $x0
	//DEBUG_VALUE: blk_queue_direct_flush_register:q <- $x19
	//DEBUG_VALUE: blk_queue_direct_flush_register:func <- $x20
	.loc	2 240 34 is_stmt 1      // /mnt/disk/jenkins/workspace/chipset_10.1.0_release_5G/opensource/component_code/vendor/huawei/extra/build/build_script/kirin_kernel_release/kernel/block/hisi-blk-flush.c:240:34
	ldr	x8, [x19, #1672]
.Ltmp158:
	.loc	2 239 6                 // /mnt/disk/jenkins/workspace/chipset_10.1.0_release_5G/opensource/component_code/vendor/huawei/extra/build/build_script/kirin_kernel_release/kernel/block/hisi-blk-flush.c:239:6
	cbz	x8, .LBB11_6
.Ltmp159:
.LBB11_2:
	//DEBUG_VALUE: blk_queue_direct_flush_register:blk_lld <- $x0
	//DEBUG_VALUE: blk_queue_direct_flush_register:q <- $x19
	//DEBUG_VALUE: blk_queue_direct_flush_register:func <- $x20
	.loc	2 242 6                 // /mnt/disk/jenkins/workspace/chipset_10.1.0_release_5G/opensource/component_code/vendor/huawei/extra/build/build_script/kirin_kernel_release/kernel/block/hisi-blk-flush.c:242:6
	cbz	x20, .LBB11_7
.Ltmp160:
.LBB11_3:
	//DEBUG_VALUE: blk_queue_direct_flush_register:blk_lld <- $x0
	//DEBUG_VALUE: blk_queue_direct_flush_register:q <- $x19
	//DEBUG_VALUE: blk_queue_direct_flush_register:func <- $x20
	.loc	2 243 21                // /mnt/disk/jenkins/workspace/chipset_10.1.0_release_5G/opensource/component_code/vendor/huawei/extra/build/build_script/kirin_kernel_release/kernel/block/hisi-blk-flush.c:243:21
	str	x20, [x0, #56]
.Ltmp161:
	.loc	2 169 2                 // /mnt/disk/jenkins/workspace/chipset_10.1.0_release_5G/opensource/component_code/vendor/huawei/extra/build/build_script/kirin_kernel_release/kernel/block/hisi-blk-flush.c:169:2
	adrp	x20, all_flush_q_lock
.Ltmp162:
	add	x20, x20, :lo12:all_flush_q_lock
.Ltmp163:
	//DEBUG_VALUE: __write_once_size:res <- undef
	mov	x0, x20
.Ltmp164:
	bl	_raw_spin_lock_irqsave
.Ltmp165:
	.loc	141 79 30               // /mnt/disk/jenkins/workspace/chipset_10.1.0_release_5G/opensource/component_code/vendor/huawei/extra/build/build_script/kirin_kernel_release/kernel/include/linux/list.h:79:30
	adrp	x8, all_flush_q_list
	add	x8, x8, :lo12:all_flush_q_list
.Ltmp166:
	//DEBUG_VALUE: list_add:head <- $x8
	ldr	x9, [x8]
	adrp	x10, all_flush_q_list
.Ltmp167:
	//DEBUG_VALUE: __list_add:next <- $x9
	//DEBUG_VALUE: __list_add:prev <- $x8
	.loc	2 169 2                 // /mnt/disk/jenkins/workspace/chipset_10.1.0_release_5G/opensource/component_code/vendor/huawei/extra/build/build_script/kirin_kernel_release/kernel/block/hisi-blk-flush.c:169:2
	mov	x1, x0
.Ltmp168:
	//DEBUG_VALUE: hisi_blk_flush_reduced_queue_register:flag <- $x1
	.loc	141 63 13               // /mnt/disk/jenkins/workspace/chipset_10.1.0_release_5G/opensource/component_code/vendor/huawei/extra/build/build_script/kirin_kernel_release/kernel/include/linux/list.h:63:13
	str	x21, [x9, #8]
	.loc	141 64 12               // /mnt/disk/jenkins/workspace/chipset_10.1.0_release_5G/opensource/component_code/vendor/huawei/extra/build/build_script/kirin_kernel_release/kernel/include/linux/list.h:64:12
	str	x9, [x19, #1664]
	.loc	141 65 12               // /mnt/disk/jenkins/workspace/chipset_10.1.0_release_5G/opensource/component_code/vendor/huawei/extra/build/build_script/kirin_kernel_release/kernel/include/linux/list.h:65:12
	str	x8, [x19, #1672]
.Ltmp169:
	//DEBUG_VALUE: __write_once_size:size <- 8
	.loc	138 213 31              // /mnt/disk/jenkins/workspace/chipset_10.1.0_release_5G/opensource/component_code/vendor/huawei/extra/build/build_script/kirin_kernel_release/kernel/include/linux/compiler.h:213:31
	str	x21, [x10, :lo12:all_flush_q_list]
.Ltmp170:
.LBB11_4:
	//DEBUG_VALUE: blk_queue_direct_flush_register:q <- $x19
	//DEBUG_VALUE: spin_unlock_irqrestore:flags <- $x1
	//DEBUG_VALUE: spin_unlock_irqrestore:lock <- $x20
	.loc	2 0 0 is_stmt 0         // /mnt/disk/jenkins/workspace/chipset_10.1.0_release_5G/opensource/component_code/vendor/huawei/extra/build/build_script/kirin_kernel_release/kernel/block/hisi-blk-flush.c:0:0
	mov	x0, x20
	bl	_raw_spin_unlock_irqrestore
.Ltmp171:
.LBB11_5:
	//DEBUG_VALUE: blk_queue_direct_flush_register:q <- $x19
	.loc	2 249 1 is_stmt 1       // /mnt/disk/jenkins/workspace/chipset_10.1.0_release_5G/opensource/component_code/vendor/huawei/extra/build/build_script/kirin_kernel_release/kernel/block/hisi-blk-flush.c:249:1
	ldp	x29, x30, [sp, #32]     // 16-byte Folded Reload
	ldp	x20, x19, [sp, #16]     // 16-byte Folded Reload
.Ltmp172:
	ldr	x21, [sp], #48          // 8-byte Folded Reload
	ret
.LBB11_6:
.Ltmp173:
	//DEBUG_VALUE: blk_queue_direct_flush_register:blk_lld <- $x0
	//DEBUG_VALUE: blk_queue_direct_flush_register:q <- $x19
	//DEBUG_VALUE: blk_queue_direct_flush_register:func <- $x20
	//DEBUG_VALUE: __write_once_size:res <- undef
	//DEBUG_VALUE: __write_once_size:size <- 8
	.loc	138 213 31              // /mnt/disk/jenkins/workspace/chipset_10.1.0_release_5G/opensource/component_code/vendor/huawei/extra/build/build_script/kirin_kernel_release/kernel/include/linux/compiler.h:213:31
	str	x21, [x19, #1664]
.Ltmp174:
	.loc	141 29 13               // /mnt/disk/jenkins/workspace/chipset_10.1.0_release_5G/opensource/component_code/vendor/huawei/extra/build/build_script/kirin_kernel_release/kernel/include/linux/list.h:29:13
	str	x21, [x19, #1672]
.Ltmp175:
	.loc	2 242 6                 // /mnt/disk/jenkins/workspace/chipset_10.1.0_release_5G/opensource/component_code/vendor/huawei/extra/build/build_script/kirin_kernel_release/kernel/block/hisi-blk-flush.c:242:6
	cbnz	x20, .LBB11_3
.Ltmp176:
.LBB11_7:
	//DEBUG_VALUE: blk_queue_direct_flush_register:blk_lld <- $x0
	//DEBUG_VALUE: blk_queue_direct_flush_register:q <- $x19
	//DEBUG_VALUE: blk_queue_direct_flush_register:func <- $x20
	.loc	2 246 21                // /mnt/disk/jenkins/workspace/chipset_10.1.0_release_5G/opensource/component_code/vendor/huawei/extra/build/build_script/kirin_kernel_release/kernel/block/hisi-blk-flush.c:246:21
	str	xzr, [x0, #56]
.Ltmp177:
	.loc	2 178 20                // /mnt/disk/jenkins/workspace/chipset_10.1.0_release_5G/opensource/component_code/vendor/huawei/extra/build/build_script/kirin_kernel_release/kernel/block/hisi-blk-flush.c:178:20
	ldr	w8, [x19, #1680]
.Ltmp178:
	.loc	2 178 6 is_stmt 0       // /mnt/disk/jenkins/workspace/chipset_10.1.0_release_5G/opensource/component_code/vendor/huawei/extra/build/build_script/kirin_kernel_release/kernel/block/hisi-blk-flush.c:178:6
	cbz	w8, .LBB11_5
.Ltmp179:
// %bb.8:
	//DEBUG_VALUE: blk_queue_direct_flush_register:blk_lld <- $x0
	//DEBUG_VALUE: blk_queue_direct_flush_register:q <- $x19
	//DEBUG_VALUE: blk_queue_direct_flush_register:func <- $x20
	.loc	2 179 38 is_stmt 1      // /mnt/disk/jenkins/workspace/chipset_10.1.0_release_5G/opensource/component_code/vendor/huawei/extra/build/build_script/kirin_kernel_release/kernel/block/hisi-blk-flush.c:179:38
	ldr	x8, [x19, #1664]
	.loc	2 179 51 is_stmt 0      // /mnt/disk/jenkins/workspace/chipset_10.1.0_release_5G/opensource/component_code/vendor/huawei/extra/build/build_script/kirin_kernel_release/kernel/block/hisi-blk-flush.c:179:51
	cbz	x8, .LBB11_5
.Ltmp180:
// %bb.9:
	//DEBUG_VALUE: blk_queue_direct_flush_register:blk_lld <- $x0
	//DEBUG_VALUE: blk_queue_direct_flush_register:q <- $x19
	//DEBUG_VALUE: blk_queue_direct_flush_register:func <- $x20
	.loc	2 180 34 is_stmt 1      // /mnt/disk/jenkins/workspace/chipset_10.1.0_release_5G/opensource/component_code/vendor/huawei/extra/build/build_script/kirin_kernel_release/kernel/block/hisi-blk-flush.c:180:34
	ldr	x8, [x19, #1672]
.Ltmp181:
	.loc	2 179 7                 // /mnt/disk/jenkins/workspace/chipset_10.1.0_release_5G/opensource/component_code/vendor/huawei/extra/build/build_script/kirin_kernel_release/kernel/block/hisi-blk-flush.c:179:7
	cbz	x8, .LBB11_5
.Ltmp182:
// %bb.10:
	//DEBUG_VALUE: blk_queue_direct_flush_register:blk_lld <- $x0
	//DEBUG_VALUE: blk_queue_direct_flush_register:q <- $x19
	//DEBUG_VALUE: blk_queue_direct_flush_register:func <- $x20
	.loc	2 186 3                 // /mnt/disk/jenkins/workspace/chipset_10.1.0_release_5G/opensource/component_code/vendor/huawei/extra/build/build_script/kirin_kernel_release/kernel/block/hisi-blk-flush.c:186:3
	adrp	x20, all_flush_q_lock
.Ltmp183:
	add	x20, x20, :lo12:all_flush_q_lock
	mov	x0, x20
.Ltmp184:
	bl	_raw_spin_lock_irqsave
.Ltmp185:
	.loc	141 120 20              // /mnt/disk/jenkins/workspace/chipset_10.1.0_release_5G/opensource/component_code/vendor/huawei/extra/build/build_script/kirin_kernel_release/kernel/include/linux/list.h:120:20
	ldr	x8, [x19, #1672]
	.loc	141 120 33 is_stmt 0    // /mnt/disk/jenkins/workspace/chipset_10.1.0_release_5G/opensource/component_code/vendor/huawei/extra/build/build_script/kirin_kernel_release/kernel/include/linux/list.h:120:33
	ldr	x9, [x19, #1664]
.Ltmp186:
	//DEBUG_VALUE: __write_once_size:res <- undef
	.loc	141 0 33                // /mnt/disk/jenkins/workspace/chipset_10.1.0_release_5G/opensource/component_code/vendor/huawei/extra/build/build_script/kirin_kernel_release/kernel/include/linux/list.h:0:33
	mov	x10, #256
	movk	x10, #57005, lsl #48
.Ltmp187:
	.loc	2 186 3 is_stmt 1       // /mnt/disk/jenkins/workspace/chipset_10.1.0_release_5G/opensource/component_code/vendor/huawei/extra/build/build_script/kirin_kernel_release/kernel/block/hisi-blk-flush.c:186:3
	mov	x1, x0
.Ltmp188:
	//DEBUG_VALUE: hisi_blk_flush_reduced_queue_unregister:flag <- $x1
	.loc	141 127 14              // /mnt/disk/jenkins/workspace/chipset_10.1.0_release_5G/opensource/component_code/vendor/huawei/extra/build/build_script/kirin_kernel_release/kernel/include/linux/list.h:127:14
	add	x11, x10, #256          // =256
.Ltmp189:
	//DEBUG_VALUE: __list_del:next <- $x9
	//DEBUG_VALUE: __list_del:prev <- $x8
	.loc	141 105 13              // /mnt/disk/jenkins/workspace/chipset_10.1.0_release_5G/opensource/component_code/vendor/huawei/extra/build/build_script/kirin_kernel_release/kernel/include/linux/list.h:105:13
	str	x8, [x9, #8]
.Ltmp190:
	//DEBUG_VALUE: __write_once_size:p <- $x8
	//DEBUG_VALUE: __write_once_size:size <- 8
	.loc	138 213 31              // /mnt/disk/jenkins/workspace/chipset_10.1.0_release_5G/opensource/component_code/vendor/huawei/extra/build/build_script/kirin_kernel_release/kernel/include/linux/compiler.h:213:31
	str	x9, [x8]
.Ltmp191:
	.loc	141 126 14              // /mnt/disk/jenkins/workspace/chipset_10.1.0_release_5G/opensource/component_code/vendor/huawei/extra/build/build_script/kirin_kernel_release/kernel/include/linux/list.h:126:14
	str	x10, [x19, #1664]
	.loc	141 127 14              // /mnt/disk/jenkins/workspace/chipset_10.1.0_release_5G/opensource/component_code/vendor/huawei/extra/build/build_script/kirin_kernel_release/kernel/include/linux/list.h:127:14
	str	x11, [x19, #1672]
	b	.LBB11_4
.Ltmp192:
.Lfunc_end11:
	.size	blk_queue_direct_flush_register, .Lfunc_end11-blk_queue_direct_flush_register
	.cfi_endproc
                                        // -- End function
	.section	.text.blk_queue_flush_reduce_config,"ax",@progbits
	.hidden	blk_queue_flush_reduce_config // -- Begin function blk_queue_flush_reduce_config
	.globl	blk_queue_flush_reduce_config
	.p2align	2
	.type	blk_queue_flush_reduce_config,@function
blk_queue_flush_reduce_config:          // @blk_queue_flush_reduce_config
.Lfunc_begin12:
	.loc	2 257 0                 // /mnt/disk/jenkins/workspace/chipset_10.1.0_release_5G/opensource/component_code/vendor/huawei/extra/build/build_script/kirin_kernel_release/kernel/block/hisi-blk-flush.c:257:0
	.cfi_startproc
// %bb.0:
	stp	x20, x19, [sp, #-32]!   // 16-byte Folded Spill
	stp	x29, x30, [sp, #16]     // 16-byte Folded Spill
	add	x29, sp, #16            // =16
	.cfi_def_cfa w29, 16
	.cfi_offset w30, -8
	.cfi_offset w29, -16
	.cfi_offset w19, -24
	.cfi_offset w20, -32
	//DEBUG_VALUE: blk_queue_flush_reduce_config:q <- $x0
	//DEBUG_VALUE: blk_queue_flush_reduce_config:flush_reduce_enable <- $w1
	mov	w19, w1
	mov	x20, x0
.Ltmp193:
	//DEBUG_VALUE: blk_queue_flush_reduce_config:flush_reduce_enable <- $w19
	//DEBUG_VALUE: blk_queue_flush_reduce_config:q <- $x20
	.loc	2 258 32 prologue_end   // /mnt/disk/jenkins/workspace/chipset_10.1.0_release_5G/opensource/component_code/vendor/huawei/extra/build/build_script/kirin_kernel_release/kernel/block/hisi-blk-flush.c:258:32
	bl	hisi_blk_get_lld
.Ltmp194:
	//DEBUG_VALUE: blk_queue_flush_reduce_config:blk_lld <- $x0
	.loc	2 0 0 is_stmt 0         // /mnt/disk/jenkins/workspace/chipset_10.1.0_release_5G/opensource/component_code/vendor/huawei/extra/build/build_script/kirin_kernel_release/kernel/block/hisi-blk-flush.c:0:0
	ldr	x8, [x0, #24]
.Ltmp195:
	.loc	2 260 6 is_stmt 1       // /mnt/disk/jenkins/workspace/chipset_10.1.0_release_5G/opensource/component_code/vendor/huawei/extra/build/build_script/kirin_kernel_release/kernel/block/hisi-blk-flush.c:260:6
	tst	w19, #0x1
	and	w9, w19, #0x1
	and	x10, x8, #0xfffffffffffffffb
	orr	x8, x8, #0x4
	csel	x8, x8, x10, ne
.Ltmp196:
	.loc	2 0 0 is_stmt 0         // /mnt/disk/jenkins/workspace/chipset_10.1.0_release_5G/opensource/component_code/vendor/huawei/extra/build/build_script/kirin_kernel_release/kernel/block/hisi-blk-flush.c:0:0
	str	x8, [x0, #24]
.Ltmp197:
	.loc	2 264 31 is_stmt 1      // /mnt/disk/jenkins/workspace/chipset_10.1.0_release_5G/opensource/component_code/vendor/huawei/extra/build/build_script/kirin_kernel_release/kernel/block/hisi-blk-flush.c:264:31
	str	w9, [x20, #1680]
	.loc	2 265 1                 // /mnt/disk/jenkins/workspace/chipset_10.1.0_release_5G/opensource/component_code/vendor/huawei/extra/build/build_script/kirin_kernel_release/kernel/block/hisi-blk-flush.c:265:1
	ldp	x29, x30, [sp, #16]     // 16-byte Folded Reload
	ldp	x20, x19, [sp], #32     // 16-byte Folded Reload
.Ltmp198:
	ret
.Ltmp199:
.Lfunc_end12:
	.size	blk_queue_flush_reduce_config, .Lfunc_end12-blk_queue_flush_reduce_config
	.cfi_endproc
                                        // -- End function
	.section	.text.blk_mq_tagset_flush_reduce_config,"ax",@progbits
	.hidden	blk_mq_tagset_flush_reduce_config // -- Begin function blk_mq_tagset_flush_reduce_config
	.globl	blk_mq_tagset_flush_reduce_config
	.p2align	2
	.type	blk_mq_tagset_flush_reduce_config,@function
blk_mq_tagset_flush_reduce_config:      // @blk_mq_tagset_flush_reduce_config
.Lfunc_begin13:
	.loc	2 274 0                 // /mnt/disk/jenkins/workspace/chipset_10.1.0_release_5G/opensource/component_code/vendor/huawei/extra/build/build_script/kirin_kernel_release/kernel/block/hisi-blk-flush.c:274:0
	.cfi_startproc
// %bb.0:
	//DEBUG_VALUE: blk_mq_tagset_flush_reduce_config:tag_set <- $x0
	//DEBUG_VALUE: blk_mq_tagset_flush_reduce_config:tag_set <- $x0
	//DEBUG_VALUE: blk_mq_tagset_flush_reduce_config:flush_reduce_enable <- $w1
	//DEBUG_VALUE: blk_mq_tagset_flush_reduce_config:flush_reduce_enable <- $w1
	.loc	2 0 0 prologue_end      // /mnt/disk/jenkins/workspace/chipset_10.1.0_release_5G/opensource/component_code/vendor/huawei/extra/build/build_script/kirin_kernel_release/kernel/block/hisi-blk-flush.c:0:0
	ldr	x8, [x0, #40]
.Ltmp200:
	.loc	2 275 6                 // /mnt/disk/jenkins/workspace/chipset_10.1.0_release_5G/opensource/component_code/vendor/huawei/extra/build/build_script/kirin_kernel_release/kernel/block/hisi-blk-flush.c:275:6
	tst	w1, #0x1
	and	x9, x8, #0xfffffffffffffffb
	orr	x8, x8, #0x4
	csel	x8, x8, x9, ne
.Ltmp201:
	.loc	2 0 0 is_stmt 0         // /mnt/disk/jenkins/workspace/chipset_10.1.0_release_5G/opensource/component_code/vendor/huawei/extra/build/build_script/kirin_kernel_release/kernel/block/hisi-blk-flush.c:0:0
	str	x8, [x0, #40]
.Ltmp202:
	.loc	2 279 1 is_stmt 1       // /mnt/disk/jenkins/workspace/chipset_10.1.0_release_5G/opensource/component_code/vendor/huawei/extra/build/build_script/kirin_kernel_release/kernel/block/hisi-blk-flush.c:279:1
	ret
.Ltmp203:
.Lfunc_end13:
	.size	blk_mq_tagset_flush_reduce_config, .Lfunc_end13-blk_mq_tagset_flush_reduce_config
	.cfi_endproc
                                        // -- End function
	.section	.text.blk_flush_async_support,"ax",@progbits
	.hidden	blk_flush_async_support // -- Begin function blk_flush_async_support
	.globl	blk_flush_async_support
	.p2align	2
	.type	blk_flush_async_support,@function
blk_flush_async_support:                // @blk_flush_async_support
.Lfunc_begin14:
	.loc	2 286 0                 // /mnt/disk/jenkins/workspace/chipset_10.1.0_release_5G/opensource/component_code/vendor/huawei/extra/build/build_script/kirin_kernel_release/kernel/block/hisi-blk-flush.c:286:0
	.cfi_startproc
// %bb.0:
	//DEBUG_VALUE: blk_flush_async_support:bi_bdev <- $x0
	//DEBUG_VALUE: blk_flush_async_support:bi_bdev <- $x0
	//DEBUG_VALUE: bdev_get_queue:bdev <- $x0
	//DEBUG_VALUE: bdev_get_queue:bdev <- $x0
	.loc	13 1446 15 prologue_end // /mnt/disk/jenkins/workspace/chipset_10.1.0_release_5G/opensource/component_code/vendor/huawei/extra/build/build_script/kirin_kernel_release/kernel/include/linux/blkdev.h:1446:15
	ldr	x8, [x0, #160]
	.loc	13 1446 24 is_stmt 0    // /mnt/disk/jenkins/workspace/chipset_10.1.0_release_5G/opensource/component_code/vendor/huawei/extra/build/build_script/kirin_kernel_release/kernel/include/linux/blkdev.h:1446:24
	ldr	x8, [x8, #1112]
.Ltmp204:
	//DEBUG_VALUE: blk_flush_async_support:q <- $x8
	.loc	2 289 23 is_stmt 1      // /mnt/disk/jenkins/workspace/chipset_10.1.0_release_5G/opensource/component_code/vendor/huawei/extra/build/build_script/kirin_kernel_release/kernel/block/hisi-blk-flush.c:289:23
	ldr	w0, [x8, #1680]
.Ltmp205:
	.loc	2 289 2 is_stmt 0       // /mnt/disk/jenkins/workspace/chipset_10.1.0_release_5G/opensource/component_code/vendor/huawei/extra/build/build_script/kirin_kernel_release/kernel/block/hisi-blk-flush.c:289:2
	ret
.Ltmp206:
.Lfunc_end14:
	.size	blk_flush_async_support, .Lfunc_end14-blk_flush_async_support
	.cfi_endproc
                                        // -- End function
	.type	.L.str,@object          // @.str
	.section	.rodata.str1.1,"aMS",@progbits,1
.L.str:
	.asciz	"\0013[BLK-IO]<%s> blkdev_get fail! \r\n"
	.size	.L.str, 35

	.type	.L__func__.hisi_blk_flush_work_fn,@object // @__func__.hisi_blk_flush_work_fn
.L__func__.hisi_blk_flush_work_fn:
	.asciz	"hisi_blk_flush_work_fn"
	.size	.L__func__.hisi_blk_flush_work_fn, 23

	.type	.L.str.1,@object        // @.str.1
.L.str.1:
	.asciz	"\0013[BLK-IO]<%s> blkdev_issue_flush fail! \r\n"
	.size	.L.str.1, 43

	.type	blk_async_flush_workqueue,@object // @blk_async_flush_workqueue
	.section	.bss.blk_async_flush_workqueue,"aw",@nobits
	.p2align	3
blk_async_flush_workqueue:
	.xword	0
	.size	blk_async_flush_workqueue, 8

	.type	blk_power_off_flush_executing,@object // @blk_power_off_flush_executing
	.section	.bss.blk_power_off_flush_executing,"aw",@nobits
blk_power_off_flush_executing:
	.byte	0                       // 0x0
	.size	blk_power_off_flush_executing, 1

	.type	.L.str.2,@object        // @.str.2
	.section	.rodata.str1.1,"aMS",@progbits,1
.L.str.2:
	.asciz	"\0013[BLK-IO]<%s> emergency = %d \r\n"
	.size	.L.str.2, 33

	.type	.L__func__.blk_power_off_flush,@object // @__func__.blk_power_off_flush
.L__func__.blk_power_off_flush:
	.asciz	"blk_power_off_flush"
	.size	.L__func__.blk_power_off_flush, 20

	.type	all_flush_q_lock,@object // @all_flush_q_lock
	.section	.data.all_flush_q_lock,"aw",@progbits
	.p2align	3
all_flush_q_lock:
	.zero	4
	.word	3735899821              // 0xdead4ead
	.word	4294967295              // 0xffffffff
	.zero	4
	.xword	-1
	.size	all_flush_q_lock, 24

	.type	all_flush_q_list,@object // @all_flush_q_list
	.section	.data.all_flush_q_list,"aw",@progbits
	.p2align	3
all_flush_q_list:
	.xword	all_flush_q_list
	.xword	all_flush_q_list
	.size	all_flush_q_list, 16

	.type	.L.str.3,@object        // @.str.3
	.section	.rodata.str1.1,"aMS",@progbits,1
.L.str.3:
	.asciz	"\0013[BLK-IO]<%s> emergency flush on %s \r\n"
	.size	.L.str.3, 40

	.type	.L.str.4,@object        // @.str.4
.L.str.4:
	.asciz	"\0013[BLK-IO]<%s> emergency flush on %s done!\r\n"
	.size	.L.str.4, 45

	.type	.L.str.5,@object        // @.str.5
.L.str.5:
	.asciz	"\0013[BLK-IO]<%s> done! \r\n"
	.size	.L.str.5, 24

	.type	__kstrtab_blk_power_off_flush,@object // @__kstrtab_blk_power_off_flush
	.section	__ksymtab_strings,"a",@progbits
__kstrtab_blk_power_off_flush:
	.asciz	"blk_power_off_flush"
	.size	__kstrtab_blk_power_off_flush, 20

	.type	__ksymtab_blk_power_off_flush,@object // @__ksymtab_blk_power_off_flush
	.section	"___ksymtab_gpl+blk_power_off_flush","a",@progbits
	.p2align	3
__ksymtab_blk_power_off_flush:
	.xword	blk_power_off_flush
	.xword	__kstrtab_blk_power_off_flush
	.size	__ksymtab_blk_power_off_flush, 16

	.type	hisi_blk_poweroff_flush_nb,@object // @hisi_blk_poweroff_flush_nb
	.section	.data.hisi_blk_poweroff_flush_nb,"aw",@progbits
	.p2align	3
hisi_blk_poweroff_flush_nb:
	.xword	__cfi_hisi_blk_poweroff_flush_notifier_call
	.xword	0
	.word	0                       // 0x0
	.zero	4
	.size	hisi_blk_poweroff_flush_nb, 24

	.type	__initcall_42___cfi_hisi_blk_flush_init6,@object // @__initcall_42___cfi_hisi_blk_flush_init6
	.section	.initcall6.init,"aw",@progbits
	.p2align	3
__initcall_42___cfi_hisi_blk_flush_init6:
	.xword	__cfi_hisi_blk_flush_init
	.size	__initcall_42___cfi_hisi_blk_flush_init6, 8

	.type	__exitcall___cfi_hisi_blk_flush_exit,@object // @__exitcall___cfi_hisi_blk_flush_exit
	.section	.exitcall.exit,"aw",@progbits
	.p2align	3
__exitcall___cfi_hisi_blk_flush_exit:
	.xword	__cfi_hisi_blk_flush_exit
	.size	__exitcall___cfi_hisi_blk_flush_exit, 8

	.type	__kstrtab_blk_mq_tagset_direct_flush_register,@object // @__kstrtab_blk_mq_tagset_direct_flush_register
	.section	__ksymtab_strings,"a",@progbits
__kstrtab_blk_mq_tagset_direct_flush_register:
	.asciz	"blk_mq_tagset_direct_flush_register"
	.size	__kstrtab_blk_mq_tagset_direct_flush_register, 36

	.type	__ksymtab_blk_mq_tagset_direct_flush_register,@object // @__ksymtab_blk_mq_tagset_direct_flush_register
	.section	"___ksymtab_gpl+blk_mq_tagset_direct_flush_register","a",@progbits
	.p2align	3
__ksymtab_blk_mq_tagset_direct_flush_register:
	.xword	blk_mq_tagset_direct_flush_register
	.xword	__kstrtab_blk_mq_tagset_direct_flush_register
	.size	__ksymtab_blk_mq_tagset_direct_flush_register, 16

	.type	.L.str.6,@object        // @.str.6
	.section	.rodata.str1.1,"aMS",@progbits,1
.L.str.6:
	.asciz	"async_flush"
	.size	.L.str.6, 12

	.type	__kstrtab_blk_flush_set_async,@object // @__kstrtab_blk_flush_set_async
	.section	__ksymtab_strings,"a",@progbits
__kstrtab_blk_flush_set_async:
	.asciz	"blk_flush_set_async"
	.size	__kstrtab_blk_flush_set_async, 20

	.type	__ksymtab_blk_flush_set_async,@object // @__ksymtab_blk_flush_set_async
	.section	"___ksymtab_gpl+blk_flush_set_async","a",@progbits
	.p2align	3
__ksymtab_blk_flush_set_async:
	.xword	blk_flush_set_async
	.xword	__kstrtab_blk_flush_set_async
	.size	__ksymtab_blk_flush_set_async, 16

	.type	__kstrtab_blk_queue_direct_flush_register,@object // @__kstrtab_blk_queue_direct_flush_register
	.section	__ksymtab_strings,"a",@progbits
__kstrtab_blk_queue_direct_flush_register:
	.asciz	"blk_queue_direct_flush_register"
	.size	__kstrtab_blk_queue_direct_flush_register, 32

	.type	__ksymtab_blk_queue_direct_flush_register,@object // @__ksymtab_blk_queue_direct_flush_register
	.section	"___ksymtab_gpl+blk_queue_direct_flush_register","a",@progbits
	.p2align	3
__ksymtab_blk_queue_direct_flush_register:
	.xword	blk_queue_direct_flush_register
	.xword	__kstrtab_blk_queue_direct_flush_register
	.size	__ksymtab_blk_queue_direct_flush_register, 16

	.type	__kstrtab_blk_queue_flush_reduce_config,@object // @__kstrtab_blk_queue_flush_reduce_config
	.section	__ksymtab_strings,"a",@progbits
__kstrtab_blk_queue_flush_reduce_config:
	.asciz	"blk_queue_flush_reduce_config"
	.size	__kstrtab_blk_queue_flush_reduce_config, 30

	.type	__ksymtab_blk_queue_flush_reduce_config,@object // @__ksymtab_blk_queue_flush_reduce_config
	.section	"___ksymtab_gpl+blk_queue_flush_reduce_config","a",@progbits
	.p2align	3
__ksymtab_blk_queue_flush_reduce_config:
	.xword	blk_queue_flush_reduce_config
	.xword	__kstrtab_blk_queue_flush_reduce_config
	.size	__ksymtab_blk_queue_flush_reduce_config, 16

	.type	__kstrtab_blk_mq_tagset_flush_reduce_config,@object // @__kstrtab_blk_mq_tagset_flush_reduce_config
	.section	__ksymtab_strings,"a",@progbits
__kstrtab_blk_mq_tagset_flush_reduce_config:
	.asciz	"blk_mq_tagset_flush_reduce_config"
	.size	__kstrtab_blk_mq_tagset_flush_reduce_config, 34

	.type	__ksymtab_blk_mq_tagset_flush_reduce_config,@object // @__ksymtab_blk_mq_tagset_flush_reduce_config
	.section	"___ksymtab_gpl+blk_mq_tagset_flush_reduce_config","a",@progbits
	.p2align	3
__ksymtab_blk_mq_tagset_flush_reduce_config:
	.xword	blk_mq_tagset_flush_reduce_config
	.xword	__kstrtab_blk_mq_tagset_flush_reduce_config
	.size	__ksymtab_blk_mq_tagset_flush_reduce_config, 16

	.type	__kstrtab_blk_flush_async_support,@object // @__kstrtab_blk_flush_async_support
	.section	__ksymtab_strings,"a",@progbits
__kstrtab_blk_flush_async_support:
	.asciz	"blk_flush_async_support"
	.size	__kstrtab_blk_flush_async_support, 24

	.type	__ksymtab_blk_flush_async_support,@object // @__ksymtab_blk_flush_async_support
	.section	"___ksymtab_gpl+blk_flush_async_support","a",@progbits
	.p2align	3
__ksymtab_blk_flush_async_support:
	.xword	blk_flush_async_support
	.xword	__kstrtab_blk_flush_async_support
	.size	__ksymtab_blk_flush_async_support, 16
